 EurlerDynJointVerify_sfun

 Timestamp is 54eec00f (Thu Feb 26 14:41:19 2015)

 Preferred load address is 0000000180000000

 Start         Length     Name                   Class
 0001:00000000 0023d92cH .text                   CODE
 0001:0023d930 0000005eH .text$00                CODE
 0001:0023d990 00000091H .text$x                 CODE
 0002:00000000 000004c8H .idata$5                DATA
 0002:000004c8 00000008H .CRT$XCA                DATA
 0002:000004d0 00000008H .CRT$XCZ                DATA
 0002:000004d8 00000008H .CRT$XIA                DATA
 0002:000004e0 00000008H .CRT$XIAA               DATA
 0002:000004e8 00000008H .CRT$XIZ                DATA
 0002:000004f0 00004afcH .rdata                  DATA
 0002:00004ff0 00000008H .rtc$IAA                DATA
 0002:00004ff8 00000008H .rtc$IZZ                DATA
 0002:00005000 00000008H .rtc$TAA                DATA
 0002:00005008 00000008H .rtc$TZZ                DATA
 0002:00005010 0000693cH .xdata                  DATA
 0002:0000b94c 000000b4H .idata$2                DATA
 0002:0000ba00 00000014H .idata$3                DATA
 0002:0000ba18 000004c8H .idata$4                DATA
 0002:0000bee0 00000aa2H .idata$6                DATA
 0002:0000c990 0000005fH .edata                  DATA
 0003:00000000 00059168H .data                   DATA
 0003:00059180 00002d78H .bss                    DATA
 0004:00000000 000065f4H .pdata                  DATA

  Address         Publics by Value              Rva+Base               Lib:Object

 0000:00000000       ___safe_se_handler_count   0000000000000000     <absolute>
 0000:00000000       ___safe_se_handler_table   0000000000000000     <absolute>
 0000:00000000       __ImageBase                0000000180000000     <linker-defined>
 0001:00000000       sf_c1_EurlerDynJointVerify_get_eml_resolved_functions_info 0000000180001000 f   c1_EurlerDynJointVerify.obj
 0001:000032e0       sf_c1_EurlerDynJointVerify_get_check_sum 00000001800042e0 f   c1_EurlerDynJointVerify.obj
 0001:00003360       sf_c1_EurlerDynJointVerify_get_autoinheritance_info 0000000180004360 f   c1_EurlerDynJointVerify.obj
 0001:00003a90       c1_EurlerDynJointVerify_method_dispatcher 0000000180004a90 f   c1_EurlerDynJointVerify.obj
 0001:00012770       sf_c2_EurlerDynJointVerify_get_eml_resolved_functions_info 0000000180013770 f   c2_EurlerDynJointVerify.obj
 0001:000164b0       sf_c2_EurlerDynJointVerify_get_check_sum 00000001800174b0 f   c2_EurlerDynJointVerify.obj
 0001:00016530       sf_c2_EurlerDynJointVerify_get_autoinheritance_info 0000000180017530 f   c2_EurlerDynJointVerify.obj
 0001:00016c60       c2_EurlerDynJointVerify_method_dispatcher 0000000180017c60 f   c2_EurlerDynJointVerify.obj
 0001:00039a30       sf_c3_EurlerDynJointVerify_get_eml_resolved_functions_info 000000018003aa30 f   c3_EurlerDynJointVerify.obj
 0001:0003d2b0       sf_c3_EurlerDynJointVerify_get_check_sum 000000018003e2b0 f   c3_EurlerDynJointVerify.obj
 0001:0003d330       sf_c3_EurlerDynJointVerify_get_autoinheritance_info 000000018003e330 f   c3_EurlerDynJointVerify.obj
 0001:0003e4b0       c3_EurlerDynJointVerify_method_dispatcher 000000018003f4b0 f   c3_EurlerDynJointVerify.obj
 0001:0006fe30       sf_c4_EurlerDynJointVerify_get_eml_resolved_functions_info 0000000180070e30 f   c4_EurlerDynJointVerify.obj
 0001:00073b00       sf_c4_EurlerDynJointVerify_get_check_sum 0000000180074b00 f   c4_EurlerDynJointVerify.obj
 0001:00073b80       sf_c4_EurlerDynJointVerify_get_autoinheritance_info 0000000180074b80 f   c4_EurlerDynJointVerify.obj
 0001:000742b0       c4_EurlerDynJointVerify_method_dispatcher 00000001800752b0 f   c4_EurlerDynJointVerify.obj
 0001:000973f0       sf_c5_EurlerDynJointVerify_get_eml_resolved_functions_info 00000001800983f0 f   c5_EurlerDynJointVerify.obj
 0001:0009a740       sf_c5_EurlerDynJointVerify_get_check_sum 000000018009b740 f   c5_EurlerDynJointVerify.obj
 0001:0009a7c0       sf_c5_EurlerDynJointVerify_get_autoinheritance_info 000000018009b7c0 f   c5_EurlerDynJointVerify.obj
 0001:0009aef0       c5_EurlerDynJointVerify_method_dispatcher 000000018009bef0 f   c5_EurlerDynJointVerify.obj
 0001:000a9d00       sf_c6_EurlerDynJointVerify_get_eml_resolved_functions_info 00000001800aad00 f   c6_EurlerDynJointVerify.obj
 0001:000ab2f0       sf_c6_EurlerDynJointVerify_get_check_sum 00000001800ac2f0 f   c6_EurlerDynJointVerify.obj
 0001:000ab370       sf_c6_EurlerDynJointVerify_get_autoinheritance_info 00000001800ac370 f   c6_EurlerDynJointVerify.obj
 0001:000ab950       c6_EurlerDynJointVerify_method_dispatcher 00000001800ac950 f   c6_EurlerDynJointVerify.obj
 0001:000b1ef0       sf_c7_EurlerDynJointVerify_get_eml_resolved_functions_info 00000001800b2ef0 f   c7_EurlerDynJointVerify.obj
 0001:000b3e70       sf_c7_EurlerDynJointVerify_get_check_sum 00000001800b4e70 f   c7_EurlerDynJointVerify.obj
 0001:000b3ef0       sf_c7_EurlerDynJointVerify_get_autoinheritance_info 00000001800b4ef0 f   c7_EurlerDynJointVerify.obj
 0001:000b4620       c7_EurlerDynJointVerify_method_dispatcher 00000001800b5620 f   c7_EurlerDynJointVerify.obj
 0001:000be940       sf_c8_EurlerDynJointVerify_get_eml_resolved_functions_info 00000001800bf940 f   c8_EurlerDynJointVerify.obj
 0001:000c2660       sf_c8_EurlerDynJointVerify_get_check_sum 00000001800c3660 f   c8_EurlerDynJointVerify.obj
 0001:000c26e0       sf_c8_EurlerDynJointVerify_get_autoinheritance_info 00000001800c36e0 f   c8_EurlerDynJointVerify.obj
 0001:000c2e10       c8_EurlerDynJointVerify_method_dispatcher 00000001800c3e10 f   c8_EurlerDynJointVerify.obj
 0001:000e5cf0       sf_c9_EurlerDynJointVerify_get_eml_resolved_functions_info 00000001800e6cf0 f   c9_EurlerDynJointVerify.obj
 0001:000e9040       sf_c9_EurlerDynJointVerify_get_check_sum 00000001800ea040 f   c9_EurlerDynJointVerify.obj
 0001:000e90c0       sf_c9_EurlerDynJointVerify_get_autoinheritance_info 00000001800ea0c0 f   c9_EurlerDynJointVerify.obj
 0001:000e97f0       c9_EurlerDynJointVerify_method_dispatcher 00000001800ea7f0 f   c9_EurlerDynJointVerify.obj
 0001:000f8410       sf_c10_EurlerDynJointVerify_get_eml_resolved_functions_info 00000001800f9410 f   c10_EurlerDynJointVerify.obj
 0001:000fc120       sf_c10_EurlerDynJointVerify_get_check_sum 00000001800fd120 f   c10_EurlerDynJointVerify.obj
 0001:000fc1a0       sf_c10_EurlerDynJointVerify_get_autoinheritance_info 00000001800fd1a0 f   c10_EurlerDynJointVerify.obj
 0001:000fc8d0       c10_EurlerDynJointVerify_method_dispatcher 00000001800fd8d0 f   c10_EurlerDynJointVerify.obj
 0001:0011f990       sf_c11_EurlerDynJointVerify_get_eml_resolved_functions_info 0000000180120990 f   c11_EurlerDynJointVerify.obj
 0001:00122c70       sf_c11_EurlerDynJointVerify_get_check_sum 0000000180123c70 f   c11_EurlerDynJointVerify.obj
 0001:00122cf0       sf_c11_EurlerDynJointVerify_get_autoinheritance_info 0000000180123cf0 f   c11_EurlerDynJointVerify.obj
 0001:00123420       c11_EurlerDynJointVerify_method_dispatcher 0000000180124420 f   c11_EurlerDynJointVerify.obj
 0001:00132070       sf_c12_EurlerDynJointVerify_get_eml_resolved_functions_info 0000000180133070 f   c12_EurlerDynJointVerify.obj
 0001:00133660       sf_c12_EurlerDynJointVerify_get_check_sum 0000000180134660 f   c12_EurlerDynJointVerify.obj
 0001:001336e0       sf_c12_EurlerDynJointVerify_get_autoinheritance_info 00000001801346e0 f   c12_EurlerDynJointVerify.obj
 0001:00133cc0       c12_EurlerDynJointVerify_method_dispatcher 0000000180134cc0 f   c12_EurlerDynJointVerify.obj
 0001:0013a270       sf_c13_EurlerDynJointVerify_get_eml_resolved_functions_info 000000018013b270 f   c13_EurlerDynJointVerify.obj
 0001:0013c200       sf_c13_EurlerDynJointVerify_get_check_sum 000000018013d200 f   c13_EurlerDynJointVerify.obj
 0001:0013c280       sf_c13_EurlerDynJointVerify_get_autoinheritance_info 000000018013d280 f   c13_EurlerDynJointVerify.obj
 0001:0013c9b0       c13_EurlerDynJointVerify_method_dispatcher 000000018013d9b0 f   c13_EurlerDynJointVerify.obj
 0001:00146c40       sf_c14_EurlerDynJointVerify_get_eml_resolved_functions_info 0000000180147c40 f   c14_EurlerDynJointVerify.obj
 0001:0014a910       sf_c14_EurlerDynJointVerify_get_check_sum 000000018014b910 f   c14_EurlerDynJointVerify.obj
 0001:0014a990       sf_c14_EurlerDynJointVerify_get_autoinheritance_info 000000018014b990 f   c14_EurlerDynJointVerify.obj
 0001:0014b0c0       c14_EurlerDynJointVerify_method_dispatcher 000000018014c0c0 f   c14_EurlerDynJointVerify.obj
 0001:0016df60       sf_c15_EurlerDynJointVerify_get_eml_resolved_functions_info 000000018016ef60 f   c15_EurlerDynJointVerify.obj
 0001:00171240       sf_c15_EurlerDynJointVerify_get_check_sum 0000000180172240 f   c15_EurlerDynJointVerify.obj
 0001:001712c0       sf_c15_EurlerDynJointVerify_get_autoinheritance_info 00000001801722c0 f   c15_EurlerDynJointVerify.obj
 0001:001719f0       c15_EurlerDynJointVerify_method_dispatcher 00000001801729f0 f   c15_EurlerDynJointVerify.obj
 0001:001805f0       sf_c16_EurlerDynJointVerify_get_eml_resolved_functions_info 00000001801815f0 f   c16_EurlerDynJointVerify.obj
 0001:00184310       sf_c16_EurlerDynJointVerify_get_check_sum 0000000180185310 f   c16_EurlerDynJointVerify.obj
 0001:00184390       sf_c16_EurlerDynJointVerify_get_autoinheritance_info 0000000180185390 f   c16_EurlerDynJointVerify.obj
 0001:00184ac0       c16_EurlerDynJointVerify_method_dispatcher 0000000180185ac0 f   c16_EurlerDynJointVerify.obj
 0001:001a7b60       sf_c17_EurlerDynJointVerify_get_eml_resolved_functions_info 00000001801a8b60 f   c17_EurlerDynJointVerify.obj
 0001:001aae90       sf_c17_EurlerDynJointVerify_get_check_sum 00000001801abe90 f   c17_EurlerDynJointVerify.obj
 0001:001aaf10       sf_c17_EurlerDynJointVerify_get_autoinheritance_info 00000001801abf10 f   c17_EurlerDynJointVerify.obj
 0001:001ab640       c17_EurlerDynJointVerify_method_dispatcher 00000001801ac640 f   c17_EurlerDynJointVerify.obj
 0001:001ba390       sf_c18_EurlerDynJointVerify_get_eml_resolved_functions_info 00000001801bb390 f   c18_EurlerDynJointVerify.obj
 0001:001bb980       sf_c18_EurlerDynJointVerify_get_check_sum 00000001801bc980 f   c18_EurlerDynJointVerify.obj
 0001:001bba00       sf_c18_EurlerDynJointVerify_get_autoinheritance_info 00000001801bca00 f   c18_EurlerDynJointVerify.obj
 0001:001bbfe0       c18_EurlerDynJointVerify_method_dispatcher 00000001801bcfe0 f   c18_EurlerDynJointVerify.obj
 0001:001c24e0       sf_c19_EurlerDynJointVerify_get_eml_resolved_functions_info 00000001801c34e0 f   c19_EurlerDynJointVerify.obj
 0001:001c4480       sf_c19_EurlerDynJointVerify_get_check_sum 00000001801c5480 f   c19_EurlerDynJointVerify.obj
 0001:001c4500       sf_c19_EurlerDynJointVerify_get_autoinheritance_info 00000001801c5500 f   c19_EurlerDynJointVerify.obj
 0001:001c4c30       c19_EurlerDynJointVerify_method_dispatcher 00000001801c5c30 f   c19_EurlerDynJointVerify.obj
 0001:001cf040       sf_c20_EurlerDynJointVerify_get_eml_resolved_functions_info 00000001801d0040 f   c20_EurlerDynJointVerify.obj
 0001:001d2a40       sf_c20_EurlerDynJointVerify_get_check_sum 00000001801d3a40 f   c20_EurlerDynJointVerify.obj
 0001:001d2ac0       sf_c20_EurlerDynJointVerify_get_autoinheritance_info 00000001801d3ac0 f   c20_EurlerDynJointVerify.obj
 0001:001d3c40       c20_EurlerDynJointVerify_method_dispatcher 00000001801d4c40 f   c20_EurlerDynJointVerify.obj
 0001:00208540       sf_process_check_sum_call  0000000180209540 f   EurlerDynJointVerify_sfun_registry.obj
 0001:00208590       sf_process_autoinheritance_call 0000000180209590 f   EurlerDynJointVerify_sfun_registry.obj
 0001:002085e0       sf_process_get_eml_resolved_functions_info_call 00000001802095e0 f   EurlerDynJointVerify_sfun_registry.obj
 0001:00208760       sf_mex_unlock_call         0000000180209760 f   EurlerDynJointVerify_sfun_registry.obj
 0001:00208810       sf_machine_global_initializer_called 0000000180209810 f   EurlerDynJointVerify_sfun_registry.obj
 0001:00208840       sf_machine_global_method_dispatcher 0000000180209840 f   EurlerDynJointVerify_sfun_registry.obj
 0001:002088a0       sf_machine_global_terminator 00000001802098a0 f   EurlerDynJointVerify_sfun_registry.obj
 0001:002088e0       sf_register_machine_exported_symbols 00000001802098e0 f   EurlerDynJointVerify_sfun_registry.obj
 0001:00208900       callCustomFcn              0000000180209900 f   EurlerDynJointVerify_sfun_registry.obj
 0001:00208910       sf_machine_global_initializer 0000000180209910 f   EurlerDynJointVerify_sfun_registry.obj
 0001:00208980       _ssSetInputPortMatrixDimensions 0000000180209980 f   EurlerDynJointVerify_sfun_registry.obj
 0001:00208a90       _ssSetOutputPortMatrixDimensions 0000000180209a90 f   EurlerDynJointVerify_sfun_registry.obj
 0001:00208ba0       _ssSetInputPortVectorDimension 0000000180209ba0 f   EurlerDynJointVerify_sfun_registry.obj
 0001:00208c60       _ssSetOutputPortVectorDimension 0000000180209c60 f   EurlerDynJointVerify_sfun_registry.obj
 0001:00208d20       ssIsRunTimeParamTunable    0000000180209d20 f   EurlerDynJointVerify_sfun_registry.obj
 0001:00208d90       ssGetSFuncBlockHandle      0000000180209d90 f   EurlerDynJointVerify_sfun_registry.obj
 0001:00208e00       _ssGetCurrentInputPortWidth 0000000180209e00 f   EurlerDynJointVerify_sfun_registry.obj
 0001:00208f20       _ssGetCurrentOutputPortWidth 0000000180209f20 f   EurlerDynJointVerify_sfun_registry.obj
 0001:00209040       _ssGetCallSystemNumFcnCallDestinations 000000018020a040 f   EurlerDynJointVerify_sfun_registry.obj
 0001:002090b0       ssWarning                  000000018020a0b0 f   EurlerDynJointVerify_sfun_registry.obj
 0001:00209190       ssGetIsZeroCrossControlDisabled 000000018020a190 f   EurlerDynJointVerify_sfun_registry.obj
 0001:00209200       ssSetIsInputPortUsedForContZcSignal 000000018020a200 f   EurlerDynJointVerify_sfun_registry.obj
 0001:00209270       ssSetZcSignalIsZcElementDisc 000000018020a270 f   EurlerDynJointVerify_sfun_registry.obj
 0001:00209300       ssSetZcSignalName          000000018020a300 f   EurlerDynJointVerify_sfun_registry.obj
 0001:00209370       ssSetZcSignalWidth         000000018020a370 f   EurlerDynJointVerify_sfun_registry.obj
 0001:002093e0       ssSetZcSignalZcEventType   000000018020a3e0 f   EurlerDynJointVerify_sfun_registry.obj
 0001:00209450       ssSetZcSignalType          000000018020a450 f   EurlerDynJointVerify_sfun_registry.obj
 0001:002094c0       ssSetZcSignalZcTol         000000018020a4c0 f   EurlerDynJointVerify_sfun_registry.obj
 0001:00209530       ssSetZcSignalNeedsEventNotification 000000018020a530 f   EurlerDynJointVerify_sfun_registry.obj
 0001:002095a0       ssCreateAndAddZcSignalInfo 000000018020a5a0 f   EurlerDynJointVerify_sfun_registry.obj
 0001:00209610       ssCloneAndAddZcSignalInfo  000000018020a610 f   EurlerDynJointVerify_sfun_registry.obj
 0001:00209680       ssGetNumZcSignals          000000018020a680 f   EurlerDynJointVerify_sfun_registry.obj
 0001:002096f0       ssGetZcSignalVector        000000018020a6f0 f   EurlerDynJointVerify_sfun_registry.obj
 0001:00209760       ssGetZcSignalZcEvents      000000018020a760 f   EurlerDynJointVerify_sfun_registry.obj
 0001:002097d0       ssGetZcSignalName          000000018020a7d0 f   EurlerDynJointVerify_sfun_registry.obj
 0001:00209840       ssGetZcSignalWidth         000000018020a840 f   EurlerDynJointVerify_sfun_registry.obj
 0001:002098b0       ssGetZcSignalZcEventType   000000018020a8b0 f   EurlerDynJointVerify_sfun_registry.obj
 0001:00209920       ssGetZcSignalType          000000018020a920 f   EurlerDynJointVerify_sfun_registry.obj
 0001:00209990       ssGetZcSignalZcTol         000000018020a990 f   EurlerDynJointVerify_sfun_registry.obj
 0001:00209a10       ssGetZcSignalNeedsEventNotification 000000018020aa10 f   EurlerDynJointVerify_sfun_registry.obj
 0001:00209a80       ssGetZcSignalIsZcElementDisc 000000018020aa80 f   EurlerDynJointVerify_sfun_registry.obj
 0001:00209b00       ssGetIsInputPortElementContinuous 000000018020ab00 f   EurlerDynJointVerify_sfun_registry.obj
 0001:00209b80       _ssGetInputPortSignalPtrsFcn 000000018020ab80 f   EurlerDynJointVerify_sfun_registry.obj
 0001:00209df0       _ssGetInputPortSignalFcn   000000018020adf0 f   EurlerDynJointVerify_sfun_registry.obj
 0001:00209fc0       _ssSetInputPortDirectFeedThroughFcn 000000018020afc0 f   EurlerDynJointVerify_sfun_registry.obj
 0001:0020a110       _ssSetInputPortReusableFcn 000000018020b110 f   EurlerDynJointVerify_sfun_registry.obj
 0001:0020a200       _ssSetOutputPortReusableFcn 000000018020b200 f   EurlerDynJointVerify_sfun_registry.obj
 0001:0020a2e0       ssGetDTypeIdFromMxArray    000000018020b2e0 f   EurlerDynJointVerify_sfun_registry.obj
 0001:0020a400       ssWriteRTWStr              000000018020b400 f   EurlerDynJointVerify_sfun_registry.obj
 0001:0020a460       ssWriteRTWMxVectParam      000000018020b460 f   EurlerDynJointVerify_sfun_registry.obj
 0001:0020a4c0       ssWriteRTWMx2dMatParam     000000018020b4c0 f   EurlerDynJointVerify_sfun_registry.obj
 0001:0020a540       ssWriteRTWNameValuePair    000000018020b540 f   EurlerDynJointVerify_sfun_registry.obj
 0001:0020aa20       ssWriteRTWParameters       000000018020ba20 f   EurlerDynJointVerify_sfun_registry.obj
 0001:0020b020       ssWriteRTWParamSettings    000000018020c020 f   EurlerDynJointVerify_sfun_registry.obj
 0001:0020b6f0       ssWriteRTWWorkVect         000000018020c6f0 f   EurlerDynJointVerify_sfun_registry.obj
 0001:0020bbf0       mexFunction                000000018020cbf0 f   EurlerDynJointVerify_sfun_registry.obj
 0001:0020d880       ProcessMexSfunctionEveryCall 000000018020e880 f   EurlerDynJointVerify_sfun_registry.obj
 0001:0020d9f0       EurlerDynJointVerify_initializer 000000018020e9f0 f   EurlerDynJointVerify_sfun.obj
 0001:0020da10       EurlerDynJointVerify_terminator 000000018020ea10 f   EurlerDynJointVerify_sfun.obj
 0001:0020da20       sf_EurlerDynJointVerify_method_dispatcher 000000018020ea20 f   EurlerDynJointVerify_sfun.obj
 0001:0020dd10       sf_EurlerDynJointVerify_process_check_sum_call 000000018020ed10 f   EurlerDynJointVerify_sfun.obj
 0001:0020e2b0       sf_EurlerDynJointVerify_autoinheritance_info 000000018020f2b0 f   EurlerDynJointVerify_sfun.obj
 0001:0020e5b0       sf_EurlerDynJointVerify_get_eml_resolved_functions_info 000000018020f5b0 f   EurlerDynJointVerify_sfun.obj
 0001:0020ebb0       EurlerDynJointVerify_debug_initialize 000000018020fbb0 f   EurlerDynJointVerify_sfun.obj
 0001:0020ec20       EurlerDynJointVerify_register_exported_symbols 000000018020fc20 f   EurlerDynJointVerify_sfun.obj
 0001:0020ecd0       sf_mex_mx_is_numeric       000000018020fcd0 f   sfc_mex:sfc_mex.obj
 0001:0020ed10       strcmp_ignore_ws           000000018020fd10 f   sfc_mex:sfc_mex.obj
 0001:0020ee50       sf_mex_duplicatearraysafe  000000018020fe50 f   sfc_mex:sfc_mex.obj
 0001:0020efb0       sf_set_error_debugger_context_message_fcn 000000018020ffb0 f   sfc_mex:sfc_mex.obj
 0001:0020efc0       sf_set_debugger_matlab_error_fcn 000000018020ffc0 f   sfc_mex:sfc_mex.obj
 0001:0020eff0       sf_set_error_prefix_string 000000018020fff0 f   sfc_mex:sfc_mex.obj
 0001:0020f020       sf_get_error_prefix_string 0000000180210020 f   sfc_mex:sfc_mex.obj
 0001:0020f030       sf_get_current_jmp_buf_ptr 0000000180210030 f   sfc_mex:sfc_mex.obj
 0001:0020f040       sf_set_current_jmp_buf_ptr 0000000180210040 f   sfc_mex:sfc_mex.obj
 0001:0020f050       sf_mex_set_halt_simulation 0000000180210050 f   sfc_mex:sfc_mex.obj
 0001:0020f060       sf_mex_get_halt_simulation 0000000180210060 f   sfc_mex:sfc_mex.obj
 0001:0020f070       sf_mex_clear_error_message 0000000180210070 f   sfc_mex:sfc_mex.obj
 0001:0020f090       sf_mex_get_error_message_for_read 0000000180210090 f   sfc_mex:sfc_mex.obj
 0001:0020f0a0       sf_mex_get_error_message_buffer_length 00000001802100a0 f   sfc_mex:sfc_mex.obj
 0001:0020f190       sf_mex_warning_message     0000000180210190 f   sfc_mex:sfc_mex.obj
 0001:0020f200       sf_mex_v_errbuf_createf    0000000180210200 f   sfc_mex:sfc_mex.obj
 0001:0020f210       sf_mex_errbuf_createf      0000000180210210 f   sfc_mex:sfc_mex.obj
 0001:0020f240       sf_mex_v_errbuf_catf       0000000180210240 f   sfc_mex:sfc_mex.obj
 0001:0020f280       sf_mex_errbuf_catf         0000000180210280 f   sfc_mex:sfc_mex.obj
 0001:0020f2d0       sf_mex_errbuf_copy         00000001802102d0 f   sfc_mex:sfc_mex.obj
 0001:0020f2e0       sf_mex_errbuf_clear        00000001802102e0 f   sfc_mex:sfc_mex.obj
 0001:0020f2f0       sf_mex_errbuf_isempty      00000001802102f0 f   sfc_mex:sfc_mex.obj
 0001:0020f400       sf_mex_set_error_status    0000000180210400 f   sfc_mex:sfc_mex.obj
 0001:0020f450       sf_mex_error_direct_call   0000000180210450 f   sfc_mex:sfc_mex.obj
 0001:0020f470       sf_mex_long_jump_on_error  0000000180210470 f   sfc_mex:sfc_mex.obj
 0001:0020f4a0       sf_mex_call_matlab         00000001802104a0 f   sfc_mex:sfc_mex.obj
 0001:0020f5c0       sf_mex_check_builtin       00000001802105c0 f   sfc_mex:sfc_mex.obj
 0001:0020f600       sf_mex_check_builtin_vs    0000000180210600 f   sfc_mex:sfc_mex.obj
 0001:0020f660       sf_mex_check_enum          0000000180210660 f   sfc_mex:sfc_mex.obj
 0001:0020f690       sf_mex_create_enum         0000000180210690 f   sfc_mex:sfc_mex.obj
 0001:0020f6b0       sf_mex_get_enum_element    00000001802106b0 f   sfc_mex:sfc_mex.obj
 0001:0020f6c0       sf_mex_createcellarray     00000001802106c0 f   sfc_mex:sfc_mex.obj
 0001:0020f6d0       sf_mex_setcell             00000001802106d0 f   sfc_mex:sfc_mex.obj
 0001:0020f6e0       sf_mex_getcell             00000001802106e0 f   sfc_mex:sfc_mex.obj
 0001:0020f6f0       sf_mex_dup                 00000001802106f0 f   sfc_mex:sfc_mex.obj
 0001:0020f710       sf_mex_assign              0000000180210710 f   sfc_mex:sfc_mex.obj
 0001:0020f770       sf_mex_destroy             0000000180210770 f   sfc_mex:sfc_mex.obj
 0001:0020f7a0       mx_array_has_fi_type       00000001802107a0 f   sfc_mex:sfc_mex.obj
 0001:0020f7d0       sf_mex_convert_from_fi     00000001802107d0 f   sfc_mex:sfc_mex.obj
 0001:0020f930       sf_mex_convert_to_double   0000000180210930 f   sfc_mex:sfc_mex.obj
 0001:0020fa50       sf_mex_import_fi_vs        0000000180210a50 f   sfc_mex:sfc_mex.obj
 0001:0020fc80       sf_matrix_matrix_index_ok  0000000180210c80 f   sfc_mex:sfc_mex.obj
 0001:0020fd10       sf_vector_vector_index_ok  0000000180210d10 f   sfc_mex:sfc_mex.obj
 0001:0020fd40       ssGetCurrentInputPortDimensions_wrapper 0000000180210d40 f   sfc_mex:sfc_mex.obj
 0001:0020fd60       ssGetCurrentOutputPortDimensions_wrapper 0000000180210d60 f   sfc_mex:sfc_mex.obj
 0001:0020fd80       sf_mex_emlrt_context_is_debug_mode 0000000180210d80 f   sfc_mex:sfc_mex.obj
 0001:0020fd90       sf_mex_emlrt_context_set_debug_mode 0000000180210d90 f   sfc_mex:sfc_mex.obj
 0001:0020fda0       sf_clear_error_manager_info 0000000180210da0 f   sfc_mex:sfc_mex.obj
 0001:0020fdf0       sf_mex_stop_simulation_abruptly_wo_error 0000000180210df0 f   sfc_mex:sfc_mex.obj
 0001:0020fe30       sf_mex_error_message       0000000180210e30 f   sfc_mex:sfc_mex.obj
 0001:0020fe90       sf_react_to_error_in_matlab_call 0000000180210e90 f   sfc_mex:sfc_mex.obj
 0001:0020fec0       sf_mex_addfield            0000000180210ec0 f   sfc_mex:sfc_mex.obj
 0001:0020ff60       sf_mex_getfield            0000000180210f60 f   sfc_mex:sfc_mex.obj
 0001:00210210       sf_mex_check_class         0000000180211210 f   sfc_mex:sfc_mex.obj
 0001:002102a0       sf_mex_is_real             00000001802112a0 f   sfc_mex:sfc_mex.obj
 0001:002103c0       sf_mex_check_complex       00000001802113c0 f   sfc_mex:sfc_mex.obj
 0001:00210420       sf_mex_check_sparse        0000000180211420 f   sfc_mex:sfc_mex.obj
 0001:00210490       sf_mex_check_numerictype   0000000180211490 f   sfc_mex:sfc_mex.obj
 0001:002106f0       sf_mex_check_fimath        00000001802116f0 f   sfc_mex:sfc_mex.obj
 0001:00210950       sf_mex_decode_encoded_mx_struct_array 0000000180211950 f   sfc_mex:sfc_mex.obj
 0001:00210c20       sf_mex_lw_bounds_check     0000000180211c20 f   sfc_mex:sfc_mex.obj
 0001:00210c50       sf_mex_lw_size_eq_check_1d 0000000180211c50 f   sfc_mex:sfc_mex.obj
 0001:00210c70       sf_mex_lw_size_eq_check_nd 0000000180211c70 f   sfc_mex:sfc_mex.obj
 0001:00210e60       sf_mex_lw_dim_size_eq_check 0000000180211e60 f   sfc_mex:sfc_mex.obj
 0001:00210e90       sf_mex_lw_dim_size_geq_check 0000000180211e90 f   sfc_mex:sfc_mex.obj
 0001:00210ec0       sf_mex_lw_sub_assign_size_check_nd 0000000180211ec0 f   sfc_mex:sfc_mex.obj
 0001:00211100       sf_mex_lw_matrix_matrix_index_check 0000000180212100 f   sfc_mex:sfc_mex.obj
 0001:00211190       sf_mex_lw_vector_vector_index_check 0000000180212190 f   sfc_mex:sfc_mex.obj
 0001:002111d0       sf_mex_lw_non_negative_check 00000001802121d0 f   sfc_mex:sfc_mex.obj
 0001:00211210       sf_mex_overflow_error      0000000180212210 f   sfc_mex:sfc_mex.obj
 0001:00211220       sf_mex_dividebyzero_error  0000000180212220 f   sfc_mex:sfc_mex.obj
 0001:00211230       sf_mex_unsafe_enum_error   0000000180212230 f   sfc_mex:sfc_mex.obj
 0001:00211240       sf_emlrtErrHandler         0000000180212240 f   sfc_mex:sfc_mex.obj
 0001:00211270       sf_mex_printf              0000000180212270 f   sfc_mex:sfc_mex.obj
 0001:002114a0       sf_mex_check_size          00000001802124a0 f   sfc_mex:sfc_mex.obj
 0001:002117a0       sf_mex_check_struct        00000001802127a0 f   sfc_mex:sfc_mex.obj
 0001:00211960       sf_mex_check_struct_vs     0000000180212960 f   sfc_mex:sfc_mex.obj
 0001:002119f0       sf_mex_check_fi            00000001802129f0 f   sfc_mex:sfc_mex.obj
 0001:00211c50       sf_mex_check_fi_vs         0000000180212c50 f   sfc_mex:sfc_mex.obj
 0001:00211cf0       sf_echo_expression         0000000180212cf0 f   sfc_mex:sfc_mex.obj
 0001:00211d50       sf_assertion_failed        0000000180212d50 f   sfc_mex:sfc_mex.obj
 0001:00211f20       sf_mex_evalin              0000000180212f20 f   sfc_mex:sfc_mex.obj
 0001:00212240       sf_mex_export              0000000180213240 f   sfc_mex:sfc_mex.obj
 0001:002122e0       sf_mex_get_ml_var_no_error 00000001802132e0 f   sfc_mex:sfc_mex.obj
 0001:00212560       sf_mex_get_ml_var          0000000180213560 f   sfc_mex:sfc_mex.obj
 0001:002128e0       ml_set_element_value_in_array 00000001802138e0 f   sfc_mex:sfc_mex.obj
 0001:00213d70       sf_mex_call_impl           0000000180214d70 f   sfc_mex:sfc_mex.obj
 0001:00214330       sf_mex_call_debug          0000000180215330 f   sfc_mex:sfc_mex.obj
 0001:00214360       sf_mex_call                0000000180215360 f   sfc_mex:sfc_mex.obj
 0001:00214970       sf_mex_createstruct        0000000180215970 f   sfc_mex:sfc_mex.obj
 0001:00214a60       sf_mex_createstructarray   0000000180215a60 f   sfc_mex:sfc_mex.obj
 0001:00214ae0       sf_mex_get_mx_datatype_from_sf_datatype 0000000180215ae0 f   sfc_mex:sfc_mex.obj
 0001:00214df0       sf_mex_ml_var_sub          0000000180215df0 f   sfc_mex:sfc_mex.obj
 0001:00214fc0       sf_mex_ml_var_subsasgn     0000000180215fc0 f   sfc_mex:sfc_mex.obj
 0001:002153d0       sf_mex_sub                 00000001802163d0 f   sfc_mex:sfc_mex.obj
 0001:002155f0       sf_mex_subsasgn            00000001802165f0 f   sfc_mex:sfc_mex.obj
 0001:002161a0       sf_mex_create              00000001802171a0 f   sfc_mex:sfc_mex.obj
 0001:00217020       sf_mex_import              0000000180218020 f   sfc_mex:sfc_mex.obj
 0001:00217130       sf_mex_import_vs           0000000180218130 f   sfc_mex:sfc_mex.obj
 0001:00217240       sf_mex_lower_fixpt_mx_array 0000000180218240 f   sfc_mex:sfc_mex.obj
 0001:00217880       sim_mode_is_rtw_gen        0000000180218880 f   sfc_mex:sfc_sf.obj
 0001:002178b0       sim_mode_is_external       00000001802188b0 f   sfc_mex:sfc_sf.obj
 0001:002178c0       mdlInitializeSizes         00000001802188c0 f   sfc_mex:sfc_sf.obj
 0001:002178e0       mdlInitializeSampleTimes   00000001802188e0 f   sfc_mex:sfc_sf.obj
 0001:00217920       mdlZeroCrossings           0000000180218920 f   sfc_mex:sfc_sf.obj
 0001:00217a00       mdlDerivatives             0000000180218a00 f   sfc_mex:sfc_sf.obj
 0001:00217ab0       mdl_initialize_conditions_processing 0000000180218ab0 f   sfc_mex:sfc_sf.obj
 0001:00217ae0       mdlInitializeConditions    0000000180218ae0 f   sfc_mex:sfc_sf.obj
 0001:00217ba0       mdlGetSimState             0000000180218ba0 f   sfc_mex:sfc_sf.obj
 0001:00217bb0       mdlSetSimState             0000000180218bb0 f   sfc_mex:sfc_sf.obj
 0001:00217bc0       mdl_ext_mode_exec_processing 0000000180218bc0 f   sfc_mex:sfc_sf.obj
 0001:00217be0       mdlExtModeExec             0000000180218be0 f   sfc_mex:sfc_sf.obj
 0001:00217e40       mdlTerminate               0000000180218e40 f   sfc_mex:sfc_sf.obj
 0001:00217eb0       mdlRTW                     0000000180218eb0 f   sfc_mex:sfc_sf.obj
 0001:00217ee0       mdlSetWorkWidths           0000000180218ee0 f   sfc_mex:sfc_sf.obj
 0001:00217ef0       mdlProcessParameters       0000000180218ef0 f   sfc_mex:sfc_sf.obj
 0001:00217f00       mdl_start_processing       0000000180218f00 f   sfc_mex:sfc_sf.obj
 0001:00217f40       mdlStart                   0000000180218f40 f   sfc_mex:sfc_sf.obj
 0001:00218030       mdlEnable                  0000000180219030 f   sfc_mex:sfc_sf.obj
 0001:00218100       mdlDisable                 0000000180219100 f   sfc_mex:sfc_sf.obj
 0001:002181b0       sf_get_chart_instance_ptr  00000001802191b0 f   sfc_mex:sfc_sf.obj
 0001:002181d0       sf_rtw_info_uint_prop      00000001802191d0 f   sfc_mex:sfc_sf.obj
 0001:002183b0       sf_is_chart_inlinable      00000001802193b0 f   sfc_mex:sfc_sf.obj
 0001:002183d0       sf_mark_output_events_with_multiple_callers 00000001802193d0 f   sfc_mex:sfc_sf.obj
 0001:002185f0       sf_mark_chart_reusable_outputs 00000001802195f0 f   sfc_mex:sfc_sf.obj
 0001:002188d0       sf_mark_chart_expressionable_inputs 00000001802198d0 f   sfc_mex:sfc_sf.obj
 0001:00218ca0       sf_get_subchart_simstruct  0000000180219ca0 f   sfc_mex:sfc_sf.obj
 0001:00218cf0       sf_write_symbol_mapping    0000000180219cf0 f   sfc_mex:sfc_sf.obj
 0001:00218fa0       sf_get_fixpt_data_type_id  0000000180219fa0 f   sfc_mex:sfc_sf.obj
 0001:00218fe0       sf_get_enum_data_type_id   0000000180219fe0 f   sfc_mex:sfc_sf.obj
 0001:00219020       sf_get_param_data_type_id  000000018021a020 f   sfc_mex:sfc_sf.obj
 0001:00219050       sf_mex_listen_for_ctrl_c_force 000000018021a050 f   sfc_mex:sfc_sf.obj
 0001:00219160       sf_mex_draw_now            000000018021a160 f   sfc_mex:sfc_sf.obj
 0001:002191a0       sf_mex_set_debugger_sim_status_listener_fcn 000000018021a1a0 f   sfc_mex:sfc_sf.obj
 0001:002191b0       sf_mex_listen_for_ctrl_c   000000018021a1b0 f   sfc_mex:sfc_sf.obj
 0001:00219240       sf_mex_get_sfun_param      000000018021a240 f   sfc_mex:sfc_sf.obj
 0001:00219290       sf_get_runtime_param_data  000000018021a290 f   sfc_mex:sfc_sf.obj
 0001:002192d0       sf_call_output_fcn_call    000000018021a2d0 f   sfc_mex:sfc_sf.obj
 0001:00219410       sf_call_output_fcn_enable  000000018021a410 f   sfc_mex:sfc_sf.obj
 0001:002194a0       sf_call_output_fcn_disable 000000018021a4a0 f   sfc_mex:sfc_sf.obj
 0001:00219530       sf_clear_rtw_identifier    000000018021a530 f   sfc_mex:sfc_sf.obj
 0001:00219d00       sf_set_encoded_dwork_info  000000018021ad00 f   sfc_mex:sfc_sf.obj
 0001:00219fa0       sf_set_rtw_dwork_info      000000018021afa0 f   sfc_mex:sfc_sf.obj
 0001:0021a270       mdlOutputs                 000000018021b270 f   sfc_mex:sfc_sf.obj
 0001:0021a3b0       sf_debug_disp              000000018021b3b0 f   sfc_debug:sfcdebug.obj
 0001:0021a680       sf_debug_data_runtime_size_mismatch_error_check 000000018021b680 f   sfc_debug:sfcdebug.obj
 0001:0021a720       sf_debug_try_loading_machine 000000018021b720 f   sfc_debug:sfcdebug.obj
 0001:0021a820       sf_debug_reset_current_state_configuration 000000018021b820 f   sfc_debug:sfcdebug.obj
 0001:0021a8b0       sf_debug_store_current_state_configuration 000000018021b8b0 f   sfc_debug:sfcdebug.obj
 0001:0021a940       sf_debug_restore_previous_state_configuration 000000018021b940 f   sfc_debug:sfcdebug.obj
 0001:0021a9d0       sf_debug_restore_previous_state_configuration2 000000018021b9d0 f   sfc_debug:sfcdebug.obj
 0001:0021aa60       sf_debug_get_event_scope   000000018021ba60 f   sfc_debug:sfcdebug.obj
 0001:0021abd0       use_debugger_step_animation 000000018021bbd0 f   sfc_debug:sfcdebug.obj
 0001:0021abf0       sf_debug_get_script_id     000000018021bbf0 f   sfc_debug:sfcdebug.obj
 0001:0021ac80       sf_debug_set_script_translation 000000018021bc80 f   sfc_debug:sfcdebug.obj
 0001:0021ad40       sf_debug_get_current_machine_id 000000018021bd40 f   sfc_debug:sfcdebug.obj
 0001:0021ad60       sf_debug_get_current_optional_integer 000000018021bd60 f   sfc_debug:sfcdebug.obj
 0001:0021ad70       sf_debug_get_current_machine_number 000000018021bd70 f   sfc_debug:sfcdebug.obj
 0001:0021ad90       sf_debug_get_current_machine_name 000000018021bd90 f   sfc_debug:sfcdebug.obj
 0001:0021adb0       sf_debug_get_current_chart_id 000000018021bdb0 f   sfc_debug:sfcdebug.obj
 0001:0021ae00       sf_debug_get_current_chart_number 000000018021be00 f   sfc_debug:sfcdebug.obj
 0001:0021ae10       sf_debug_get_current_instance_number 000000018021be10 f   sfc_debug:sfcdebug.obj
 0001:0021ae20       sf_debug_get_current_is_minor_time_step 000000018021be20 f   sfc_debug:sfcdebug.obj
 0001:0021aea0       sf_debug_get_current_object_type 000000018021bea0 f   sfc_debug:sfcdebug.obj
 0001:0021aeb0       sf_debug_get_current_instance_handle 000000018021beb0 f   sfc_debug:sfcdebug.obj
 0001:0021af10       sf_debug_get_current_event_type 000000018021bf10 f   sfc_debug:sfcdebug.obj
 0001:0021af20       sf_debug_get_current_object_id 000000018021bf20 f   sfc_debug:sfcdebug.obj
 0001:0021af60       sf_debug_get_current_active_event_type 000000018021bf60 f   sfc_debug:sfcdebug.obj
 0001:0021af70       sf_debug_get_current_active_event_id 000000018021bf70 f   sfc_debug:sfcdebug.obj
 0001:0021afb0       sf_debug_get_current_tag_type 000000018021bfb0 f   sfc_debug:sfcdebug.obj
 0001:0021afc0       sf_debug_get_current_simulation_time 000000018021bfc0 f   sfc_debug:sfcdebug.obj
 0001:0021afd0       sf_debug_get_current_coverage_percentage 000000018021bfd0 f   sfc_debug:sfcdebug.obj
 0001:0021afe0       sf_debug_current_statement_context 000000018021bfe0 f   sfc_debug:sfcdebug.obj
 0001:0021b070       sf_debug_get_current_statement_info 000000018021c070 f   sfc_debug:sfcdebug.obj
 0001:0021b1f0       sf_debug_terminate_instance 000000018021c1f0 f   sfc_debug:sfcdebug.obj
 0001:0021b510       sf_debug_assertion_failed  000000018021c510 f   sfc_debug:sfcdebug.obj
 0001:0021b6c0       sf_debug_set_number_of_data_with_change_event_for_machine 000000018021c6c0 f   sfc_debug:sfcdebug.obj
 0001:0021b700       sf_debug_set_machine_event_thresholds 000000018021c700 f   sfc_debug:sfcdebug.obj
 0001:0021b720       sf_debug_set_machine_event_scope 000000018021c720 f   sfc_debug:sfcdebug.obj
 0001:0021b760       sf_debug_set_machine_data_thresholds 000000018021c760 f   sfc_debug:sfcdebug.obj
 0001:0021b7a0       sf_debug_set_machine_data_scope 000000018021c7a0 f   sfc_debug:sfcdebug.obj
 0001:0021b830       sf_debug_set_machine_data_name 000000018021c830 f   sfc_debug:sfcdebug.obj
 0001:0021b8d0       sf_debug_set_machine_data_size 000000018021c8d0 f   sfc_debug:sfcdebug.obj
 0001:0021ba10       sf_debug_set_machine_data_type 000000018021ca10 f   sfc_debug:sfcdebug.obj
 0001:0021bb80       sf_debug_get_chart_data_number 000000018021cb80 f   sfc_debug:sfcdebug.obj
 0001:0021bba0       sf_debug_get_chart_event_number 000000018021cba0 f   sfc_debug:sfcdebug.obj
 0001:0021bbc0       sf_debug_set_chart_state_info 000000018021cbc0 f   sfc_debug:sfcdebug.obj
 0001:0021bc40       sf_debug_set_chart_decomposition 000000018021cc40 f   sfc_debug:sfcdebug.obj
 0001:0021bcb0       sf_debug_set_chart_substate_count 000000018021ccb0 f   sfc_debug:sfcdebug.obj
 0001:0021bd90       sf_debug_set_chart_substate_index 000000018021cd90 f   sfc_debug:sfcdebug.obj
 0001:0021be00       sf_debug_set_chart_state_substate_count 000000018021ce00 f   sfc_debug:sfcdebug.obj
 0001:0021bf10       sf_debug_set_chart_state_substate_index 000000018021cf10 f   sfc_debug:sfcdebug.obj
 0001:0021bf90       sf_debug_set_number_of_data_with_change_event_for_chart 000000018021cf90 f   sfc_debug:sfcdebug.obj
 0001:0021c010       sf_debug_set_number_of_states_with_entry_event_for_chart 000000018021d010 f   sfc_debug:sfcdebug.obj
 0001:0021c080       sf_debug_set_number_of_states_with_exit_event_for_chart 000000018021d080 f   sfc_debug:sfcdebug.obj
 0001:0021c0f0       sf_debug_set_chart_disable_implicit_casting 000000018021d0f0 f   sfc_debug:sfcdebug.obj
 0001:0021c160       sf_debug_set_chart_event_thresholds 000000018021d160 f   sfc_debug:sfcdebug.obj
 0001:0021c1d0       sf_debug_set_chart_data_compiled_props 000000018021d1d0 f   sfc_debug:sfcdebug.obj
 0001:0021c510       sf_debug_set_chart_data_props 000000018021d510 f   sfc_debug:sfcdebug.obj
 0001:0021c840       sf_debug_check_fi_license  000000018021d840 f   sfc_debug:sfcdebug.obj
 0001:0021ca30       sf_debug_symbol_scope_push 000000018021da30 f   sfc_debug:sfcdebug.obj
 0001:0021cb10       sf_debug_symbol_scope_push_eml 000000018021db10 f   sfc_debug:sfcdebug.obj
 0001:0021cbf0       sf_debug_symbol_scope_pop  000000018021dbf0 f   sfc_debug:sfcdebug.obj
 0001:0021cc30       sf_debug_symbol_scope_add  000000018021dc30 f   sfc_debug:sfcdebug.obj
 0001:0021ccb0       sf_debug_symbol_scope_add_eml 000000018021dcb0 f   sfc_debug:sfcdebug.obj
 0001:0021ccf0       sf_debug_symbol_scope_add_dyn 000000018021dcf0 f   sfc_debug:sfcdebug.obj
 0001:0021cda0       sf_debug_symbol_scope_add_eml_dyn 000000018021dda0 f   sfc_debug:sfcdebug.obj
 0001:0021ce00       sf_debug_symbol_switch     000000018021de00 f   sfc_debug:sfcdebug.obj
 0001:0021ce20       sf_debug_symbol_scope_add_verbose 000000018021de20 f   sfc_debug:sfcdebug.obj
 0001:0021cef0       sf_debug_set_machine_data_value_ptr 000000018021def0 f   sfc_debug:sfcdebug.obj
 0001:0021cf30       sf_debug_set_instance_data_value_ptr 000000018021df30 f   sfc_debug:sfcdebug.obj
 0001:0021cff0       sf_debug_unset_instance_data_value_ptr 000000018021dff0 f   sfc_debug:sfcdebug.obj
 0001:0021d0a0       sf_debug_set_chart_event_scope 000000018021e0a0 f   sfc_debug:sfcdebug.obj
 0001:0021d120       sf_debug_set_chart_transition_coverage_maps 000000018021e120 f   sfc_debug:sfcdebug.obj
 0001:0021d230       sf_debug_set_chart_state_coverage_maps 000000018021e230 f   sfc_debug:sfcdebug.obj
 0001:0021d310       sf_debug_set_instance_transition_coverage_weights 000000018021e310 f   sfc_debug:sfcdebug.obj
 0001:0021d3b0       sf_debug_set_instance_state_coverage_weights 000000018021e3b0 f   sfc_debug:sfcdebug.obj
 0001:0021d600       sf_debug_unload_machine    000000018021e600 f   sfc_debug:sfcdebug.obj
 0001:0021d650       sf_debug_load_machine      000000018021e650 f   sfc_debug:sfcdebug.obj
 0001:0021d760       sf_debug_set_active_instance_in_data_dictionary 000000018021e760 f   sfc_debug:sfcdebug.obj
 0001:0021d940       sf_debug_set_active_instance 000000018021e940 f   sfc_debug:sfcdebug.obj
 0001:0021da90       sf_debug_chart_visiblity_change 000000018021ea90 f   sfc_debug:sfcdebug.obj
 0001:0021db70       sf_debug_select_chart      000000018021eb70 f   sfc_debug:sfcdebug.obj
 0001:0021dc50       sf_debug_set_instance_cv_ids 000000018021ec50 f   sfc_debug:sfcdebug.obj
 0001:0021df70       sf_debug_select_charts     000000018021ef70 f   sfc_debug:sfcdebug.obj
 0001:0021e0b0       sf_debug_initialized       000000018021f0b0 f   sfc_debug:sfcdebug.obj
 0001:0021e0c0       sf_debug_is_uninterruptible 000000018021f0c0 f   sfc_debug:sfcdebug.obj
 0001:0021e0f0       sf_debug_initialize_debugger_gui 000000018021f0f0 f   sfc_debug:sfcdebug.obj
 0001:0021e4d0       sf_debug_resume            000000018021f4d0 f   sfc_debug:sfcdebug.obj
 0001:0021e4f0       sf_debug_go                000000018021f4f0 f   sfc_debug:sfcdebug.obj
 0001:0021e500       sf_debug_break             000000018021f500 f   sfc_debug:sfcdebug.obj
 0001:0021e510       sf_debug_step_over         000000018021f510 f   sfc_debug:sfcdebug.obj
 0001:0021e520       sf_debug_step_out          000000018021f520 f   sfc_debug:sfcdebug.obj
 0001:0021e530       sf_debug_set_disable_all_breakpoints 000000018021f530 f   sfc_debug:sfcdebug.obj
 0001:0021e540       sf_debug_disable_all_breakpoints_and_go 000000018021f540 f   sfc_debug:sfcdebug.obj
 0001:0021e550       sf_debug_break_on_chart_entry 000000018021f550 f   sfc_debug:sfcdebug.obj
 0001:0021e560       sf_debug_break_on_event_broadcast 000000018021f560 f   sfc_debug:sfcdebug.obj
 0001:0021e570       sf_debug_break_on_state_entry 000000018021f570 f   sfc_debug:sfcdebug.obj
 0001:0021e580       sf_debug_break_between_times 000000018021f580 f   sfc_debug:sfcdebug.obj
 0001:0021e5a0       sf_debug_browse_data       000000018021f5a0 f   sfc_debug:sfcdebug.obj
 0001:0021e5c0       sf_debug_watch_data        000000018021f5c0 f   sfc_debug:sfcdebug.obj
 0001:0021e5e0       sf_debug_whos              000000018021f5e0 f   sfc_debug:sfcdebug.obj
 0001:0021e600       sf_debug_get_consistency_info 000000018021f600 f   sfc_debug:sfcdebug.obj
 0001:0021e610       sf_debug_browse_trace      000000018021f610 f   sfc_debug:sfcdebug.obj
 0001:0021e620       sf_debug_set_breakpoints   000000018021f620 f   sfc_debug:sfcdebug.obj
 0001:0021e770       sf_debug_set_eml_breakpoints 000000018021f770 f   sfc_debug:sfcdebug.obj
 0001:0021e8d0       sf_debug_set_script_breakpoints 000000018021f8d0 f   sfc_debug:sfcdebug.obj
 0001:0021e950       sf_debug_add_script_breakpoints 000000018021f950 f   sfc_debug:sfcdebug.obj
 0001:0021e9c0       sf_debug_clear_script_breakpoints 000000018021f9c0 f   sfc_debug:sfcdebug.obj
 0001:0021ea30       sf_debug_query_script_breakpoints 000000018021fa30 f   sfc_debug:sfcdebug.obj
 0001:0021eaf0       sf_debug_get_eml_script_id 000000018021faf0 f   sfc_debug:sfcdebug.obj
 0001:0021ebb0       sf_debug_set_watch         000000018021fbb0 f   sfc_debug:sfcdebug.obj
 0001:0021edd0       sf_debug_get_coverage      000000018021fdd0 f   sfc_debug:sfcdebug.obj
 0001:0021ede0       sf_debug_get_instance_handle 000000018021fde0 f   sfc_debug:sfcdebug.obj
 0001:0021ee70       sf_debug_get_active_states 000000018021fe70 f   sfc_debug:sfcdebug.obj
 0001:0021ee80       sf_debug_get_animation     000000018021fe80 f   sfc_debug:sfcdebug.obj
 0001:0021ee90       sf_debug_set_animation     000000018021fe90 f   sfc_debug:sfcdebug.obj
 0001:0021eea0       sf_debug_animate           000000018021fea0 f   sfc_debug:sfcdebug.obj
 0001:0021eed0       sf_debug_cycle_detection_check 000000018021fed0 f   sfc_debug:sfcdebug.obj
 0001:0021eee0       sf_debug_data_range_check  000000018021fee0 f   sfc_debug:sfcdebug.obj
 0001:0021eef0       sf_debug_transition_conflict_check 000000018021fef0 f   sfc_debug:sfcdebug.obj
 0001:0021ef00       sf_debug_state_consistency_check 000000018021ff00 f   sfc_debug:sfcdebug.obj
 0001:0021ef10       sf_debug_data_range_check_enabled 000000018021ff10 f   sfc_debug:sfcdebug.obj
 0001:0021ef30       sf_debug_transition_conflict_check_enabled 000000018021ff30 f   sfc_debug:sfcdebug.obj
 0001:0021ef50       sf_debug_transition_conflict_check_begin 000000018021ff50 f   sfc_debug:sfcdebug.obj
 0001:0021ef70       sf_debug_transition_conflict_check_end 000000018021ff70 f   sfc_debug:sfcdebug.obj
 0001:0021ef90       sf_debug_stop_debugging    000000018021ff90 f   sfc_debug:sfcdebug.obj
 0001:0021efc0       sf_debug_is_cycle_detected 000000018021ffc0 f   sfc_debug:sfcdebug.obj
 0001:0021efd0       sf_debug_is_array_bounds_detected 000000018021ffd0 f   sfc_debug:sfcdebug.obj
 0001:0021efe0       sf_debug_get_state_vectors_data_size 000000018021ffe0 f   sfc_debug:sfcdebug.obj
 0001:0021f020       sf_debug_get_state_vectors_data 0000000180220020 f   sfc_debug:sfcdebug.obj
 0001:0021f130       sf_debug_set_state_vectors_data 0000000180220130 f   sfc_debug:sfcdebug.obj
 0001:0021f410       sf_debug_get_script_index  0000000180220410 f   sfc_debug:sfcdebug.obj
 0001:0021f590       sf_debug_add_script        0000000180220590 f   sfc_debug:sfcdebug.obj
 0001:0021f770       cv_eval_point              0000000180220770 f   sfc_debug:sfcdebug.obj
 0001:0021f8e0       sf_debug_cv_init_state     00000001802208e0 f   sfc_debug:sfcdebug.obj
 0001:0021fa00       sf_debug_cv_init_chart     0000000180220a00 f   sfc_debug:sfcdebug.obj
 0001:0021fae0       sf_debug_cv_init_trans     0000000180220ae0 f   sfc_debug:sfcdebug.obj
 0001:0021fc50       cv_eml_init_script         0000000180220c50 f   sfc_debug:sfcdebug.obj
 0001:0021fd80       cv_eml_init_fcn            0000000180220d80 f   sfc_debug:sfcdebug.obj
 0001:0021fe80       cv_eml_init_testobjective  0000000180220e80 f   sfc_debug:sfcdebug.obj
 0001:0021ff80       cv_eml_init_if             0000000180220f80 f   sfc_debug:sfcdebug.obj
 0001:00220080       cv_eml_init_for            0000000180221080 f   sfc_debug:sfcdebug.obj
 0001:00220170       cv_eml_init_while          0000000180221170 f   sfc_debug:sfcdebug.obj
 0001:00220260       cv_eml_init_mcdc           0000000180221260 f   sfc_debug:sfcdebug.obj
 0001:002203a0       cv_eml_init_switch         00000001802213a0 f   sfc_debug:sfcdebug.obj
 0001:002204c0       cv_eml_eval                00000001802214c0 f   sfc_debug:sfcdebug.obj
 0001:002205c0       sf_debug_bm_is_a_eml_breakpoint 00000001802215c0 f   sfc_debug:sfcdebug.obj
 0001:002207b0       sf_debug_temporal_threshold 00000001802217b0 f   sfc_debug:sfcdebug.obj
 0001:00220b50       sf_debug_transition_conflict_error 0000000180221b50 f   sfc_debug:sfcdebug.obj
 0001:00220eb0       sf_debug_state_inconsistency_error 0000000180221eb0 f   sfc_debug:sfcdebug.obj
 0001:00220fc0       sf_debug_check_for_state_inconsistency 0000000180221fc0 f   sfc_debug:sfcdebug.obj
 0001:00220ff0       sf_debug_cycle_detecton_error 0000000180221ff0 f   sfc_debug:sfcdebug.obj
 0001:00221790       sf_debug_size_eq_check_1d  0000000180222790 f   sfc_debug:sfcdebug.obj
 0001:002217b0       sf_debug_size_eq_check_nd  00000001802227b0 f   sfc_debug:sfcdebug.obj
 0001:002219a0       sf_debug_dim_size_eq_check 00000001802229a0 f   sfc_debug:sfcdebug.obj
 0001:002219d0       sf_debug_dim_size_geq_check 00000001802229d0 f   sfc_debug:sfcdebug.obj
 0001:00221a00       sf_debug_sub_assign_size_check_nd 0000000180222a00 f   sfc_debug:sfcdebug.obj
 0001:00221c50       sf_debug_matrix_matrix_index_check 0000000180222c50 f   sfc_debug:sfcdebug.obj
 0001:00221c80       sf_debug_vector_vector_index_check 0000000180222c80 f   sfc_debug:sfcdebug.obj
 0001:00221cb0       sf_debug_data_array_bounds_error_check 0000000180222cb0 f   sfc_debug:sfcdebug.obj
 0001:00221dc0       sf_debug_eml_data_array_bounds_error_check 0000000180222dc0 f   sfc_debug:sfcdebug.obj
 0001:00222280       sf_debug_integer_check     0000000180223280 f   sfc_debug:sfcdebug.obj
 0001:00222350       sf_debug_not_nan_check     0000000180223350 f   sfc_debug:sfcdebug.obj
 0001:00222410       sf_debug_non_negative_check 0000000180223410 f   sfc_debug:sfcdebug.obj
 0001:002224d0       sf_debug_overflow_detection 00000001802234d0 f   sfc_debug:sfcdebug.obj
 0001:00222b90       sf_debug_cast_to_real32_T  0000000180223b90 f   sfc_debug:sfcdebug.obj
 0001:00222c50       sf_debug_cast_to_int8_T    0000000180223c50 f   sfc_debug:sfcdebug.obj
 0001:00222d10       sf_debug_cast_to_uint8_T   0000000180223d10 f   sfc_debug:sfcdebug.obj
 0001:00222dd0       sf_debug_cast_to_int16_T   0000000180223dd0 f   sfc_debug:sfcdebug.obj
 0001:00222e90       sf_debug_cast_to_uint16_T  0000000180223e90 f   sfc_debug:sfcdebug.obj
 0001:00222f50       sf_debug_cast_to_int32_T   0000000180223f50 f   sfc_debug:sfcdebug.obj
 0001:00223000       sf_debug_cast_to_uint32_T  0000000180224000 f   sfc_debug:sfcdebug.obj
 0001:002230c0       sf_debug_data_range_error  00000001802240c0 f   sfc_debug:sfcdebug.obj
 0001:00223520       sf_debug_data_range_error_wrapper_min_max 0000000180224520 f   sfc_debug:sfcdebug.obj
 0001:00223610       sf_debug_data_range_error_wrapper_min 0000000180224610 f   sfc_debug:sfcdebug.obj
 0001:002236f0       sf_debug_data_range_error_wrapper_max 00000001802246f0 f   sfc_debug:sfcdebug.obj
 0001:002237d0       sf_debug_data_range_wrapper 00000001802247d0 f   sfc_debug:sfcdebug.obj
 0001:00223880       sf_debug_set_current_status_info 0000000180224880 f   sfc_debug:sfcdebug.obj
 0001:00223d50       sf_debug_call              0000000180224d50 f   sfc_debug:sfcdebug.obj
 0001:00224c00       sf_debug_initialize_machine 0000000180225c00 f   sfc_debug:sfcdebug.obj
 0001:00225080       sf_debug_initialize_chart  0000000180226080 f   sfc_debug:sfcdebug.obj
 0001:00225560       sf_debug_ensure_script     0000000180226560 f   sfc_debug:sfcdebug.obj
 0001:002256d0       cv_script_init_script      00000001802266d0 f   sfc_debug:sfcdebug.obj
 0001:00225850       cv_script_init_fcn         0000000180226850 f   sfc_debug:sfcdebug.obj
 0001:002259a0       cv_script_init_testobjective 00000001802269a0 f   sfc_debug:sfcdebug.obj
 0001:00225af0       cv_script_init_if          0000000180226af0 f   sfc_debug:sfcdebug.obj
 0001:00225c40       cv_script_init_for         0000000180226c40 f   sfc_debug:sfcdebug.obj
 0001:00225d90       cv_script_init_while       0000000180226d90 f   sfc_debug:sfcdebug.obj
 0001:00225ee0       cv_script_init_mcdc        0000000180226ee0 f   sfc_debug:sfcdebug.obj
 0001:00226080       cv_script_init_switch      0000000180227080 f   sfc_debug:sfcdebug.obj
 0001:002261f0       cv_script_eval             00000001802271f0 f   sfc_debug:sfcdebug.obj
 0001:00226350       eml_debug_line_call        0000000180227350 f   sfc_debug:sfcdebug.obj
 0001:00226500       sf_debug_terminate         0000000180227500 f   sfc_debug:sfcdebug.obj
 0001:00226740       sf_debug_set_script_cv_ids 0000000180227740 f   sfc_debug:sfcdebug.obj
 0001:00226910       sf_debug_api               0000000180227910 f   sfc_debug:sfc_api.obj
 0001:002281b0       sf_debug_sm_terminate      00000001802291b0 f   sfc_debug:sfdb_animation.obj
 0001:00228370       sf_debug_reset_path_objects 0000000180229370 f   sfc_debug:sfdb_animation.obj
 0001:002283f0       sf_debug_sm_reset_object_selection_status 00000001802293f0 f   sfc_debug:sfdb_animation.obj
 0001:00228490       sf_debug_sm_reset_state_buffer 0000000180229490 f   sfc_debug:sfdb_animation.obj
 0001:00228570       sf_debug_sm_store_state_buffer 0000000180229570 f   sfc_debug:sfdb_animation.obj
 0001:002285f0       sf_debug_sm_restore_state_buffer1 00000001802295f0 f   sfc_debug:sfdb_animation.obj
 0001:00228660       sf_debug_sm_restore_state_buffer2 0000000180229660 f   sfc_debug:sfdb_animation.obj
 0001:002286d0       sf_debug_sm_chart_active   00000001802296d0 f   sfc_debug:sfdb_animation.obj
 0001:00228720       sf_debug_sm_select_active_objects 0000000180229720 f   sfc_debug:sfdb_animation.obj
 0001:00228bb0       sf_debug_sm_is_chart_active 0000000180229bb0 f   sfc_debug:sfdb_animation.obj
 0001:00228bf0       sf_debug_sm_is_state_active 0000000180229bf0 f   sfc_debug:sfdb_animation.obj
 0001:00228e30       sf_debug_sm_get_active_states 0000000180229e30 f   sfc_debug:sfdb_animation.obj
 0001:002293e0       sf_debug_sm_initialize_instance 000000018022a3e0 f   sfc_debug:sfdb_animation.obj
 0001:00229690       sf_debug_sm_change_object_selection_status 000000018022a690 f   sfc_debug:sfdb_animation.obj
 0001:00229980       cv_create_interface        000000018022a980 f   sfc_debug:cv_sfinterface.obj
 0001:00229cd0       cv_init_trans              000000018022acd0 f   sfc_debug:cv_sfinterface.obj
 0001:00229d20       cv_init_state              000000018022ad20 f   sfc_debug:cv_sfinterface.obj
 0001:00229d90       cv_init_chart              000000018022ad90 f   sfc_debug:cv_sfinterface.obj
 0001:00229de0       cv_dec_update_call         000000018022ade0 f   sfc_debug:cv_sfinterface.obj
 0001:00229e20       cv_cond_update_call        000000018022ae20 f   sfc_debug:cv_sfinterface.obj
 0001:00229e60       cv_sigrange_update         000000018022ae60 f   sfc_debug:cv_sfinterface.obj
 0001:00229ea0       cvsf_eml_eval              000000018022aea0 f   sfc_debug:cv_sfinterface.obj
 0001:00229f80       cvsf_eml_init_script       000000018022af80 f   sfc_debug:cv_sfinterface.obj
 0001:0022a000       cvsf_eml_init_fcn          000000018022b000 f   sfc_debug:cv_sfinterface.obj
 0001:0022a060       cvsf_eml_init_testobjective 000000018022b060 f   sfc_debug:cv_sfinterface.obj
 0001:0022a0c0       cvsf_eml_init_if           000000018022b0c0 f   sfc_debug:cv_sfinterface.obj
 0001:0022a120       cvsf_eml_init_for          000000018022b120 f   sfc_debug:cv_sfinterface.obj
 0001:0022a170       cvsf_eml_init_while        000000018022b170 f   sfc_debug:cv_sfinterface.obj
 0001:0022a1c0       cvsf_eml_init_mcdc         000000018022b1c0 f   sfc_debug:cv_sfinterface.obj
 0001:0022a250       cvsf_eml_init_switch       000000018022b250 f   sfc_debug:cv_sfinterface.obj
 0001:0022a2c0       cvsf_script_eval           000000018022b2c0 f   sfc_debug:cv_sfinterface.obj
 0001:0022a3a0       cvsf_script_init_script    000000018022b3a0 f   sfc_debug:cv_sfinterface.obj
 0001:0022a420       cvsf_script_init_fcn       000000018022b420 f   sfc_debug:cv_sfinterface.obj
 0001:0022a480       cvsf_script_init_testobjective 000000018022b480 f   sfc_debug:cv_sfinterface.obj
 0001:0022a4e0       cvsf_script_init_if        000000018022b4e0 f   sfc_debug:cv_sfinterface.obj
 0001:0022a540       cvsf_script_init_for       000000018022b540 f   sfc_debug:cv_sfinterface.obj
 0001:0022a590       cvsf_script_init_while     000000018022b590 f   sfc_debug:cv_sfinterface.obj
 0001:0022a5e0       cvsf_script_init_mcdc      000000018022b5e0 f   sfc_debug:cv_sfinterface.obj
 0001:0022a670       cvsf_script_init_switch    000000018022b670 f   sfc_debug:cv_sfinterface.obj
 0001:0022a6e0       cv_destroy_interface       000000018022b6e0 f   sfc_debug:cv_sfinterface.obj
 0001:0022a700       cv_create_instance_objects 000000018022b700 f   sfc_debug:cv_sfinterface.obj
 0001:0022abb0       cv_is_enabled              000000018022bbb0 f   sfc_debug:cv_sfinterface.obj
 0001:0022abc0       sf_debug_cv_initialize_script 000000018022bbc0 f   sfc_debug:cv_sfinterface.obj
 0001:0022ad60       sf_debug_cv_initialize_instance 000000018022bd60 f   sfc_debug:cv_sfinterface.obj
 0001:0022b0f0       sf_debug_cv_terminate_chart 000000018022c0f0 f   sfc_debug:cv_sfinterface.obj
 0001:0022b230       cv_call_trans_test         000000018022c230 f   sfc_debug:cv_sfinterface.obj
 0001:0022b240       cv_call_sub_cond_test      000000018022c240 f   sfc_debug:cv_sfinterface.obj
 0001:0022b370       sf_debug_hm_initialize_instance 000000018022c370 f   sfc_debug:sfdb_handle_management.obj
 0001:0022b990       sf_debug_hm_get_object_id  000000018022c990 f   sfc_debug:sfdb_handle_management.obj
 0001:0022d8a0       sf_debug_object_is_eml_function 000000018022e8a0 f   sfc_debug:sfdb_handle_management.obj
 0001:0022d910       sf_debug_hm_initialize_ids_in_machine 000000018022e910 f   sfc_debug:sfdb_handle_management.obj
 0001:0022da80       sf_debug_hm_initialize_ids_in_chart 000000018022ea80 f   sfc_debug:sfdb_handle_management.obj
 0001:0022dbc0       sf_debug_hm_initialize_chart 000000018022ebc0 f   sfc_debug:sfdb_handle_management.obj
 0001:0022e470       sf_debug_hm_terminate      000000018022f470 f   sfc_debug:sfdb_handle_management.obj
 0001:0022e4d0       sf_debug_hm_initialize_machine 000000018022f4d0 f   sfc_debug:sfdb_handle_management.obj
 0001:0022ed80       sf_debug_st_initialize_machine 000000018022fd80 f   sfc_debug:sfdb_data_browse.obj
 0001:0022ee40       sf_debug_st_initialize_instance 000000018022fe40 f   sfc_debug:sfdb_data_browse.obj
 0001:0022f250       sf_debug_st_terminate      0000000180230250 f   sfc_debug:sfdb_data_browse.obj
 0001:0022f600       sf_debug_st_set_data_value_ptr_in_machine 0000000180230600 f   sfc_debug:sfdb_data_browse.obj
 0001:0022f690       sf_debug_st_set_data_value_ptr_in_instance 0000000180230690 f   sfc_debug:sfdb_data_browse.obj
 0001:0022f770       sf_debug_st_unset_data_value_ptr_in_machine 0000000180230770 f   sfc_debug:sfdb_data_browse.obj
 0001:0022f7e0       sf_debug_st_unset_data_value_ptr_in_instance 00000001802307e0 f   sfc_debug:sfdb_data_browse.obj
 0001:0022faa0       sf_debug_mx_value          0000000180230aa0 f   sfc_debug:sfdb_data_browse.obj
 0001:0022fb00       sf_debug_mx_packed_vector  0000000180230b00 f   sfc_debug:sfdb_data_browse.obj
 0001:0022fbe0       sf_debug_mx_uint_vector    0000000180230be0 f   sfc_debug:sfdb_data_browse.obj
 0001:0022fc90       sf_debug_st_get_double_value_from_void_ptr_vector 0000000180230c90 f   sfc_debug:sfdb_data_browse.obj
 0001:002307f0       sf_debug_st_browse_data    00000001802317f0 f   sfc_debug:sfdb_data_browse.obj
 0001:00230f90       sf_debug_ss_initialize     0000000180231f90 f   sfc_debug:sfdb_symbol_scope.obj
 0001:00230fb0       sf_debug_ss_terminate      0000000180231fb0 f   sfc_debug:sfdb_symbol_scope.obj
 0001:00231040       sf_debug_ss_push_symbol_scope 0000000180232040 f   sfc_debug:sfdb_symbol_scope.obj
 0001:00231140       sf_debug_ss_push_symbol_scope_eml 0000000180232140 f   sfc_debug:sfdb_symbol_scope.obj
 0001:002311a0       sf_debug_ss_pop_symbol_scope 00000001802321a0 f   sfc_debug:sfdb_symbol_scope.obj
 0001:00231250       sf_debug_ss_add_symbol     0000000180232250 f   sfc_debug:sfdb_symbol_scope.obj
 0001:002313a0       sf_debug_ss_add_symbol_eml 00000001802323a0 f   sfc_debug:sfdb_symbol_scope.obj
 0001:00232400       sf_debug_ss_watch_data     0000000180233400 f   sfc_debug:sfdb_symbol_scope.obj
 0001:00232e30       get_data_entry_name        0000000180233e30 f   sfc_debug:sfdb_symbol_scope.obj
 0001:00232e80       sf_debug_ss_whos           0000000180233e80 f   sfc_debug:sfdb_symbol_scope.obj
 0001:00233720       sf_debug_cc_initialize_chart 0000000180234720 f   sfc_debug:sfdb_coverage.obj
 0001:00234110       sf_debug_cc_initialize_instance 0000000180235110 f   sfc_debug:sfdb_coverage.obj
 0001:00234f10       sf_debug_cc_terminate      0000000180235f10 f   sfc_debug:sfdb_coverage.obj
 0001:00235000       sf_debug_cc_set_transition_maps 0000000180236000 f   sfc_debug:sfdb_coverage.obj
 0001:00235130       sf_debug_cc_set_state_maps 0000000180236130 f   sfc_debug:sfdb_coverage.obj
 0001:00235210       sf_debug_cc_set_transition_weights 0000000180236210 f   sfc_debug:sfdb_coverage.obj
 0001:002354e0       sf_debug_cc_set_state_weights 00000001802364e0 f   sfc_debug:sfdb_coverage.obj
 0001:002357c0       sf_debug_cc_mark_transition_guard 00000001802367c0 f   sfc_debug:sfdb_coverage.obj
 0001:002358e0       sf_debug_cc_mark_transition_trigger 00000001802368e0 f   sfc_debug:sfdb_coverage.obj
 0001:00235a00       sf_debug_cc_mark_transition_decision 0000000180236a00 f   sfc_debug:sfdb_coverage.obj
 0001:00235a70       sf_debug_cc_mark_transition_condition_action 0000000180236a70 f   sfc_debug:sfdb_coverage.obj
 0001:00235b40       sf_debug_cc_mark_transition_transition_action 0000000180236b40 f   sfc_debug:sfdb_coverage.obj
 0001:00235c10       sf_debug_cc_mark_state_entry 0000000180236c10 f   sfc_debug:sfdb_coverage.obj
 0001:00235ce0       sf_debug_cc_mark_state_during 0000000180236ce0 f   sfc_debug:sfdb_coverage.obj
 0001:00235db0       sf_debug_cc_mark_state_exit 0000000180236db0 f   sfc_debug:sfdb_coverage.obj
 0001:00236670       sf_debug_cc_get_coverage   0000000180237670 f   sfc_debug:sfdb_coverage.obj
 0001:00236c00       sf_debug_bm_clear_script_breakpoints 0000000180237c00 f   sfc_debug:sfdb_breakpoints.obj
 0001:00236c30       sf_debug_bm_set_script_breakpoint 0000000180237c30 f   sfc_debug:sfdb_breakpoints.obj
 0001:00236cb0       sf_debug_bm_clear_single_script_breakpoint 0000000180237cb0 f   sfc_debug:sfdb_breakpoints.obj
 0001:00236d30       sf_debug_bm_query_script_breakpoint 0000000180237d30 f   sfc_debug:sfdb_breakpoints.obj
 0001:00236d80       sf_debug_bm_initialize_scripts 0000000180237d80 f   sfc_debug:sfdb_breakpoints.obj
 0001:002374a0       sf_debug_bm_terminate      00000001802384a0 f   sfc_debug:sfdb_breakpoints.obj
 0001:002377a0       sf_debug_bm_remove_all_breakpoints_in_machine 00000001802387a0 f   sfc_debug:sfdb_breakpoints.obj
 0001:00237810       sf_debug_bm_remove_all_breakpoints_in_chart 0000000180238810 f   sfc_debug:sfdb_breakpoints.obj
 0001:00237960       sf_debug_bm_initialize_global_breakpoints 0000000180238960 f   sfc_debug:sfdb_breakpoints.obj
 0001:00237ae0       sf_debug_bm_set_breakpoint 0000000180238ae0 f   sfc_debug:sfdb_breakpoints.obj
 0001:002380e0       sf_debug_bm_set_eml_breakpoint 00000001802390e0 f   sfc_debug:sfdb_breakpoints.obj
 0001:00238180       sf_debug_bm_initialize_machine_breakpoint_map 0000000180239180 f   sfc_debug:sfdb_breakpoints.obj
 0001:00238670       sf_debug_bm_is_a_breakpoint 0000000180239670 f   sfc_debug:sfdb_breakpoints.obj
 0001:00238b90       sf_debug_bm_get_all_breakpoints_in_machine 0000000180239b90 f   sfc_debug:sfdb_breakpoints.obj
 0001:00238e90       sf_debug_bm_get_all_breakpoints_in_chart 0000000180239e90 f   sfc_debug:sfdb_breakpoints.obj
 0001:00239b40       sf_debug_bm_initialize_machine 000000018023ab40 f   sfc_debug:sfdb_breakpoints.obj
 0001:00239c10       sf_debug_bm_initialize_chart 000000018023ac10 f   sfc_debug:sfdb_breakpoints.obj
 0001:0023a150       sf_debug_sc_terminate      000000018023b150 f   sfc_debug:sfdb_state_consistency.obj
 0001:0023a480       sf_debug_sc_is_chart_consistent 000000018023b480 f   sfc_debug:sfdb_state_consistency.obj
 0001:0023a720       sf_debug_sc_get_consistency_error_info 000000018023b720 f   sfc_debug:sfdb_state_consistency.obj
 0001:0023ab50       sf_debug_tm_terminate      000000018023bb50 f   sfc_debug:sfdb_call_stack.obj
 0001:0023ac10       sf_debug_tm_push_chart_instance 000000018023bc10 f   sfc_debug:sfdb_call_stack.obj
 0001:0023ad70       sf_debug_tm_pop_chart_instance 000000018023bd70 f   sfc_debug:sfdb_call_stack.obj
 0001:0023add0       sf_debug_tm_push_trace_node 000000018023bdd0 f   sfc_debug:sfdb_call_stack.obj
 0001:0023af60       sf_debug_tm_pop_trace_node 000000018023bf60 f   sfc_debug:sfdb_call_stack.obj
 0001:0023afe0       sf_debug_tm_get_current_global_trace_index 000000018023bfe0 f   sfc_debug:sfdb_call_stack.obj
 0001:0023aff0       sf_debug_tm_get_current_local_trace_index 000000018023bff0 f   sfc_debug:sfdb_call_stack.obj
 0001:0023b020       sf_debug_tm_set_cycle_detected_flag 000000018023c020 f   sfc_debug:sfdb_call_stack.obj
 0001:0023b060       sf_debug_tm_set_cycle_started_flag 000000018023c060 f   sfc_debug:sfdb_call_stack.obj
 0001:0023b0a0       sf_debug_tm_get_chart_number_from_stack 000000018023c0a0 f   sfc_debug:sfdb_call_stack.obj
 0001:0023b280       sf_debug_tm_browse_trace   000000018023c280 f   sfc_debug:sfdb_call_stack.obj
 0001:0023b5b0       sf_debug_cd_initialize_instance 000000018023c5b0 f   sfc_debug:sfdb_cycle_detection.obj
 0001:0023b860       sf_debug_cd_mark_processed_transition_in_instance 000000018023c860 f   sfc_debug:sfdb_cycle_detection.obj
 0001:0023b900       sf_debug_cd_checksum_push  000000018023c900 f   sfc_debug:sfdb_cycle_detection.obj
 0001:0023bbc0       sf_debug_cd_checksum_pop   000000018023cbc0 f   sfc_debug:sfdb_cycle_detection.obj
 0001:0023bc30       sf_debug_cd_turn_off_cycle_detection 000000018023cc30 f   sfc_debug:sfdb_cycle_detection.obj
 0001:0023bc80       sf_debug_cd_terminate      000000018023cc80 f   sfc_debug:sfdb_cycle_detection.obj
 0001:0023bec0       md5_initialize_state       000000018023cec0 f   sfc_debug:ckmd5.obj
 0001:0023ca40       md5_update_state           000000018023da40 f   sfc_debug:ckmd5.obj
 0001:0023cb20       md5_get_hash               000000018023db20 f   sfc_debug:ckmd5.obj
 0001:0023cb50       md5_get_hash_for_a_single_string 000000018023db50 f   sfc_debug:ckmd5.obj
 0001:0023ccaa       mxGetPr                    000000018023dcaa f   libmx:libmx.dll
 0001:0023ccb0       mxCreateDoubleScalar       000000018023dcb0 f   libmx:libmx.dll
 0001:0023ccb6       mxSetField_730             000000018023dcb6 f   libmx:libmx.dll
 0001:0023ccbc       mxCreateDoubleMatrix_730   000000018023dcbc f   libmx:libmx.dll
 0001:0023ccc2       mxCreateStructMatrix_730   000000018023dcc2 f   libmx:libmx.dll
 0001:0023ccc8       mxDestroyArray             000000018023dcc8 f   libmx:libmx.dll
 0001:0023ccce       mxCreateString             000000018023dcce f   libmx:libmx.dll
 0001:0023ccd4       mxDuplicateArray           000000018023dcd4 f   libmx:libmx.dll
 0001:0023ccda       mxGetNaN                   000000018023dcda f   libmx:libmx.dll
 0001:0023cce0       mxGetString_730            000000018023dce0 f   libmx:libmx.dll
 0001:0023cce6       mxIsChar                   000000018023dce6 f   libmx:libmx.dll
 0001:0023ccec       mxGetClassID               000000018023dcec f   libmx:libmx.dll
 0001:0023ccf2       mxIsNumeric                000000018023dcf2 f   libmx:libmx.dll
 0001:0023ccf8       mxIsComplex                000000018023dcf8 f   libmx:libmx.dll
 0001:0023ccfe       mxGetN                     000000018023dcfe f   libmx:libmx.dll
 0001:0023cd04       mxGetM                     000000018023dd04 f   libmx:libmx.dll
 0001:0023cd0a       mxCalloc                   000000018023dd0a f   libmx:libmx.dll
 0001:0023cd10       mxGetScalar                000000018023dd10 f   libmx:libmx.dll
 0001:0023cd16       mxIsLogical                000000018023dd16 f   libmx:libmx.dll
 0001:0023cd1c       mxCreateDoubleMatrix_700   000000018023dd1c f   libmx:libmx.dll
 0001:0023cd22       mxFree                     000000018023dd22 f   libmx:libmx.dll
 0001:0023cd28       mxArrayToString            000000018023dd28 f   libmx:libmx.dll
 0001:0023cd2e       mxCreateCellMatrix_700     000000018023dd2e f   libmx:libmx.dll
 0001:0023cd34       mxSetCell_700              000000018023dd34 f   libmx:libmx.dll
 0001:0023cd3a       mxGetCell_700              000000018023dd3a f   libmx:libmx.dll
 0001:0023cd40       mxGetClassName             000000018023dd40 f   libmx:libmx.dll
 0001:0023cd46       mxSetField_700             000000018023dd46 f   libmx:libmx.dll
 0001:0023cd4c       mxAddField                 000000018023dd4c f   libmx:libmx.dll
 0001:0023cd52       mxGetField_700             000000018023dd52 f   libmx:libmx.dll
 0001:0023cd58       mxGetNumberOfElements      000000018023dd58 f   libmx:libmx.dll
 0001:0023cd5e       mxIsStruct                 000000018023dd5e f   libmx:libmx.dll
 0001:0023cd64       mxIsClass                  000000018023dd64 f   libmx:libmx.dll
 0001:0023cd6a       mxGetLogicals              000000018023dd6a f   libmx:libmx.dll
 0001:0023cd70       mxIsSparse                 000000018023dd70 f   libmx:libmx.dll
 0001:0023cd76       mxSetFieldByNumber_700     000000018023dd76 f   libmx:libmx.dll
 0001:0023cd7c       mxGetFieldByNumber_700     000000018023dd7c f   libmx:libmx.dll
 0001:0023cd82       mxGetFieldNameByNumber     000000018023dd82 f   libmx:libmx.dll
 0001:0023cd88       mxGetNumberOfFields        000000018023dd88 f   libmx:libmx.dll
 0001:0023cd8e       mxCreateStructMatrix_700   000000018023dd8e f   libmx:libmx.dll
 0001:0023cd94       mxGetFieldNumber           000000018023dd94 f   libmx:libmx.dll
 0001:0023cd9a       mxIsNaN                    000000018023dd9a f   libmx:libmx.dll
 0001:0023cda0       mxIsEmpty                  000000018023dda0 f   libmx:libmx.dll
 0001:0023cda6       mxGetData                  000000018023dda6 f   libmx:libmx.dll
 0001:0023cdac       mxGetImagData              000000018023ddac f   libmx:libmx.dll
 0001:0023cdb2       mxArrayClassIDName         000000018023ddb2 f   libmx:libmx.dll
 0001:0023cdb8       mxCreateNumericMatrix_700  000000018023ddb8 f   libmx:libmx.dll
 0001:0023cdbe       mxCreateStructArray_700    000000018023ddbe f   libmx:libmx.dll
 0001:0023cdc4       mxCalcSingleSubscript_700  000000018023ddc4 f   libmx:libmx.dll
 0001:0023cdca       mxGetDimensions_700        000000018023ddca f   libmx:libmx.dll
 0001:0023cdd0       mxGetNumberOfDimensions_700 000000018023ddd0 f   libmx:libmx.dll
 0001:0023cdd6       mxCreateNumericArray_700   000000018023ddd6 f   libmx:libmx.dll
 0001:0023cddc       mxGetElementSize           000000018023dddc f   libmx:libmx.dll
 0001:0023cde2       mxCreateStringFromNChars_700 000000018023dde2 f   libmx:libmx.dll
 0001:0023cde8       mxGetString_700            000000018023dde8 f   libmx:libmx.dll
 0001:0023cdee       mxIsLogicalScalarTrue      000000018023ddee f   libmx:libmx.dll
 0001:0023cdf4       mxCreateLogicalScalar      000000018023ddf4 f   libmx:libmx.dll
 0001:0023cdfa       mexUnlock                  000000018023ddfa f   libmex:libmex.dll
 0001:0023ce00       mexIsLocked                000000018023de00 f   libmex:libmex.dll
 0001:0023ce06       mexWarnMsgTxt              000000018023de06 f   libmex:libmex.dll
 0001:0023ce0c       mexCallMATLAB              000000018023de0c f   libmex:libmex.dll
 0001:0023ce12       mexErrMsgTxt               000000018023de12 f   libmex:libmex.dll
 0001:0023ce18       mexSetTrapFlag             000000018023de18 f   libmex:libmex.dll
 0001:0023ce1e       mexMakeArrayPersistent     000000018023de1e f   libmex:libmex.dll
 0001:0023ce24       mexPutVariable             000000018023de24 f   libmex:libmex.dll
 0001:0023ce2a       mexGetVariable             000000018023de2a f   libmex:libmex.dll
 0001:0023ce30       mexLock                    000000018023de30 f   libmex:libmex.dll
 0001:0023ce36       mexMakeMemoryPersistent    000000018023de36 f   libmex:libmex.dll
 0001:0023ce3c       mexFunctionName            000000018023de3c f   libmex:libmex.dll
 0001:0023ce42       ssRegisterDataTypeFxpFSlopeFixExpBias 000000018023de42 f   libfixedpoint:libfixedpoint.dll
 0001:0023ce48       utVSNprintf                000000018023de48 f   libut:libut.dll
 0001:0023ce4e       utCPUtime                  000000018023de4e f   libut:libut.dll
 0001:0023ce54       utFree                     000000018023de54 f   libut:libut.dll
 0001:0023ce5a       utMalloc                   000000018023de5a f   libut:libut.dll
 0001:0023ce60       muDoubleScalarSin          000000018023de60 f   libmwmathutil:libmwmathutil.dll
 0001:0023ce66       muDoubleScalarCos          000000018023de66 f   libmwmathutil:libmwmathutil.dll
 0001:0023ce6c       muDoubleScalarAtan2        000000018023de6c f   libmwmathutil:libmwmathutil.dll
 0001:0023ce72       muDoubleScalarAcos         000000018023de72 f   libmwmathutil:libmwmathutil.dll
 0001:0023ce78       muDoubleScalarPower        000000018023de78 f   libmwmathutil:libmwmathutil.dll
 0001:0023ce7e       muDoubleScalarFloor        000000018023de7e f   libmwmathutil:libmwmathutil.dll
 0001:0023ce84       muDoubleScalarSqrt         000000018023de84 f   libmwmathutil:libmwmathutil.dll
 0001:0023ce8a       muDoubleScalarAbs          000000018023de8a f   libmwmathutil:libmwmathutil.dll
 0001:0023ce90       muDoubleScalarIsNaN        000000018023de90 f   libmwmathutil:libmwmathutil.dll
 0001:0023ce96       emlrtCheckBuiltInR2009a    000000018023de96 f   libemlrt:libemlrt.dll
 0001:0023ce9c       emlrtCheckVsBuiltInR2009a  000000018023de9c f   libemlrt:libemlrt.dll
 0001:0023cea2       emlrtCheckEnumR2009a       000000018023dea2 f   libemlrt:libemlrt.dll
 0001:0023cea8       emlrtCreateEnumR2010a      000000018023dea8 f   libemlrt:libemlrt.dll
 0001:0023ceae       emlrtGetEnumElementR2009a  000000018023deae f   libemlrt:libemlrt.dll
 0001:0023ceb4       emlrtImportVsFiArrayR2009b 000000018023deb4 f   libemlrt:libemlrt.dll
 0001:0023ceba       emlrtGetEnumUnderlyingArrayR2009a 000000018023deba f   libemlrt:libemlrt.dll
 0001:0023cec0       emlrtIsEnumR2009a          000000018023dec0 f   libemlrt:libemlrt.dll
 0001:0023cec6       idamax32                   000000018023dec6 f   libmwblascompat32:libmwblascompat32.dll
 0001:0023cecc       dswap32                    000000018023decc f   libmwblascompat32:libmwblascompat32.dll
 0001:0023ced2       dger32                     000000018023ded2 f   libmwblascompat32:libmwblascompat32.dll
 0001:0023ced8       dtrsm32                    000000018023ded8 f   libmwblascompat32:libmwblascompat32.dll
 0001:0023cede       ddot32                     000000018023dede f   libmwblascompat32:libmwblascompat32.dll
 0001:0023cee4       dnrm232                    000000018023dee4 f   libmwblascompat32:libmwblascompat32.dll
 0001:0023ceea       dgemm32                    000000018023deea f   libmwblascompat32:libmwblascompat32.dll
 0001:0023cef0       strlen                     000000018023def0 f   MSVCRT:MSVCR90.dll
 0001:0023cf00       memset                     000000018023df00 f   MSVCRT:MSVCR90.dll
 0001:0023cf06       malloc                     000000018023df06 f   MSVCRT:MSVCR90.dll
 0001:0023cf0c       __GSHandlerCheckCommon     000000018023df0c f   MSVCRT:gshandler.obj
 0001:0023cf70       __GSHandlerCheck           000000018023df70 f   MSVCRT:gshandler.obj
 0001:0023cfa0       __security_check_cookie    000000018023dfa0 f   MSVCRT:amdsecgs.obj
 0001:0023cfc0       free                       000000018023dfc0 f   MSVCRT:MSVCR90.dll
 0001:0023cfc6       strcmp                     000000018023dfc6 f   MSVCRT:MSVCR90.dll
 0001:0023cfcc       sprintf                    000000018023dfcc f   MSVCRT:MSVCR90.dll
 0001:0023cfd2       strcat                     000000018023dfd2 f   MSVCRT:MSVCR90.dll
 0001:0023cfd8       memcpy                     000000018023dfd8 f   MSVCRT:MSVCR90.dll
 0001:0023cfe0       NtCurrentTeb               000000018023dfe0 f i MSVCRT:crtdll.obj
 0001:0023d04c       _CRT_INIT                  000000018023e04c f   MSVCRT:crtdll.obj
 0001:0023d3e0       _DllMainCRTStartup         000000018023e3e0 f   MSVCRT:crtdll.obj
 0001:0023d41e       strncpy                    000000018023e41e f   MSVCRT:MSVCR90.dll
 0001:0023d424       longjmp                    000000018023e424 f   MSVCRT:MSVCR90.dll
 0001:0023d42a       strncmp                    000000018023e42a f   MSVCRT:MSVCR90.dll
 0001:0023d430       ceil                       000000018023e430 f   MSVCRT:MSVCR90.dll
 0001:0023d436       strrchr                    000000018023e436 f   MSVCRT:MSVCR90.dll
 0001:0023d43c       _setjmp                    000000018023e43c f   MSVCRT:MSVCR90.dll
 0001:0023d442       calloc                     000000018023e442 f   MSVCRT:MSVCR90.dll
 0001:0023d448       realloc                    000000018023e448 f   MSVCRT:MSVCR90.dll
 0001:0023d44e       ldexp                      000000018023e44e f   MSVCRT:MSVCR90.dll
 0001:0023d454       __report_gsfailure         000000018023e454 f   MSVCRT:gs_report.obj
 0001:0023d5a0       __clean_type_info_names    000000018023e5a0 f   MSVCRT:tncleanup.obj
 0001:0023d5ac       _onexit                    000000018023e5ac f   MSVCRT:atonexit.obj
 0001:0023d65c       atexit                     000000018023e65c f   MSVCRT:atonexit.obj
 0001:0023d674       _RTC_Initialize            000000018023e674 f   MSVCRT:_initsect_.obj
 0001:0023d6ac       _RTC_Terminate             000000018023e6ac f   MSVCRT:_initsect_.obj
 0001:0023d6e4       _encode_pointer            000000018023e6e4 f   MSVCRT:MSVCR90.dll
 0001:0023d6ea       _malloc_crt                000000018023e6ea f   MSVCRT:MSVCR90.dll
 0001:0023d6f0       _ValidateImageBase         000000018023e6f0 f   MSVCRT:pesect.obj
 0001:0023d720       _FindPESection             000000018023e720 f   MSVCRT:pesect.obj
 0001:0023d770       _IsNonwritableInCurrentImage 000000018023e770 f   MSVCRT:pesect.obj
 0001:0023d7b2       _initterm                  000000018023e7b2 f   MSVCRT:MSVCR90.dll
 0001:0023d7b8       _initterm_e                000000018023e7b8 f   MSVCRT:MSVCR90.dll
 0001:0023d7be       _encoded_null              000000018023e7be f   MSVCRT:MSVCR90.dll
 0001:0023d7c4       _decode_pointer            000000018023e7c4 f   MSVCRT:MSVCR90.dll
 0001:0023d7ca       _amsg_exit                 000000018023e7ca f   MSVCRT:MSVCR90.dll
 0001:0023d7d0       __C_specific_handler       000000018023e7d0 f   MSVCRT:MSVCR90.dll
 0001:0023d7d6       __CppXcptFilter            000000018023e7d6 f   MSVCRT:MSVCR90.dll
 0001:0023d7dc       DllMain                    000000018023e7dc f   MSVCRT:dllmain.obj
 0001:0023d800       __security_init_cookie     000000018023e800 f   MSVCRT:gs_support.obj
 0001:0023d8b4       __crt_debugger_hook        000000018023e8b4 f   MSVCRT:MSVCR90.dll
 0001:0023d8ba       __clean_type_info_names_internal 000000018023e8ba f   MSVCRT:MSVCR90.dll
 0001:0023d8c0       _unlock                    000000018023e8c0 f   MSVCRT:MSVCR90.dll
 0001:0023d8c6       __dllonexit                000000018023e8c6 f   MSVCRT:MSVCR90.dll
 0001:0023d8cc       _lock                      000000018023e8cc f   MSVCRT:MSVCR90.dll
 0001:0023d8d2       Sleep                      000000018023e8d2 f   kernel32:KERNEL32.dll
 0001:0023d8d8       TerminateProcess           000000018023e8d8 f   kernel32:KERNEL32.dll
 0001:0023d8de       GetCurrentProcess          000000018023e8de f   kernel32:KERNEL32.dll
 0001:0023d8e4       UnhandledExceptionFilter   000000018023e8e4 f   kernel32:KERNEL32.dll
 0001:0023d8ea       SetUnhandledExceptionFilter 000000018023e8ea f   kernel32:KERNEL32.dll
 0001:0023d8f0       IsDebuggerPresent          000000018023e8f0 f   kernel32:KERNEL32.dll
 0001:0023d8f6       RtlVirtualUnwind           000000018023e8f6 f   kernel32:KERNEL32.dll
 0001:0023d8fc       RtlLookupFunctionEntry     000000018023e8fc f   kernel32:KERNEL32.dll
 0001:0023d902       RtlCaptureContext          000000018023e902 f   kernel32:KERNEL32.dll
 0001:0023d908       DisableThreadLibraryCalls  000000018023e908 f   kernel32:KERNEL32.dll
 0001:0023d90e       QueryPerformanceCounter    000000018023e90e f   kernel32:KERNEL32.dll
 0001:0023d914       GetTickCount               000000018023e914 f   kernel32:KERNEL32.dll
 0001:0023d91a       GetCurrentThreadId         000000018023e91a f   kernel32:KERNEL32.dll
 0001:0023d920       GetCurrentProcessId        000000018023e920 f   kernel32:KERNEL32.dll
 0001:0023d926       GetSystemTimeAsFileTime    000000018023e926 f   kernel32:KERNEL32.dll
 0001:0023d940       _alloca_probe              000000018023e940     MSVCRT:chkstk.obj
 0001:0023d940       __chkstk                   000000018023e940 f   MSVCRT:chkstk.obj
 0002:00000000       __imp_DisableThreadLibraryCalls 000000018023f000     kernel32:KERNEL32.dll
 0002:00000008       __imp_RtlCaptureContext    000000018023f008     kernel32:KERNEL32.dll
 0002:00000010       __imp_RtlLookupFunctionEntry 000000018023f010     kernel32:KERNEL32.dll
 0002:00000018       __imp_RtlVirtualUnwind     000000018023f018     kernel32:KERNEL32.dll
 0002:00000020       __imp_IsDebuggerPresent    000000018023f020     kernel32:KERNEL32.dll
 0002:00000028       __imp_SetUnhandledExceptionFilter 000000018023f028     kernel32:KERNEL32.dll
 0002:00000030       __imp_UnhandledExceptionFilter 000000018023f030     kernel32:KERNEL32.dll
 0002:00000038       __imp_GetCurrentProcess    000000018023f038     kernel32:KERNEL32.dll
 0002:00000040       __imp_TerminateProcess     000000018023f040     kernel32:KERNEL32.dll
 0002:00000048       __imp_Sleep                000000018023f048     kernel32:KERNEL32.dll
 0002:00000050       __imp_GetTickCount         000000018023f050     kernel32:KERNEL32.dll
 0002:00000058       __imp_GetCurrentThreadId   000000018023f058     kernel32:KERNEL32.dll
 0002:00000060       __imp_GetCurrentProcessId  000000018023f060     kernel32:KERNEL32.dll
 0002:00000068       __imp_GetSystemTimeAsFileTime 000000018023f068     kernel32:KERNEL32.dll
 0002:00000070       __imp_QueryPerformanceCounter 000000018023f070     kernel32:KERNEL32.dll
 0002:00000078       \177KERNEL32_NULL_THUNK_DATA 000000018023f078     kernel32:KERNEL32.dll
 0002:00000080       __imp__onexit              000000018023f080     MSVCRT:MSVCR90.dll
 0002:00000088       __imp__lock                000000018023f088     MSVCRT:MSVCR90.dll
 0002:00000090       __imp___dllonexit          000000018023f090     MSVCRT:MSVCR90.dll
 0002:00000098       __imp__unlock              000000018023f098     MSVCRT:MSVCR90.dll
 0002:000000a0       __imp___clean_type_info_names_internal 000000018023f0a0     MSVCRT:MSVCR90.dll
 0002:000000a8       __imp___crt_debugger_hook  000000018023f0a8     MSVCRT:MSVCR90.dll
 0002:000000b0       __imp___CppXcptFilter      000000018023f0b0     MSVCRT:MSVCR90.dll
 0002:000000b8       __imp___C_specific_handler 000000018023f0b8     MSVCRT:MSVCR90.dll
 0002:000000c0       __imp__amsg_exit           000000018023f0c0     MSVCRT:MSVCR90.dll
 0002:000000c8       __imp__decode_pointer      000000018023f0c8     MSVCRT:MSVCR90.dll
 0002:000000d0       __imp__encoded_null        000000018023f0d0     MSVCRT:MSVCR90.dll
 0002:000000d8       __imp__initterm_e          000000018023f0d8     MSVCRT:MSVCR90.dll
 0002:000000e0       __imp__initterm            000000018023f0e0     MSVCRT:MSVCR90.dll
 0002:000000e8       __imp__malloc_crt          000000018023f0e8     MSVCRT:MSVCR90.dll
 0002:000000f0       __imp__encode_pointer      000000018023f0f0     MSVCRT:MSVCR90.dll
 0002:000000f8       __imp_ldexp                000000018023f0f8     MSVCRT:MSVCR90.dll
 0002:00000100       __imp_realloc              000000018023f100     MSVCRT:MSVCR90.dll
 0002:00000108       __imp_calloc               000000018023f108     MSVCRT:MSVCR90.dll
 0002:00000110       __imp__setjmp              000000018023f110     MSVCRT:MSVCR90.dll
 0002:00000118       __imp_strrchr              000000018023f118     MSVCRT:MSVCR90.dll
 0002:00000120       __imp_ceil                 000000018023f120     MSVCRT:MSVCR90.dll
 0002:00000128       __imp_strncmp              000000018023f128     MSVCRT:MSVCR90.dll
 0002:00000130       __imp_longjmp              000000018023f130     MSVCRT:MSVCR90.dll
 0002:00000138       __imp_strncpy              000000018023f138     MSVCRT:MSVCR90.dll
 0002:00000140       __imp_memcpy               000000018023f140     MSVCRT:MSVCR90.dll
 0002:00000148       __imp_strcat               000000018023f148     MSVCRT:MSVCR90.dll
 0002:00000150       __imp_sprintf              000000018023f150     MSVCRT:MSVCR90.dll
 0002:00000158       __imp_strcmp               000000018023f158     MSVCRT:MSVCR90.dll
 0002:00000160       __imp_free                 000000018023f160     MSVCRT:MSVCR90.dll
 0002:00000168       __imp_malloc               000000018023f168     MSVCRT:MSVCR90.dll
 0002:00000170       __imp_memset               000000018023f170     MSVCRT:MSVCR90.dll
 0002:00000178       __imp_strlen               000000018023f178     MSVCRT:MSVCR90.dll
 0002:00000180       \177MSVCR90_NULL_THUNK_DATA 000000018023f180     MSVCRT:MSVCR90.dll
 0002:00000188       __imp_emlrtCheckEnumR2009a 000000018023f188     libemlrt:libemlrt.dll
 0002:00000190       __imp_emlrtCheckVsBuiltInR2009a 000000018023f190     libemlrt:libemlrt.dll
 0002:00000198       __imp_emlrtCheckBuiltInR2009a 000000018023f198     libemlrt:libemlrt.dll
 0002:000001a0       __imp_emlrtGetEnumElementR2009a 000000018023f1a0     libemlrt:libemlrt.dll
 0002:000001a8       __imp_emlrtCreateEnumR2010a 000000018023f1a8     libemlrt:libemlrt.dll
 0002:000001b0       __imp_emlrtImportVsFiArrayR2009b 000000018023f1b0     libemlrt:libemlrt.dll
 0002:000001b8       __imp_emlrtGetEnumUnderlyingArrayR2009a 000000018023f1b8     libemlrt:libemlrt.dll
 0002:000001c0       __imp_emlrtIsEnumR2009a    000000018023f1c0     libemlrt:libemlrt.dll
 0002:000001c8       \177libemlrt_NULL_THUNK_DATA 000000018023f1c8     libemlrt:libemlrt.dll
 0002:000001d0       __imp_ssRegisterDataTypeFxpFSlopeFixExpBias 000000018023f1d0     libfixedpoint:libfixedpoint.dll
 0002:000001d8       \177libfixedpoint_NULL_THUNK_DATA 000000018023f1d8     libfixedpoint:libfixedpoint.dll
 0002:000001e0       __imp_mexCallMATLAB        000000018023f1e0     libmex:libmex.dll
 0002:000001e8       __imp_mexErrMsgTxt         000000018023f1e8     libmex:libmex.dll
 0002:000001f0       __imp_mexSetTrapFlag       000000018023f1f0     libmex:libmex.dll
 0002:000001f8       __imp_mexMakeArrayPersistent 000000018023f1f8     libmex:libmex.dll
 0002:00000200       __imp_mexWarnMsgTxt        000000018023f200     libmex:libmex.dll
 0002:00000208       __imp_mexGetVariable       000000018023f208     libmex:libmex.dll
 0002:00000210       __imp_mexLock              000000018023f210     libmex:libmex.dll
 0002:00000218       __imp_mexMakeMemoryPersistent 000000018023f218     libmex:libmex.dll
 0002:00000220       __imp_mexFunctionName      000000018023f220     libmex:libmex.dll
 0002:00000228       __imp_mexPutVariable       000000018023f228     libmex:libmex.dll
 0002:00000230       __imp_mexIsLocked          000000018023f230     libmex:libmex.dll
 0002:00000238       __imp_mexUnlock            000000018023f238     libmex:libmex.dll
 0002:00000240       \177libmex_NULL_THUNK_DATA 000000018023f240     libmex:libmex.dll
 0002:00000248       __imp_idamax32             000000018023f248     libmwblascompat32:libmwblascompat32.dll
 0002:00000250       __imp_dswap32              000000018023f250     libmwblascompat32:libmwblascompat32.dll
 0002:00000258       __imp_dger32               000000018023f258     libmwblascompat32:libmwblascompat32.dll
 0002:00000260       __imp_ddot32               000000018023f260     libmwblascompat32:libmwblascompat32.dll
 0002:00000268       __imp_dgemm32              000000018023f268     libmwblascompat32:libmwblascompat32.dll
 0002:00000270       __imp_dnrm232              000000018023f270     libmwblascompat32:libmwblascompat32.dll
 0002:00000278       __imp_dtrsm32              000000018023f278     libmwblascompat32:libmwblascompat32.dll
 0002:00000280       \177libmwblascompat32_NULL_THUNK_DATA 000000018023f280     libmwblascompat32:libmwblascompat32.dll
 0002:00000288       __imp_muDoubleScalarPower  000000018023f288     libmwmathutil:libmwmathutil.dll
 0002:00000290       __imp_muDoubleScalarFloor  000000018023f290     libmwmathutil:libmwmathutil.dll
 0002:00000298       __imp_muDoubleScalarSqrt   000000018023f298     libmwmathutil:libmwmathutil.dll
 0002:000002a0       __imp_muDoubleScalarAbs    000000018023f2a0     libmwmathutil:libmwmathutil.dll
 0002:000002a8       __imp_muDoubleScalarIsNaN  000000018023f2a8     libmwmathutil:libmwmathutil.dll
 0002:000002b0       __imp_muDoubleScalarAtan2  000000018023f2b0     libmwmathutil:libmwmathutil.dll
 0002:000002b8       __imp_muDoubleScalarCos    000000018023f2b8     libmwmathutil:libmwmathutil.dll
 0002:000002c0       __imp_muDoubleScalarSin    000000018023f2c0     libmwmathutil:libmwmathutil.dll
 0002:000002c8       __imp_muDoubleScalarAcos   000000018023f2c8     libmwmathutil:libmwmathutil.dll
 0002:000002d0       \177libmwmathutil_NULL_THUNK_DATA 000000018023f2d0     libmwmathutil:libmwmathutil.dll
 0002:000002d8       __imp_mxGetPr              000000018023f2d8     libmx:libmx.dll
 0002:000002e0       __imp_mxGetClassID         000000018023f2e0     libmx:libmx.dll
 0002:000002e8       __imp_mxIsNumeric          000000018023f2e8     libmx:libmx.dll
 0002:000002f0       __imp_mxIsComplex          000000018023f2f0     libmx:libmx.dll
 0002:000002f8       __imp_mxGetN               000000018023f2f8     libmx:libmx.dll
 0002:00000300       __imp_mxCreateLogicalScalar 000000018023f300     libmx:libmx.dll
 0002:00000308       __imp_mxIsLogicalScalarTrue 000000018023f308     libmx:libmx.dll
 0002:00000310       __imp_mxGetString_700      000000018023f310     libmx:libmx.dll
 0002:00000318       __imp_mxCreateStringFromNChars_700 000000018023f318     libmx:libmx.dll
 0002:00000320       __imp_mxGetElementSize     000000018023f320     libmx:libmx.dll
 0002:00000328       __imp_mxCreateNumericArray_700 000000018023f328     libmx:libmx.dll
 0002:00000330       __imp_mxGetNumberOfDimensions_700 000000018023f330     libmx:libmx.dll
 0002:00000338       __imp_mxGetDimensions_700  000000018023f338     libmx:libmx.dll
 0002:00000340       __imp_mxCalcSingleSubscript_700 000000018023f340     libmx:libmx.dll
 0002:00000348       __imp_mxCreateStructArray_700 000000018023f348     libmx:libmx.dll
 0002:00000350       __imp_mxCreateNumericMatrix_700 000000018023f350     libmx:libmx.dll
 0002:00000358       __imp_mxArrayClassIDName   000000018023f358     libmx:libmx.dll
 0002:00000360       __imp_mxGetImagData        000000018023f360     libmx:libmx.dll
 0002:00000368       __imp_mxGetData            000000018023f368     libmx:libmx.dll
 0002:00000370       __imp_mxIsEmpty            000000018023f370     libmx:libmx.dll
 0002:00000378       __imp_mxIsNaN              000000018023f378     libmx:libmx.dll
 0002:00000380       __imp_mxGetFieldNumber     000000018023f380     libmx:libmx.dll
 0002:00000388       __imp_mxCreateStructMatrix_700 000000018023f388     libmx:libmx.dll
 0002:00000390       __imp_mxGetNumberOfFields  000000018023f390     libmx:libmx.dll
 0002:00000398       __imp_mxGetFieldNameByNumber 000000018023f398     libmx:libmx.dll
 0002:000003a0       __imp_mxGetFieldByNumber_700 000000018023f3a0     libmx:libmx.dll
 0002:000003a8       __imp_mxSetFieldByNumber_700 000000018023f3a8     libmx:libmx.dll
 0002:000003b0       __imp_mxIsSparse           000000018023f3b0     libmx:libmx.dll
 0002:000003b8       __imp_mxGetLogicals        000000018023f3b8     libmx:libmx.dll
 0002:000003c0       __imp_mxIsClass            000000018023f3c0     libmx:libmx.dll
 0002:000003c8       __imp_mxIsStruct           000000018023f3c8     libmx:libmx.dll
 0002:000003d0       __imp_mxGetNumberOfElements 000000018023f3d0     libmx:libmx.dll
 0002:000003d8       __imp_mxGetField_700       000000018023f3d8     libmx:libmx.dll
 0002:000003e0       __imp_mxAddField           000000018023f3e0     libmx:libmx.dll
 0002:000003e8       __imp_mxSetField_700       000000018023f3e8     libmx:libmx.dll
 0002:000003f0       __imp_mxGetClassName       000000018023f3f0     libmx:libmx.dll
 0002:000003f8       __imp_mxGetCell_700        000000018023f3f8     libmx:libmx.dll
 0002:00000400       __imp_mxSetCell_700        000000018023f400     libmx:libmx.dll
 0002:00000408       __imp_mxCreateCellMatrix_700 000000018023f408     libmx:libmx.dll
 0002:00000410       __imp_mxArrayToString      000000018023f410     libmx:libmx.dll
 0002:00000418       __imp_mxFree               000000018023f418     libmx:libmx.dll
 0002:00000420       __imp_mxCreateDoubleMatrix_700 000000018023f420     libmx:libmx.dll
 0002:00000428       __imp_mxIsLogical          000000018023f428     libmx:libmx.dll
 0002:00000430       __imp_mxGetScalar          000000018023f430     libmx:libmx.dll
 0002:00000438       __imp_mxCalloc             000000018023f438     libmx:libmx.dll
 0002:00000440       __imp_mxIsChar             000000018023f440     libmx:libmx.dll
 0002:00000448       __imp_mxGetString_730      000000018023f448     libmx:libmx.dll
 0002:00000450       __imp_mxGetNaN             000000018023f450     libmx:libmx.dll
 0002:00000458       __imp_mxDuplicateArray     000000018023f458     libmx:libmx.dll
 0002:00000460       __imp_mxCreateString       000000018023f460     libmx:libmx.dll
 0002:00000468       __imp_mxDestroyArray       000000018023f468     libmx:libmx.dll
 0002:00000470       __imp_mxCreateStructMatrix_730 000000018023f470     libmx:libmx.dll
 0002:00000478       __imp_mxCreateDoubleMatrix_730 000000018023f478     libmx:libmx.dll
 0002:00000480       __imp_mxSetField_730       000000018023f480     libmx:libmx.dll
 0002:00000488       __imp_mxCreateDoubleScalar 000000018023f488     libmx:libmx.dll
 0002:00000490       __imp_mxGetM               000000018023f490     libmx:libmx.dll
 0002:00000498       \177libmx_NULL_THUNK_DATA  000000018023f498     libmx:libmx.dll
 0002:000004a0       __imp_utFree               000000018023f4a0     libut:libut.dll
 0002:000004a8       __imp_utCPUtime            000000018023f4a8     libut:libut.dll
 0002:000004b0       __imp_utVSNprintf          000000018023f4b0     libut:libut.dll
 0002:000004b8       __imp_utMalloc             000000018023f4b8     libut:libut.dll
 0002:000004c0       \177libut_NULL_THUNK_DATA  000000018023f4c0     libut:libut.dll
 0002:000004c8       __xc_a                     000000018023f4c8     MSVCRT:cinitexe.obj
 0002:000004d0       __xc_z                     000000018023f4d0     MSVCRT:cinitexe.obj
 0002:000004d8       __xi_a                     000000018023f4d8     MSVCRT:cinitexe.obj
 0002:000004e8       __xi_z                     000000018023f4e8     MSVCRT:cinitexe.obj
 0002:000004f0       __real@41e16779c1a00000    000000018023f4f0     c1_EurlerDynJointVerify.obj
 0002:000004f8       __real@41e592245e000000    000000018023f4f8     c1_EurlerDynJointVerify.obj
 0002:00000500       __real@41ef5366e9800000    000000018023f500     c1_EurlerDynJointVerify.obj
 0002:00000508       __real@41e8535f4d400000    000000018023f508     c1_EurlerDynJointVerify.obj
 0002:00000510       __real@4022000000000000    000000018023f510     c1_EurlerDynJointVerify.obj
 0002:00000518       __real@4018000000000000    000000018023f518     c1_EurlerDynJointVerify.obj
 0002:00000520       __real@4024000000000000    000000018023f520     c1_EurlerDynJointVerify.obj
 0002:00000528       __real@3ff0000000000000    000000018023f528     c1_EurlerDynJointVerify.obj
 0002:00000530       __real@4008000000000000    000000018023f530     c1_EurlerDynJointVerify.obj
 0002:00000538       __real@41ed028e58200000    000000018023f538     c1_EurlerDynJointVerify.obj
 0002:00000540       __real@41e8888b3a000000    000000018023f540     c1_EurlerDynJointVerify.obj
 0002:00000548       __real@41efb1be6da00000    000000018023f548     c1_EurlerDynJointVerify.obj
 0002:00000550       __real@41eb6f1987200000    000000018023f550     c1_EurlerDynJointVerify.obj
 0002:00000558       __real@0000000000000000    000000018023f558     c1_EurlerDynJointVerify.obj
 0002:00000560       __real@8000000000000000    000000018023f560     c1_EurlerDynJointVerify.obj
 0002:00000568       __real@4000000000000000    000000018023f568     c1_EurlerDynJointVerify.obj
 0002:00000570       __real@c000000000000000    000000018023f570     c1_EurlerDynJointVerify.obj
 0002:00000578       __real@bff0000000000000    000000018023f578     c1_EurlerDynJointVerify.obj
 0002:00000580       __real@41d37cb884000000    000000018023f580     c2_EurlerDynJointVerify.obj
 0002:00000588       __real@41e4cb5653600000    000000018023f588     c2_EurlerDynJointVerify.obj
 0002:00000590       __real@41da841562400000    000000018023f590     c2_EurlerDynJointVerify.obj
 0002:00000598       __real@41790e4a20000000    000000018023f598     c2_EurlerDynJointVerify.obj
 0002:000005a0       __real@41d2cbb35b400000    000000018023f5a0     c2_EurlerDynJointVerify.obj
 0002:000005a8       __real@41e52354b4200000    000000018023f5a8     c2_EurlerDynJointVerify.obj
 0002:000005b0       __real@41ed0e34aa000000    000000018023f5b0     c2_EurlerDynJointVerify.obj
 0002:000005b8       __real@41ead56a87a00000    000000018023f5b8     c2_EurlerDynJointVerify.obj
 0002:000005c0       __real@4061800000000000    000000018023f5c0     c2_EurlerDynJointVerify.obj
 0002:000005c8       __real@c061800000000000    000000018023f5c8     c2_EurlerDynJointVerify.obj
 0002:000005d0       __real@4066800000000000    000000018023f5d0     c2_EurlerDynJointVerify.obj
 0002:000005d8       __real@c066800000000000    000000018023f5d8     c2_EurlerDynJointVerify.obj
 0002:000005e0       __real@4056800000000000    000000018023f5e0     c2_EurlerDynJointVerify.obj
 0002:000005e8       __real@c06a400000000000    000000018023f5e8     c2_EurlerDynJointVerify.obj
 0002:000005f0       __real@404e000000000000    000000018023f5f0     c2_EurlerDynJointVerify.obj
 0002:000005f8       __real@c062c00000000000    000000018023f5f8     c2_EurlerDynJointVerify.obj
 0002:00000600       __real@4064a00000000000    000000018023f600     c2_EurlerDynJointVerify.obj
 0002:00000608       __real@c064a00000000000    000000018023f608     c2_EurlerDynJointVerify.obj
 0002:00000610       __real@400921fb54442d18    000000018023f610     c2_EurlerDynJointVerify.obj
 0002:00000618       __real@c014000000000000    000000018023f618     c2_EurlerDynJointVerify.obj
 0002:00000620       __real@4010000000000000    000000018023f620     c2_EurlerDynJointVerify.obj
 0002:00000628       __real@41ebb1bc7ba00000    000000018023f628     c3_EurlerDynJointVerify.obj
 0002:00000630       __real@41e26eb1f8a00000    000000018023f630     c3_EurlerDynJointVerify.obj
 0002:00000638       __real@41db608494400000    000000018023f638     c3_EurlerDynJointVerify.obj
 0002:00000640       __real@41e83163df000000    000000018023f640     c3_EurlerDynJointVerify.obj
 0002:00000648       __real@4042000000000000    000000018023f648     c3_EurlerDynJointVerify.obj
 0002:00000650       __real@404b000000000000    000000018023f650     c3_EurlerDynJointVerify.obj
 0002:00000658       __real@401c000000000000    000000018023f658     c3_EurlerDynJointVerify.obj
 0002:00000660       __real@4032000000000000    000000018023f660     c3_EurlerDynJointVerify.obj
 0002:00000668       __real@41e24fb08ec00000    000000018023f668     c3_EurlerDynJointVerify.obj
 0002:00000670       __real@41d05f269c400000    000000018023f670     c3_EurlerDynJointVerify.obj
 0002:00000678       __real@41e5cf2936c00000    000000018023f678     c3_EurlerDynJointVerify.obj
 0002:00000680       __real@419b20157c000000    000000018023f680     c3_EurlerDynJointVerify.obj
 0002:00000688       __real@4020000000000000    000000018023f688     c3_EurlerDynJointVerify.obj
 0002:00000690       __real@3cb0000000000000    000000018023f690     c3_EurlerDynJointVerify.obj
 0002:00000698       __real@419f79a7d4000000    000000018023f698     c6_EurlerDynJointVerify.obj
 0002:000006a0       __real@41e51e8293c00000    000000018023f6a0     c6_EurlerDynJointVerify.obj
 0002:000006a8       __real@41cd6f9948000000    000000018023f6a8     c6_EurlerDynJointVerify.obj
 0002:000006b0       __real@41e6b81ebbc00000    000000018023f6b0     c6_EurlerDynJointVerify.obj
 0002:000006b8       __real@41ecfbce67400000    000000018023f6b8     c6_EurlerDynJointVerify.obj
 0002:000006c0       __real@41cdeda726000000    000000018023f6c0     c6_EurlerDynJointVerify.obj
 0002:000006c8       __real@41e1941026a00000    000000018023f6c8     c6_EurlerDynJointVerify.obj
 0002:000006d0       __real@41eb2525f4a00000    000000018023f6d0     c6_EurlerDynJointVerify.obj
 0002:000006d8       __real@41d604e3f6000000    000000018023f6d8     c7_EurlerDynJointVerify.obj
 0002:000006e0       __real@41efc7a8a4400000    000000018023f6e0     c7_EurlerDynJointVerify.obj
 0002:000006e8       __real@41ecf543cf200000    000000018023f6e8     c7_EurlerDynJointVerify.obj
 0002:000006f0       __real@41d4639f7c000000    000000018023f6f0     c7_EurlerDynJointVerify.obj
 0002:000006f8       __real@418fabaa10000000    000000018023f6f8     c7_EurlerDynJointVerify.obj
 0002:00000700       __real@41d4ef6042000000    000000018023f700     c7_EurlerDynJointVerify.obj
 0002:00000708       __real@41d9b32313c00000    000000018023f708     c7_EurlerDynJointVerify.obj
 0002:00000710       __real@41ecb8dc91a00000    000000018023f710     c7_EurlerDynJointVerify.obj
 0002:00000718       __real@41e2b2be7f400000    000000018023f718     c20_EurlerDynJointVerify.obj
 0002:00000720       __real@41d7b42ec5400000    000000018023f720     c20_EurlerDynJointVerify.obj
 0002:00000728       __real@41eef4a12aa00000    000000018023f728     c20_EurlerDynJointVerify.obj
 0002:00000730       __real@41d8e47c3f800000    000000018023f730     c20_EurlerDynJointVerify.obj
 0002:00000738       __real@41e742d6cce00000    000000018023f738     c20_EurlerDynJointVerify.obj
 0002:00000740       __real@41e5de4b74000000    000000018023f740     c20_EurlerDynJointVerify.obj
 0002:00000748       __real@41d3239cbc400000    000000018023f748     c20_EurlerDynJointVerify.obj
 0002:00000750       __real@41e9b3ef37600000    000000018023f750     c20_EurlerDynJointVerify.obj
 0002:00000760       DYNAMIC_DIMENSION_DEF      000000018023f760     EurlerDynJointVerify_sfun_registry.obj
 0002:00000780       _ssBadLevel2InputAccessMsg 000000018023f780     EurlerDynJointVerify_sfun_registry.obj
 0002:00000910       _ssBadLevel2DirectFeedMsg  000000018023f910     EurlerDynJointVerify_sfun_registry.obj
 0002:00000a50       _ssBadLevel2DirectFeedSolutionMsg 000000018023fa50     EurlerDynJointVerify_sfun_registry.obj
 0002:00000ac0       _ssBadLevel2ZeroDirectFeedMsg 000000018023fac0     EurlerDynJointVerify_sfun_registry.obj
 0002:00000c00       _ssBadLevel2ZeroDirectFeedMsg2 000000018023fc00     EurlerDynJointVerify_sfun_registry.obj
 0002:00000ce8       __real@41602cbca0000000    000000018023fce8     EurlerDynJointVerify_sfun_registry.obj
 0002:00000cf0       __real@41acf0158e000000    000000018023fcf0     EurlerDynJointVerify_sfun.obj
 0002:00000cf8       __real@41ea45aca2a00000    000000018023fcf8     EurlerDynJointVerify_sfun.obj
 0002:00000d00       __real@41d9eb1717800000    000000018023fd00     EurlerDynJointVerify_sfun.obj
 0002:00000d08       __real@41eaa11e8ac00000    000000018023fd08     EurlerDynJointVerify_sfun.obj
 0002:00000d10       __real@41dc1302e4800000    000000018023fd10     EurlerDynJointVerify_sfun.obj
 0002:00000d18       __real@41c3a4f933800000    000000018023fd18     EurlerDynJointVerify_sfun.obj
 0002:00000d20       __real@41dbc271a2800000    000000018023fd20     EurlerDynJointVerify_sfun.obj
 0002:00000d28       __real@41e7aa6d3b400000    000000018023fd28     EurlerDynJointVerify_sfun.obj
 0002:00000d30       __real@41e3e112d5a00000    000000018023fd30     EurlerDynJointVerify_sfun.obj
 0002:00000d38       __real@41c0a144e7000000    000000018023fd38     EurlerDynJointVerify_sfun.obj
 0002:00000d40       __real@41ef65097ee00000    000000018023fd40     EurlerDynJointVerify_sfun.obj
 0002:00000d48       __real@41c55daeb0000000    000000018023fd48     EurlerDynJointVerify_sfun.obj
 0002:00000d50       __real@41ee9e21a7400000    000000018023fd50     EurlerDynJointVerify_sfun.obj
 0002:00000d58       __real@41bb62321d000000    000000018023fd58     EurlerDynJointVerify_sfun.obj
 0002:00000d60       __real@41e4e0faf9200000    000000018023fd60     EurlerDynJointVerify_sfun.obj
 0002:00000d68       __real@41e1bb95e6800000    000000018023fd68     EurlerDynJointVerify_sfun.obj
 0002:00000d70       ??_C@_00CNPNBAHC@?$AA@     000000018023fd70     sfc_mex:sfc_mex.obj
 0002:00000d74       ??_C@_05DGLCPCBN@?$CFsx?$CFd?$AA@ 000000018023fd74     sfc_mex:sfc_mex.obj
 0002:00000d7c       ??_C@_02DPKJAMEF@?$CFd?$AA@ 000000018023fd7c     sfc_mex:sfc_mex.obj
 0002:00000d80       ??_C@_0CC@DJOAOECF@Unknown?5MATLAB?5error?5encountered@ 000000018023fd80     sfc_mex:sfc_mex.obj
 0002:00000da8       ??_C@_0CJ@DAIIKGLI@?$CFs?5in?5?$CFs?5should?5never?5be?5called?5@ 000000018023fda8     sfc_mex:sfc_mex.obj
 0002:00000dd8       ??_C@_0CE@ICKLNELB@Error?5calling?5MATLAB?5function?5?8?$CF@ 000000018023fdd8     sfc_mex:sfc_mex.obj
 0002:00000dfc       ??_C@_02DKCKIIND@?$CFs?$AA@ 000000018023fdfc     sfc_mex:sfc_mex.obj
 0002:00000e00       ??_C@_07PHDIELCI@lasterr?$AA@ 000000018023fe00     sfc_mex:sfc_mex.obj
 0002:00000e08       ??_C@_09HKCBALOK@embedded?4?$AA@ 000000018023fe08     sfc_mex:sfc_mex.obj
 0002:00000e14       ??_C@_06BNJCAIGJ@double?$AA@ 000000018023fe14     sfc_mex:sfc_mex.obj
 0002:00000e1c       ??_C@_06EJFMBPJF@single?$AA@ 000000018023fe1c     sfc_mex:sfc_mex.obj
 0002:00000e24       ??_C@_04KBDJOJNB@?$FL?$CFd?$FN?$AA@ 000000018023fe24     sfc_mex:sfc_mex.obj
 0002:00000e30       ??_C@_0CD@NFPEPNBJ@Cannot?5add?5field?5?$CFs?5to?5struct?5?$CFs@ 000000018023fe30     sfc_mex:sfc_mex.obj
 0002:00000e58       ??_C@_0CF@PLDCCEBG@Cannot?5get?5field?5?$CFs?5from?5struct?5@ 000000018023fe58     sfc_mex:sfc_mex.obj
 0002:00000e80       ??_C@_0CO@MFJLJCHI@Struct?5array?5?8?$CFs?8?5does?5not?5have?5@ 000000018023fe80     sfc_mex:sfc_mex.obj
 0002:00000eb0       ??_C@_0DF@IPGEGIDM@Object?5?8?$CFs?8?5is?5not?5a?5struct?3?5can@ 000000018023feb0     sfc_mex:sfc_mex.obj
 0002:00000ee8       ??_C@_0BL@KEKJNNL@MATLAB?5expression?5?8?$CFs?8?5?$CFs?4?$AA@ 000000018023fee8     sfc_mex:sfc_mex.obj
 0002:00000f10       ??_C@_0GH@JOEOEBFA@Size?5mismatch?5for?5?8?$CFs?8?5on?5dimens@ 000000018023ff10     sfc_mex:sfc_mex.obj
 0002:00000f78       ??_C@_04IAGNFIBA@size?$AA@ 000000018023ff78     sfc_mex:sfc_mex.obj
 0002:00000f80       ??_C@_0DN@DNLDLJNN@is?5not?5of?5the?5correct?5class?3?5exp@ 000000018023ff80     sfc_mex:sfc_mex.obj
 0002:00000fc0       ??_C@_06POLMGHPK@isreal?$AA@ 000000018023ffc0     sfc_mex:sfc_mex.obj
 0002:00000fc8       ??_C@_0CC@EDDDCJDC@is?5not?5of?5the?5correct?5complexnes@ 000000018023ffc8     sfc_mex:sfc_mex.obj
 0002:00000ff0       ??_C@_0CB@POBCEEOP@is?5not?5of?5the?5correct?5sparseness@ 000000018023fff0     sfc_mex:sfc_mex.obj
 0002:00001018       ??_C@_0CC@JOFDGEBC@is?5not?5of?5the?5correct?5numerictyp@ 0000000180240018     sfc_mex:sfc_mex.obj
 0002:00001040       ??_C@_07MIMONDDE@isequal?$AA@ 0000000180240040     sfc_mex:sfc_mex.obj
 0002:00001048       ??_C@_0M@NAPEIPJI@numerictype?$AA@ 0000000180240048     sfc_mex:sfc_mex.obj
 0002:00001058       ??_C@_0BN@IMIABIKK@is?5not?5of?5the?5correct?5fimath?$AA@ 0000000180240058     sfc_mex:sfc_mex.obj
 0002:00001078       ??_C@_06LJOKAFHF@fimath?$AA@ 0000000180240078     sfc_mex:sfc_mex.obj
 0002:00001080       ??_C@_0EP@IAFBLFNF@Stateflow?5Internal?5Error?3?5?6Error@ 0000000180240080     sfc_mex:sfc_mex.obj
 0002:000010d0       ??_C@_02GFKODMMF@sf?$AA@   00000001802400d0     sfc_mex:sfc_mex.obj
 0002:000010d8       ??_C@_08MJJBNONC@mxDecode?$AA@ 00000001802400d8     sfc_mex:sfc_mex.obj
 0002:000010f0       ??_C@_0GH@OOBFJADG@Simulation?5stopped?5due?5to?5out?5of@ 00000001802400f0     sfc_mex:sfc_mex.obj
 0002:00001160       ??_C@_0HC@JODLBNFO@Simulation?5stopped?5due?5to?5size?5m@ 0000000180240160     sfc_mex:sfc_mex.obj
 0002:000011e0       ??_C@_0HC@PPOAOPGB@Simulation?5stopped?5due?5to?5size?5m@ 00000001802401e0     sfc_mex:sfc_mex.obj
 0002:00001260       ??_C@_0JM@OFMOAAGL@Simulation?5stopped?5due?5to?5size?5m@ 0000000180240260     sfc_mex:sfc_mex.obj
 0002:00001300       ??_C@_0KC@ODCGHMPH@Simulation?5stopped?5due?5to?5size?5o@ 0000000180240300     sfc_mex:sfc_mex.obj
 0002:000013b0       ??_C@_0GO@BKNPNGBP@Subscripted?5assignment?5dimension@ 00000001802403b0     sfc_mex:sfc_mex.obj
 0002:00001420       ??_C@_0BAO@DDKKHLGF@Matrix?$CImatrix?$CJ?5subscript?5turned?5@ 0000000180240420     sfc_mex:sfc_mex.obj
 0002:00001530       ??_C@_0BAO@MGKOAKHL@Vector?$CIvector?$CJ?5subscript?5turned?5@ 0000000180240530     sfc_mex:sfc_mex.obj
 0002:00001640       ??_C@_0FC@HJKNPCCF@Negative?5value?5detected?4?5Enable?5@ 0000000180240640     sfc_mex:sfc_mex.obj
 0002:00001698       ??_C@_0DK@JJKHINMK@Overflow?5detected?4?5Enable?5debugg@ 0000000180240698     sfc_mex:sfc_mex.obj
 0002:000016e0       ??_C@_0EA@POIJMBCP@Divide?5by?5zero?5detected?4?5Enable?5@ 00000001802406e0     sfc_mex:sfc_mex.obj
 0002:00001720       ??_C@_0EK@CFEMECLL@Nonconforming?5enum?5value?5detecte@ 0000000180240720     sfc_mex:sfc_mex.obj
 0002:00001770       ??_C@_0EF@IGDCPBDD@Size?5mismatch?5for?5MATLAB?5express@ 0000000180240770     sfc_mex:sfc_mex.obj
 0002:000017b8       ??_C@_07JFPGMOK@fprintf?$AA@ 00000001802407b8     sfc_mex:sfc_mex.obj
 0002:000017c0       ??_C@_0FE@EHCFPDEG@In?5MATLAB?5expression?5?8?$CFs?8?0?5field@ 00000001802407c0     sfc_mex:sfc_mex.obj
 0002:00001818       ??_C@_0DE@IJIFCHLH@In?5MATLAB?5expression?5?8?$CFs?8?0?5field@ 0000000180240818     sfc_mex:sfc_mex.obj
 0002:00001850       ??_C@_0FK@JKPMKGDE@MATLAB?5expression?5?8?$CFs?8?5does?5not?5@ 0000000180240850     sfc_mex:sfc_mex.obj
 0002:000018ac       ??_C@_06PBJBIPGK@struct?$AA@ 00000001802408ac     sfc_mex:sfc_mex.obj
 0002:000018b8       ??_C@_0O@NFNPPCGN@isfimathlocal?$AA@ 00000001802408b8     sfc_mex:sfc_mex.obj
 0002:000018c8       ??_C@_0M@MLCGNPLD@embedded?4fi?$AA@ 00000001802408c8     sfc_mex:sfc_mex.obj
 0002:000018d8       ??_C@_0M@EGMNDJHO@?$CFs?5?$DN?5?$CF?415g?6?$AA@ 00000001802408d8     sfc_mex:sfc_mex.obj
 0002:000018e4       ??_C@_03OFAPEBGM@?$CFs?6?$AA@ 00000001802408e4     sfc_mex:sfc_mex.obj
 0002:000018e8       ??_C@_0CL@LLBJDFID@failed?5sf_assertion?5in?5?$CFs?5at?5lin@ 00000001802408e8     sfc_mex:sfc_mex.obj
 0002:00001920       ??_C@_0EJ@MIHEOKKA@?8?$CFs?8?3?5Array?5with?5number?5of?5dimen@ 0000000180240920     sfc_mex:sfc_mex.obj
 0002:00001970       ??_C@_09JCLLFAHO@sfc_mex?4c?$AA@ 0000000180240970     sfc_mex:sfc_mex.obj
 0002:00001980       ??_C@_0O@FCFMOEOA@aNumDims?5?$DO?$DN?50?$AA@ 0000000180240980     sfc_mex:sfc_mex.obj
 0002:00001990       ??_C@_0CK@KDIMGCCA@?8?$CFs?8?3?5Sparse?5matrices?5are?5not?5su@ 0000000180240990     sfc_mex:sfc_mex.obj
 0002:000019c0       ??_C@_0CI@KBLJAMNB@MATLAB?5expression?5?8?$CFs?8?5is?5not?5nu@ 00000001802409c0     sfc_mex:sfc_mex.obj
 0002:000019e8       ??_C@_0P@LCMMCGDM@aSrcMx?5?$CB?$DN?5NULL?$AA@ 00000001802409e8     sfc_mex:sfc_mex.obj
 0002:00001a00       ??_C@_0EI@HJNNACGI@Eval?5of?5MATLAB?5expression?5?8?$CFs?8?5i@ 0000000180240a00     sfc_mex:sfc_mex.obj
 0002:00001a48       ??_C@_0DM@BJICAGGK@Stateflow?5currently?5only?5support@ 0000000180240a48     sfc_mex:sfc_mex.obj
 0002:00001a84       ??_C@_05LAPONLG@false?$AA@ 0000000180240a84     sfc_mex:sfc_mex.obj
 0002:00001a8c       ??_C@_03LHCJEHON@nan?$AA@  0000000180240a8c     sfc_mex:sfc_mex.obj
 0002:00001a90       ??_C@_04BHIIPFEC@base?$AA@ 0000000180240a90     sfc_mex:sfc_mex.obj
 0002:00001a98       ??_C@_06PLMANNP@evalin?$AA@ 0000000180240a98     sfc_mex:sfc_mex.obj
 0002:00001aa0       ??_C@_06GFECGKEO@caller?$AA@ 0000000180240aa0     sfc_mex:sfc_mex.obj
 0002:00001aa8       ??_C@_0CM@LOMLNLMC@Invalid?5workspace?5type?5for?5sf_ma@ 0000000180240aa8     sfc_mex:sfc_mex.obj
 0002:00001ad4       ??_C@_01GBGANLPD@0?$AA@    0000000180240ad4     sfc_mex:sfc_mex.obj
 0002:00001ad8       ??_C@_06FJKEMHGD@global?$AA@ 0000000180240ad8     sfc_mex:sfc_mex.obj
 0002:00001ae0       ??_C@_08KHPDDPHG@getfield?$AA@ 0000000180240ae0     sfc_mex:sfc_mex.obj
 0002:00001aec       ??_C@_05LPIJGKJ@Value?$AA@ 0000000180240aec     sfc_mex:sfc_mex.obj
 0002:00001af8       ??_C@_0BH@HNIMIIFD@Unknown?5workspace?5type?$AA@ 0000000180240af8     sfc_mex:sfc_mex.obj
 0002:00001b10       ??_C@_0DA@IPMLFPJI@MATLAB?5expression?5?8?$CFs?8?5could?5not@ 0000000180240b10     sfc_mex:sfc_mex.obj
 0002:00001b40       ??_C@_0EB@HHPLBHBA@Parameter?5value?5out?5of?5bounds?4?5?$CF@ 0000000180240b40     sfc_mex:sfc_mex.obj
 0002:00001b88       ??_C@_0CB@DBMOOMDL@Unsupported?5class?5type?5?$CFs?5for?5?$CFs@ 0000000180240b88     sfc_mex:sfc_mex.obj
 0002:00001bb0       ??_C@_0BI@OPNKAIOC@mxIsComplex?$CImxArrayPtr?$CJ?$AA@ 0000000180240bb0     sfc_mex:sfc_mex.obj
 0002:00001bd0       ??_C@_0GA@OFLPCMBM@Stateflow?5Runtime?5Warning?3?5Loss?5@ 0000000180240bd0     sfc_mex:sfc_mex.obj
 0002:00001c30       __real@3810000000000000    0000000180240c30     sfc_mex:sfc_mex.obj
 0002:00001c38       __real@47efffffe0000000    0000000180240c38     sfc_mex:sfc_mex.obj
 0002:00001c40       __real@c060000000000000    0000000180240c40     sfc_mex:sfc_mex.obj
 0002:00001c48       __real@405fc00000000000    0000000180240c48     sfc_mex:sfc_mex.obj
 0002:00001c50       __real@406fe00000000000    0000000180240c50     sfc_mex:sfc_mex.obj
 0002:00001c58       __real@c0e0000000000000    0000000180240c58     sfc_mex:sfc_mex.obj
 0002:00001c60       __real@40dfffc000000000    0000000180240c60     sfc_mex:sfc_mex.obj
 0002:00001c68       __real@40efffe000000000    0000000180240c68     sfc_mex:sfc_mex.obj
 0002:00001c70       __real@c1e0000000000000    0000000180240c70     sfc_mex:sfc_mex.obj
 0002:00001c78       __real@41dfffffffc00000    0000000180240c78     sfc_mex:sfc_mex.obj
 0002:00001c80       __real@41efffffffe00000    0000000180240c80     sfc_mex:sfc_mex.obj
 0002:00001c88       ??_C@_0DE@FBNIEGAO@Class?5of?5MATLAB?5expression?5?8?$CFs?8?5@ 0000000180240c88     sfc_mex:sfc_mex.obj
 0002:00001cbc       ??_C@_03BBKEAIF@?$DP?$DP?$DP?$AA@ 0000000180240cbc     sfc_mex:sfc_mex.obj
 0002:00001cc0       ??_C@_0DC@ECODOMID@Assignment?5of?5complex?5data?5?$CFs?5to@ 0000000180240cc0     sfc_mex:sfc_mex.obj
 0002:00001cf8       ??_C@_0CF@NHFFCIEB@MATLAB?5function?5?8?$CFs?8?5returned?5NU@ 0000000180240cf8     sfc_mex:sfc_mex.obj
 0002:00001d20       ??_C@_0GP@JPKMBIEI@Array?5bounds?5error?5in?5MATLAB?5exp@ 0000000180240d20     sfc_mex:sfc_mex.obj
 0002:00001d90       ??_C@_0P@FLJFOPHI@pIndex?$FLi?$FN?5?$DO?$DN?50?$AA@ 0000000180240d90     sfc_mex:sfc_mex.obj
 0002:00001da0       ??_C@_0DI@IGEABFHB@MATLAB?5expression?5?8?$CFs?8?5has?5?$CFd?5di@ 0000000180240da0     sfc_mex:sfc_mex.obj
 0002:00001dd8       ??_C@_0L@EFLJKPA@mxArrayPtr?$AA@ 0000000180240dd8     sfc_mex:sfc_mex.obj
 0002:00001de8       ??_C@_0CK@FHKKOEPH@numDims?5?$DO?$DN?50?5?$CG?$CG?5numDims?5?$DM?$DN?5MAX_D@ 0000000180240de8     sfc_mex:sfc_mex.obj
 0002:00001e20       ??_C@_0EM@MPIDLJBF@MATLAB?5expression?5?8?$CFs?8?5subscript@ 0000000180240e20     sfc_mex:sfc_mex.obj
 0002:00001e6c       ??_C@_04IGKKBJEE@?$DN?$CFg?$DL?$AA@ 0000000180240e6c     sfc_mex:sfc_mex.obj
 0002:00001e74       ??_C@_01PKGAHCOL@?$CJ?$AA@ 0000000180240e74     sfc_mex:sfc_mex.obj
 0002:00001e78       ??_C@_03LEIBKMN@?0?$CFd?$AA@ 0000000180240e78     sfc_mex:sfc_mex.obj
 0002:00001e7c       ??_C@_03IECKINJK@?$CI?$CFd?$AA@ 0000000180240e7c     sfc_mex:sfc_mex.obj
 0002:00001e80       ??_C@_0FB@HKJNNBFK@Stateflow?5ml?5type?5data?5?8?$CFs?8?5subs@ 0000000180240e80     sfc_mex:sfc_mex.obj
 0002:00001ed8       ??_C@_0CN@HPHHCDPK@Stateflow?5ml?5type?5data?5?8?$CFs?8?5is?5n@ 0000000180240ed8     sfc_mex:sfc_mex.obj
 0002:00001f08       ??_C@_0CG@JIOBALFE@Stateflow?5ml?5type?5data?5?8?$CFs?8?5is?5e@ 0000000180240f08     sfc_mex:sfc_mex.obj
 0002:00001f30       ??_C@_0BD@GAHDCPBG@mxArrayPtr?5?$CB?$DN?5NULL?$AA@ 0000000180240f30     sfc_mex:sfc_mex.obj
 0002:00001f48       ??_C@_0CF@HCINMAFF@result?5?$DN?5mxCreateDoubleScalar?$CIva@ 0000000180240f48     sfc_mex:sfc_mex.obj
 0002:00001f70       ??_C@_0BF@GAJKLFOH@fixpt_lower_mx_array?$AA@ 0000000180240f70     sfc_mex:sfc_mex.obj
 0002:00001f88       ??_C@_02FINOOIBE@Cg?$AA@   0000000180240f88     sfc_mex:sfc_mex.obj
 0002:00001f90       ??_C@_09GIFEIFFL@sfprivate?$AA@ 0000000180240f90     sfc_mex:sfc_sf.obj
 0002:00001fa0       ??_C@_0CC@JDELABLI@get_machine_and_chart_file_numbe@ 0000000180240fa0     sfc_mex:sfc_sf.obj
 0002:00001fc8       ??_C@_0BO@JCKKMPIB@get_sfun_block_specialization?$AA@ 0000000180240fc8     sfc_mex:sfc_sf.obj
 0002:00001ff0       ??_C@_0FP@OGBKADON@The?5chart?5name?5?4?4?4?$CFs?5is?5not?5pres@ 0000000180240ff0     sfc_mex:sfc_sf.obj
 0002:00002050       ??_C@_0FM@KEMGDKHM@The?5chart?5name?5?$CFs?5is?5not?5present@ 0000000180241050     sfc_mex:sfc_sf.obj
 0002:000020b0       ??_C@_0BD@NMFAPBEK@mdlInitializeSizes?$AA@ 00000001802410b0     sfc_mex:sfc_sf.obj
 0002:000020c4       ??_C@_06EJFCAODB@sfc_sf?$AA@ 00000001802410c4     sfc_mex:sfc_sf.obj
 0002:000020d0       ??_C@_0BJ@PBIFPMMD@mdlInitializeSampleTimes?$AA@ 00000001802410d0     sfc_mex:sfc_sf.obj
 0002:000020f0       ??_C@_0JD@GBCPGGD@Stateflow?5Internal?5Error?3?5?6rtw_o@ 00000001802410f0     sfc_mex:sfc_sf.obj
 0002:00002190       ??_C@_0HB@BIMCDDAL@Stateflow?5Internal?5Error?3?5?6Error@ 0000000180241190     sfc_mex:sfc_sf.obj
 0002:00002208       ??_C@_0BG@PNKGMGHF@rtw_optimization_info?$AA@ 0000000180241208     sfc_mex:sfc_sf.obj
 0002:00002220       ??_C@_07CFINJGKH@Private?$AA@ 0000000180241220     sfc_mex:sfc_sf.obj
 0002:00002228       ??_C@_0BA@PHPHFLPF@chart_inlinable?$AA@ 0000000180241228     sfc_mex:sfc_sf.obj
 0002:00002240       ??_C@_0MF@FGJMMBFO@Stateflow?5Internal?5Error?3?5?6Numbe@ 0000000180241240     sfc_mex:sfc_sf.obj
 0002:00002308       ??_C@_0CA@GOKFFBBO@outputEventsWithMultipleCallers?$AA@ 0000000180241308     sfc_mex:sfc_sf.obj
 0002:00002330       ??_C@_0LL@PAHBOILO@Stateflow?5Internal?5Error?3?5?6Numbe@ 0000000180241330     sfc_mex:sfc_sf.obj
 0002:000023f0       ??_C@_0BB@GEEDBOGK@reusable_outputs?$AA@ 00000001802413f0     sfc_mex:sfc_sf.obj
 0002:00002410       ??_C@_0II@FEBCOBGA@Stateflow?5Internal?5Error?3?5?6Numbe@ 0000000180241410     sfc_mex:sfc_sf.obj
 0002:00002498       ??_C@_0BG@HMMHPAKE@expressionable_inputs?$AA@ 0000000180241498     sfc_mex:sfc_sf.obj
 0002:000024b0       ??_C@_01CELHOKLL@?$HN?$AA@ 00000001802414b0     sfc_mex:sfc_sf.obj
 0002:000024b8       ??_C@_0BA@OMJBIEIL@SymbolMapping?5?$HL?$AA@ 00000001802414b8     sfc_mex:sfc_sf.obj
 0002:000024c8       ??_C@_07MMIKLHCA@defines?$AA@ 00000001802414c8     sfc_mex:sfc_sf.obj
 0002:000024d0       ??_C@_09CEAIPAHE@functions?$AA@ 00000001802414d0     sfc_mex:sfc_sf.obj
 0002:000024e0       ??_C@_09PNCJPHGM@sfSymbols?$AA@ 00000001802414e0     sfc_mex:sfc_sf.obj
 0002:000024f0       ??_C@_0BB@MBBOKNEL@listen_for_ctrlc?$AA@ 00000001802414f0     sfc_mex:sfc_sf.obj
 0002:00002504       ??_C@_03LOANPFAI@mex?$AA@  0000000180241504     sfc_mex:sfc_sf.obj
 0002:00002508       ??_C@_07HLHKBCBI@sfdebug?$AA@ 0000000180241508     sfc_mex:sfc_sf.obj
 0002:00002510       ??_C@_07MFNNEMOJ@drawnow?$AA@ 0000000180241510     sfc_mex:sfc_sf.obj
 0002:00002518       __real@3fd3333333333333    0000000180241518     sfc_mex:sfc_sf.obj
 0002:00002520       ??_C@_0DG@OJBAPEMA@Internal?5Error?3?5paramsIndex?5?$DN?5?$CFd@ 0000000180241520     sfc_mex:sfc_sf.obj
 0002:00002560       ??_C@_0BAI@GPDPHGCD@Cannot?5broadcast?5function?5call?5o@ 0000000180241560     sfc_mex:sfc_sf.obj
 0002:00002670       ??_C@_0BBC@NGKHEJAF@Cannot?5enable?1disable?5function?5c@ 0000000180241670     sfc_mex:sfc_sf.obj
 0002:00002788       ??_C@_08HDNBGBNP@bitWidth?$AA@ 0000000180241788     sfc_mex:sfc_sf.obj
 0002:00002798       ??_C@_0BG@MDDFDLDC@resolveToSignalObject?$AA@ 0000000180241798     sfc_mex:sfc_sf.obj
 0002:000027b0       ??_C@_07KHBFOCMF@varName?$AA@ 00000001802417b0     sfc_mex:sfc_sf.obj
 0002:000027b8       ??_C@_09LHPHPAOE@isComplex?$AA@ 00000001802417b8     sfc_mex:sfc_sf.obj
 0002:000027c8       ??_C@_0CM@OAMAJMIG@Failed?5to?5register?5type?5?8?$CFs?8?5wit@ 00000001802417c8     sfc_mex:sfc_sf.obj
 0002:000027f8       ??_C@_08MLIGMCAH@typeSize?$AA@ 00000001802417f8     sfc_mex:sfc_sf.obj
 0002:00002804       ??_C@_04NBAGBPGE@bias?$AA@ 0000000180241804     sfc_mex:sfc_sf.obj
 0002:00002810       ??_C@_08EGJNFMPO@exponent?$AA@ 0000000180241810     sfc_mex:sfc_sf.obj
 0002:0000281c       ??_C@_05LAHHKLJI@slope?$AA@ 000000018024181c     sfc_mex:sfc_sf.obj
 0002:00002828       ??_C@_0L@EMMELFNN@wordLength?$AA@ 0000000180241828     sfc_mex:sfc_sf.obj
 0002:00002838       ??_C@_08EJEJGLGA@isSigned?$AA@ 0000000180241838     sfc_mex:sfc_sf.obj
 0002:00002844       ??_C@_05LFJLPLPG@fixpt?$AA@ 0000000180241844     sfc_mex:sfc_sf.obj
 0002:00002850       ??_C@_07GOBOHMJA@boolean?$AA@ 0000000180241850     sfc_mex:sfc_sf.obj
 0002:00002858       ??_C@_06PKDKHAMA@uint32?$AA@ 0000000180241858     sfc_mex:sfc_sf.obj
 0002:00002860       ??_C@_05GIMEPBJB@int32?$AA@ 0000000180241860     sfc_mex:sfc_sf.obj
 0002:00002868       ??_C@_06JNNCGBKK@uint16?$AA@ 0000000180241868     sfc_mex:sfc_sf.obj
 0002:00002870       ??_C@_05PCMOAPL@int16?$AA@ 0000000180241870     sfc_mex:sfc_sf.obj
 0002:00002878       ??_C@_05BOGOCLFF@uint8?$AA@ 0000000180241878     sfc_mex:sfc_sf.obj
 0002:00002880       ??_C@_04DCGBOBJJ@int8?$AA@ 0000000180241880     sfc_mex:sfc_sf.obj
 0002:00002888       ??_C@_04GPMDFGEJ@type?$AA@ 0000000180241888     sfc_mex:sfc_sf.obj
 0002:00002890       ??_C@_0O@EIPJLOAA@extModeUpload?$AA@ 0000000180241890     sfc_mex:sfc_sf.obj
 0002:000028a0       __real@43e0000000000000    00000001802418a0     sfc_mex:sfc_sf.obj
 0002:000028a8       ??_C@_03PLHFFLIH@ptr?$AA@  00000001802418a8     sfc_mex:sfc_sf.obj
 0002:000028b0       ??_C@_0BC@HMCIKMPA@requiredStackSize?$AA@ 00000001802418b0     sfc_mex:sfc_sf.obj
 0002:000028c8       ??_C@_0CB@OCGIMAKA@RegisterMachineParentedDataDwork@ 00000001802418c8     sfc_mex:sfc_sf.obj
 0002:000028f0       ??_C@_0BD@LFPAKDFC@machineDataVarInfo?$AA@ 00000001802418f0     sfc_mex:sfc_sf.obj
 0002:00002908       ??_C@_09GAJBGLOB@dworkInfo?$AA@ 0000000180241908     sfc_mex:sfc_sf.obj
 0002:00002918       sf_uint_bits_log2          0000000180241918     sfc_debug:sfcdebug.obj
 0002:00002938       ??_C@_04GKMJMOBJ@disp?$AA@ 0000000180241938     sfc_debug:sfcdebug.obj
 0002:00002940       ??_C@_0DJ@GEKCDEED@Runtime?5size?5mismatch?5for?5dimens@ 0000000180241940     sfc_debug:sfcdebug.obj
 0002:00002980       ??_C@_0N@IHFJDIPG@load_machine?$AA@ 0000000180241980     sfc_debug:sfcdebug.obj
 0002:00002990       ??_C@_0P@NOFOFJMO@ScriptCacheGet?$AA@ 0000000180241990     sfc_debug:sfcdebug.obj
 0002:000029a0       ??_C@_0BD@LPIHANBP@State?5Entry?5Action?$AA@ 00000001802419a0     sfc_debug:sfcdebug.obj
 0002:000029b8       ??_C@_0BE@EDAKPKIF@State?5During?5Action?$AA@ 00000001802419b8     sfc_debug:sfcdebug.obj
 0002:000029d0       ??_C@_0BC@FKIGLKJE@State?5Exit?5Action?$AA@ 00000001802419d0     sfc_debug:sfcdebug.obj
 0002:000029e4       ??_C@_04CGFJFPFD@none?$AA@ 00000001802419e4     sfc_debug:sfcdebug.obj
 0002:000029f0       ??_C@_0BD@JMJALEKH@Transition?5Trigger?$AA@ 00000001802419f0     sfc_debug:sfcdebug.obj
 0002:00002a08       ??_C@_0BO@JIGLNAHF@Transition?5Guarding?5Condition?$AA@ 0000000180241a08     sfc_debug:sfcdebug.obj
 0002:00002a28       ??_C@_0BB@ODEGBFLN@Condition?5Action?$AA@ 0000000180241a28     sfc_debug:sfcdebug.obj
 0002:00002a40       ??_C@_0BC@EPJNNAPA@Transition?5Action?$AA@ 0000000180241a40     sfc_debug:sfcdebug.obj
 0002:00002a58       ??_C@_0DI@JGHJOLLJ@INTERNAL?5ERROR?4?5Failed?5assertion@ 0000000180241a58     sfc_debug:sfcdebug.obj
 0002:00002a90       ??_C@_01EEMJAFIK@?6?$AA@   0000000180241a90     sfc_debug:sfcdebug.obj
 0002:00002a98       ??_C@_0P@HHNBJNJA@context_string?$AA@ 0000000180241a98     sfc_debug:sfcdebug.obj
 0002:00002aa8       ??_C@_0DL@EPKGPGLC@?$CImachine?9?$DOdataCompInfo?4fixedPoin@ 0000000180241aa8     sfc_debug:sfcdebug.obj
 0002:00002ae8       ??_C@_0L@GJHMCDGO@sfcdebug?4c?$AA@ 0000000180241ae8     sfc_debug:sfcdebug.obj
 0002:00002af8       ??_C@_0DE@CBCLKIAM@?$CImachine?9?$DOdataCompInfo?4isComplex@ 0000000180241af8     sfc_debug:sfcdebug.obj
 0002:00002b30       ??_C@_0DP@MDOJBFKE@?$CIinstance?9?$DOdataCompInfo?4fixedPoi@ 0000000180241b30     sfc_debug:sfcdebug.obj
 0002:00002b70       ??_C@_0DM@KFHGIBMB@?$CIinstance?9?$DOdataCompInfo?4fixedPoi@ 0000000180241b70     sfc_debug:sfcdebug.obj
 0002:00002bb0       ??_C@_0DF@IIPJPBAH@?$CIinstance?9?$DOdataCompInfo?4isComple@ 0000000180241bb0     sfc_debug:sfcdebug.obj
 0002:00002be8       ??_C@_0DA@OMEPAHNH@?$CIchart?9?$DOdata?4outputDataFlags?$CJ?4le@ 0000000180241be8     sfc_debug:sfcdebug.obj
 0002:00002c18       ??_C@_0CP@JPBDBJBK@?$CIchart?9?$DOdata?4inputDataFlags?$CJ?4len@ 0000000180241c18     sfc_debug:sfcdebug.obj
 0002:00002c48       ??_C@_03KGJNKAJD@lic?$AA@  0000000180241c48     sfc_debug:sfcdebug.obj
 0002:00002c4c       ??_C@_04PNMLDJAE@ense?$AA@ 0000000180241c4c     sfc_debug:sfcdebug.obj
 0002:00002c58       ??_C@_0L@ONMHLBPB@?$CFs?$CFs?$CFslbox?$AA@ 0000000180241c58     sfc_debug:sfcdebug.obj
 0002:00002c64       ??_C@_04CLOJJEIM@fixe?$AA@ 0000000180241c64     sfc_debug:sfcdebug.obj
 0002:00002c6c       ??_C@_05CBHOIFCP@t_too?$AA@ 0000000180241c6c     sfc_debug:sfcdebug.obj
 0002:00002c74       ??_C@_06MGFNEDEJ@d_poin?$AA@ 0000000180241c74     sfc_debug:sfcdebug.obj
 0002:00002c7c       ??_C@_04HDOCAJNK@?$CFs?$CFs?$AA@ 0000000180241c7c     sfc_debug:sfcdebug.obj
 0002:00002c84       ??_C@_04BJBBOLDM@chec?$AA@ 0000000180241c84     sfc_debug:sfcdebug.obj
 0002:00002c8c       ??_C@_04KNBDLPKC@kout?$AA@ 0000000180241c8c     sfc_debug:sfcdebug.obj
 0002:00002c98       ??_C@_0BA@FKECJMCE@active_instance?$AA@ 0000000180241c98     sfc_debug:sfcdebug.obj
 0002:00002ca8       ??_C@_0DD@MJFCMKPO@transCnt?5?$DN?$DN?5instance?9?$DOcvToolIds?4@ 0000000180241ca8     sfc_debug:sfcdebug.obj
 0002:00002ce0       ??_C@_0CO@MONEMJEL@stateCnt?5?$DN?$DN?5instance?9?$DOcvToolIds?4@ 0000000180241ce0     sfc_debug:sfcdebug.obj
 0002:00002d10       ??_C@_0O@ELHBEDAD@init_debugger?$AA@ 0000000180241d10     sfc_debug:sfcdebug.obj
 0002:00002d20       ??_C@_0L@PKOFOKNN@break_here?$AA@ 0000000180241d20     sfc_debug:sfcdebug.obj
 0002:00002d30       ??_C@_0BH@KBPHNGCH@script?4activeMachineId?$AA@ 0000000180241d30     sfc_debug:sfcdebug.obj
 0002:00002d48       ??_C@_03KCHOJKKI@set?$AA@  0000000180241d48     sfc_debug:sfcdebug.obj
 0002:00002d50       ??_C@_0DD@PKMAPHBF@?$CImachine?9?$DOdata?4watchFlags?$CJ?4lengt@ 0000000180241d50     sfc_debug:sfcdebug.obj
 0002:00002d90       ??_C@_0FE@KLPHIMDI@?$CIchart?9?$DOdata?4watchFlags?$CJ?4length?$DO@ 0000000180241d90     sfc_debug:sfcdebug.obj
 0002:00002de8       ??_C@_0BO@GFBPGEIL@bufferSizeGet?5?$DN?$DN?5totalSizeGet?$AA@ 0000000180241de8     sfc_debug:sfcdebug.obj
 0002:00002e08       ??_C@_0BO@BEEPOEDP@bufferSizeSet?5?$DN?$DN?5totalSizeSet?$AA@ 0000000180241e08     sfc_debug:sfcdebug.obj
 0002:00002e28       ??_C@_0BG@NNAKOPEK@get_script_line_count?$AA@ 0000000180241e28     sfc_debug:sfcdebug.obj
 0002:00002e40       ??_C@_0BJ@GADAHKGG@temporal_threshold_error?$AA@ 0000000180241e40     sfc_debug:sfcdebug.obj
 0002:00002e60       ??_C@_0BK@KABIOMCC@transition_conflict_error?$AA@ 0000000180241e60     sfc_debug:sfcdebug.obj
 0002:00002e80       ??_C@_0BK@HLPANOPJ@state_inconsistency_error?$AA@ 0000000180241e80     sfc_debug:sfcdebug.obj
 0002:00002ea0       ??_C@_0BA@PCEGODO@cycle_detection?$AA@ 0000000180241ea0     sfc_debug:sfcdebug.obj
 0002:00002eb0       ??_C@_0CP@HMOGACCG@Simulation?5stopped?5due?5to?5out?5of@ 0000000180241eb0     sfc_debug:sfcdebug.obj
 0002:00002ee0       ??_C@_0BD@LFFFHIJG@array_bounds_error?$AA@ 0000000180241ee0     sfc_debug:sfcdebug.obj
 0002:00002ef8       ??_C@_0O@IENBAMNA@runtime_error?$AA@ 0000000180241ef8     sfc_debug:sfcdebug.obj
 0002:00002f08       ??_C@_0CC@EDKHOOPE@Call?5to?5MATLAB?5function?5aborted?3@ 0000000180241f08     sfc_debug:sfcdebug.obj
 0002:00002f30       ??_C@_0DJ@JBGHLJFL@Simulation?5stopped?5due?5to?5size?5m@ 0000000180241f30     sfc_debug:sfcdebug.obj
 0002:00002f70       ??_C@_0DJ@EAKPCDBG@Simulation?5stopped?5due?5to?5size?5m@ 0000000180241f70     sfc_debug:sfcdebug.obj
 0002:00002fb0       ??_C@_0GD@BJCLDBKO@Simulation?5stopped?5due?5to?5size?5m@ 0000000180241fb0     sfc_debug:sfcdebug.obj
 0002:00003020       ??_C@_0GJ@OHCOIONE@Simulation?5stopped?5due?5to?5size?5o@ 0000000180242020     sfc_debug:sfcdebug.obj
 0002:00003090       ??_C@_0DF@BOMHHCNB@Subscripted?5assignment?5dimension@ 0000000180242090     sfc_debug:sfcdebug.obj
 0002:000030d0       ??_C@_0NG@BOPFGKBO@Matrix?$CImatrix?$CJ?5subscript?5turned?5@ 00000001802420d0     sfc_debug:sfcdebug.obj
 0002:000031b0       ??_C@_0HE@FPEPCMDA@Matrix?$CImatrix?$CJ?5subscript?5turned?5@ 00000001802421b0     sfc_debug:sfcdebug.obj
 0002:00003230       ??_C@_0NG@MLJIHJIH@Vector?$CIvector?$CJ?5subscript?5turned?5@ 0000000180242230     sfc_debug:sfcdebug.obj
 0002:00003310       ??_C@_0HE@BHPDCNDF@Vector?$CIvector?$CJ?5subscript?5turned?5@ 0000000180242310     sfc_debug:sfcdebug.obj
 0002:00003388       ??_C@_0P@FIEIFKHH@dataName?$CB?$DNNULL?$AA@ 0000000180242388     sfc_debug:sfcdebug.obj
 0002:00003398       ??_C@_0BC@JKFOPCCM@non_integer_error?$AA@ 0000000180242398     sfc_debug:sfcdebug.obj
 0002:000033b0       ??_C@_09MMCAMPEC@nan_error?$AA@ 00000001802423b0     sfc_debug:sfcdebug.obj
 0002:000033c0       ??_C@_0P@KGNBONIG@negative_error?$AA@ 00000001802423c0     sfc_debug:sfcdebug.obj
 0002:000033d0       ??_C@_0DA@OEGHOJFO@Simulation?5stopped?5due?5to?5divide@ 00000001802423d0     sfc_debug:sfcdebug.obj
 0002:00003400       ??_C@_0P@DAGNNBKM@overflow_error?$AA@ 0000000180242400     sfc_debug:sfcdebug.obj
 0002:00003410       ??_C@_0BF@IEPBJJM@divide_by_zero_error?$AA@ 0000000180242410     sfc_debug:sfcdebug.obj
 0002:00003428       ??_C@_0BC@CNIFONOF@unsafe_enum_error?$AA@ 0000000180242428     sfc_debug:sfcdebug.obj
 0002:00003440       ??_C@_0BA@GLGJGIFO@data_loss_error?$AA@ 0000000180242440     sfc_debug:sfcdebug.obj
 0002:00003450       ??_C@_0BB@LFNCDKMF@data_range_error?$AA@ 0000000180242450     sfc_debug:sfcdebug.obj
 0002:00003468       __real@4059000000000000    0000000180242468     sfc_debug:sfcdebug.obj
 0002:00003470       ??_C@_0EL@LHLCBPON@objectType?$DN?$DNEVENT_OBJECT?5?$CG?$CG?5obje@ 0000000180242470     sfc_debug:sfcdebug.obj
 0002:000034c0       ??_C@_0CK@BGKNIJPH@Simulation?5stopped?5due?5to?5infini@ 00000001802424c0     sfc_debug:sfcdebug.obj
 0002:000034f0       ??_C@_0EC@EKMLJIIP@strlen?$CItargetName?$CJ?$DMsizeof?$CIdebugI@ 00000001802424f0     sfc_debug:sfcdebug.obj
 0002:00003540       ??_C@_0EE@LPPEFNLK@strlen?$CImachineName?$CJ?$DMsizeof?$CIdebug@ 0000000180242540     sfc_debug:sfcdebug.obj
 0002:00003588       ??_C@_0P@NDNBPAGO@charts?9?$DOsize?$DO0?$AA@ 0000000180242588     sfc_debug:sfcdebug.obj
 0002:00003598       ??_C@_09DACGJFPO@terminate?$AA@ 0000000180242598     sfc_debug:sfcdebug.obj
 0002:000035a8       ??_C@_0BH@BOIPOAMD@currentoptionalinteger?$AA@ 00000001802425a8     sfc_debug:sfc_api.obj
 0002:000035c0       ??_C@_0BI@KDFLIHKN@currentstatementcontext?$AA@ 00000001802425c0     sfc_debug:sfc_api.obj
 0002:000035d8       ??_C@_0BF@CJJCNHOP@currentstatementinfo?$AA@ 00000001802425d8     sfc_debug:sfc_api.obj
 0002:000035f0       ??_C@_0BA@EEHAMBBL@currentcoverage?$AA@ 00000001802425f0     sfc_debug:sfc_api.obj
 0002:00003600       ??_C@_0BD@CPIGBEHM@currentmachinename?$AA@ 0000000180242600     sfc_debug:sfc_api.obj
 0002:00003618       ??_C@_0BF@MPNFKHIK@currentmachinenumber?$AA@ 0000000180242618     sfc_debug:sfc_api.obj
 0002:00003630       ??_C@_0BB@EAGFPGEG@currentmachineid?$AA@ 0000000180242630     sfc_debug:sfc_api.obj
 0002:00003648       ??_C@_0P@LDEJFJKJ@simulationtime?$AA@ 0000000180242648     sfc_debug:sfc_api.obj
 0002:00003658       ??_C@_0P@CKMPNBM@currenttagtype?$AA@ 0000000180242658     sfc_debug:sfc_api.obj
 0002:00003668       ??_C@_0BH@EMAALFDO@currentactiveeventtype?$AA@ 0000000180242668     sfc_debug:sfc_api.obj
 0002:00003680       ??_C@_0BF@BIDFPCPF@currentactiveeventid?$AA@ 0000000180242680     sfc_debug:sfc_api.obj
 0002:00003698       ??_C@_0BA@LAPNNELA@currentobjectid?$AA@ 0000000180242698     sfc_debug:sfc_api.obj
 0002:000036a8       ??_C@_0BB@LLJHHKEI@currenteventtype?$AA@ 00000001802426a8     sfc_debug:sfc_api.obj
 0002:000036c0       ??_C@_0BC@BDADCDEL@currentobjecttype?$AA@ 00000001802426c0     sfc_debug:sfc_api.obj
 0002:000036d8       ??_C@_0BH@HDHFFKCN@currentisminortimestep?$AA@ 00000001802426d8     sfc_debug:sfc_api.obj
 0002:000036f0       ??_C@_0BG@PKFJEKLL@currentinstancehandle?$AA@ 00000001802426f0     sfc_debug:sfc_api.obj
 0002:00003708       ??_C@_0BG@GJFHKFBJ@currentinstancenumber?$AA@ 0000000180242708     sfc_debug:sfc_api.obj
 0002:00003720       ??_C@_0BD@DKAMMHEE@currentchartnumber?$AA@ 0000000180242720     sfc_debug:sfc_api.obj
 0002:00003738       ??_C@_0P@EANFOHCD@currentchartid?$AA@ 0000000180242738     sfc_debug:sfc_api.obj
 0002:00003748       ??_C@_0BC@CMFMGKCG@set_script_cv_ids?$AA@ 0000000180242748     sfc_debug:sfc_api.obj
 0002:00003760       ??_C@_0BE@ONNFKBAC@set_instance_cv_ids?$AA@ 0000000180242760     sfc_debug:sfc_api.obj
 0002:00003778       ??_C@_0BE@CDIKCKCD@get_instance_handle?$AA@ 0000000180242778     sfc_debug:sfc_api.obj
 0002:00003790       ??_C@_0BE@GPEMFILK@break_between_times?$AA@ 0000000180242790     sfc_debug:sfc_api.obj
 0002:000037a8       ??_C@_0O@KGONFDDG@active_states?$AA@ 00000001802427a8     sfc_debug:sfc_api.obj
 0002:000037b8       ??_C@_0BC@LHALNGBC@state_consistency?$AA@ 00000001802427b8     sfc_debug:sfc_api.obj
 0002:000037d0       ??_C@_0BE@JNDELHDH@transition_conflict?$AA@ 00000001802427d0     sfc_debug:sfc_api.obj
 0002:000037e8       ??_C@_0L@ECJAFPAF@data_range?$AA@ 00000001802427e8     sfc_debug:sfc_api.obj
 0002:000037f8       ??_C@_0O@NAKDKJME@select_charts?$AA@ 00000001802427f8     sfc_debug:sfc_api.obj
 0002:00003808       ??_C@_0N@KLDBDGD@select_chart?$AA@ 0000000180242808     sfc_debug:sfc_api.obj
 0002:00003818       ??_C@_0O@NJPMKBAC@set_animation?$AA@ 0000000180242818     sfc_debug:sfc_api.obj
 0002:00003828       ??_C@_0N@NLCAJHNH@get_coverage?$AA@ 0000000180242828     sfc_debug:sfc_api.obj
 0002:00003838       ??_C@_09FLOFKLFE@set_watch?$AA@ 0000000180242838     sfc_debug:sfc_api.obj
 0002:00003848       ??_C@_0O@ECMAEPOC@get_script_id?$AA@ 0000000180242848     sfc_debug:sfc_api.obj
 0002:00003858       ??_C@_0BJ@KFGPCNG@query_script_breakpoints?$AA@ 0000000180242858     sfc_debug:sfc_api.obj
 0002:00003878       ??_C@_0BJ@CAAHLJNF@clear_script_breakpoints?$AA@ 0000000180242878     sfc_debug:sfc_api.obj
 0002:00003898       ??_C@_0BH@BAILBHDP@add_script_breakpoints?$AA@ 0000000180242898     sfc_debug:sfc_api.obj
 0002:000038b0       ??_C@_0BH@KAKDDELG@set_script_breakpoints?$AA@ 00000001802428b0     sfc_debug:sfc_api.obj
 0002:000038c8       ??_C@_0BE@GAGDJPKA@set_eml_breakpoints?$AA@ 00000001802428c8     sfc_debug:sfc_api.obj
 0002:000038e0       ??_C@_0BA@NHOBHLLJ@set_breakpoints?$AA@ 00000001802428e0     sfc_debug:sfc_api.obj
 0002:000038f0       ??_C@_0BF@GOGOODJG@break_on_state_entry?$AA@ 00000001802428f0     sfc_debug:sfc_api.obj
 0002:00003908       ??_C@_0BJ@FPOJDFBP@break_on_event_broadcast?$AA@ 0000000180242908     sfc_debug:sfc_api.obj
 0002:00003928       ??_C@_0BF@FJBBAFJ@break_on_chart_entry?$AA@ 0000000180242928     sfc_debug:sfc_api.obj
 0002:00003940       ??_C@_0N@MHHEHLAI@browse_trace?$AA@ 0000000180242940     sfc_debug:sfc_api.obj
 0002:00003950       ??_C@_0BB@JEAJMJMI@consistency_info?$AA@ 0000000180242950     sfc_debug:sfc_api.obj
 0002:00003964       ??_C@_04MLCEENPJ@whos?$AA@ 0000000180242964     sfc_debug:sfc_api.obj
 0002:00003970       ??_C@_0L@LNIDAIN@watch_data?$AA@ 0000000180242970     sfc_debug:sfc_api.obj
 0002:00003980       ??_C@_0M@JEJMEFEG@browse_data?$AA@ 0000000180242980     sfc_debug:sfc_api.obj
 0002:0000398c       ??_C@_03HNAFFKGA@get?$AA@  000000018024298c     sfc_debug:sfc_api.obj
 0002:00003990       ??_C@_05LBOHBHFK@close?$AA@ 0000000180242990     sfc_debug:sfc_api.obj
 0002:00003998       ??_C@_0BM@ICDFOOIE@set_disable_all_breakpoints?$AA@ 0000000180242998     sfc_debug:sfc_api.obj
 0002:000039b8       ??_C@_0BP@IBIALPGH@disable_all_breakpoints_and_go?$AA@ 00000001802429b8     sfc_debug:sfc_api.obj
 0002:000039d8       ??_C@_0BJ@BOMFHJBD@is_array_bounds_detected?$AA@ 00000001802429d8     sfc_debug:sfc_api.obj
 0002:000039f8       ??_C@_0BC@LKOOEAAH@is_cycle_detected?$AA@ 00000001802429f8     sfc_debug:sfc_api.obj
 0002:00003a10       ??_C@_0P@NIBPNIDJ@stop_debugging?$AA@ 0000000180242a10     sfc_debug:sfc_api.obj
 0002:00003a20       ??_C@_05ELPHFHOI@break?$AA@ 0000000180242a20     sfc_debug:sfc_api.obj
 0002:00003a28       ??_C@_06PLELHCEK@resume?$AA@ 0000000180242a28     sfc_debug:sfc_api.obj
 0002:00003a30       ??_C@_08OKABEMKO@step_out?$AA@ 0000000180242a30     sfc_debug:sfc_api.obj
 0002:00003a40       ??_C@_09CDNMPCHO@step_over?$AA@ 0000000180242a40     sfc_debug:sfc_api.obj
 0002:00003a4c       ??_C@_02KPEDIMCA@go?$AA@   0000000180242a4c     sfc_debug:sfc_api.obj
 0002:00003a50       ??_C@_0P@MMCMIGPN@debugger_alive?$AA@ 0000000180242a50     sfc_debug:sfc_api.obj
 0002:00003a60       ??_C@_0N@GHFBLJDM@machine_load?$AA@ 0000000180242a60     sfc_debug:sfc_api.obj
 0002:00003a70       ??_C@_0O@GIBFCMLF@chart_visible?$AA@ 0000000180242a70     sfc_debug:sfc_api.obj
 0002:00003e80       ??_C@_05JEMLEKKA@found?$AA@ 0000000180242e80     sfc_debug:sfc_api.obj
 0002:00003e88       ??_C@_09KFNMLIAN@sfc_api?4c?$AA@ 0000000180242e88     sfc_debug:sfc_api.obj
 0002:00003e98       ??_C@_0N@PFBMDOLG@sf_debug_api?$AA@ 0000000180242e98     sfc_debug:sfc_api.obj
 0002:00003ea8       ??_C@_07KEAHHHLK@nrhs?$DN?$DN3?$AA@ 0000000180242ea8     sfc_debug:sfc_api.obj
 0002:00003eb0       ??_C@_0BC@HOOMKBNL@mxIsChar?$CIprhs?$FL0?$FN?$CJ?$AA@ 0000000180242eb0     sfc_debug:sfc_api.obj
 0002:00003ec8       ??_C@_0BF@NGLAGMHA@mxIsNumeric?$CIprhs?$FL0?$FN?$CJ?$AA@ 0000000180242ec8     sfc_debug:sfc_api.obj
 0002:00003ee0       ??_C@_07IEIELKNG@nrhs?$DO?$DN1?$AA@ 0000000180242ee0     sfc_debug:sfc_api.obj
 0002:00003ee8       ??_C@_07LNBMEGPL@nrhs?$DN?$DN2?$AA@ 0000000180242ee8     sfc_debug:sfc_api.obj
 0002:00003ef0       ??_C@_09HBMMCBIO@nrhs?5?$DN?$DN?51?$AA@ 0000000180242ef0     sfc_debug:sfc_api.obj
 0002:00003f00       ??_C@_09EMKMAIDO@nrhs?5?$DM?$DN?51?$AA@ 0000000180242f00     sfc_debug:sfc_api.obj
 0002:00003f10       ??_C@_07OLEGOBHN@nrhs?$DN?$DN4?$AA@ 0000000180242f10     sfc_debug:sfc_api.obj
 0002:00003f18       ??_C@_07PCFNNADM@nrhs?$DN?$DN5?$AA@ 0000000180242f18     sfc_debug:sfc_api.obj
 0002:00003f20       ??_C@_07JGDBBFDI@nrhs?$DN?$DN1?$AA@ 0000000180242f20     sfc_debug:sfc_api.obj
 0002:00003f28       ??_C@_07KBNAPCKL@nlhs?$DN?$DN1?$AA@ 0000000180242f28     sfc_debug:sfc_api.obj
 0002:00003f30       ??_C@_08PAMHJLPB@statusOk?$AA@ 0000000180242f30     sfc_debug:sfc_api.obj
 0002:00003f40       ??_C@_07NJHAIDPP@nrhs?$DN?$DN6?$AA@ 0000000180242f40     sfc_debug:sfc_api.obj
 0002:00003f48       ??_C@_0L@EMNHGDGL@nlhs?$DN?$DNnrhs?$AA@ 0000000180242f48     sfc_debug:sfc_api.obj
 0002:00003f58       ??_C@_0BP@PJLNOBEA@sf_debug_using_unified_editors?$AA@ 0000000180242f58     sfc_debug:sfdb_animation.obj
 0002:00003f78       ??_C@_0CE@EANGLCEA@sf_debug_unified_editor_has_diag@ 0000000180242f78     sfc_debug:sfdb_animation.obj
 0002:00003fa0       ??_C@_0P@BLJCAHMG@select_objects?$AA@ 0000000180242fa0     sfc_debug:sfdb_animation.obj
 0002:00003fb0       ??_C@_06CFKBOPCI@states?$AA@ 0000000180242fb0     sfc_debug:sfdb_animation.obj
 0002:00003fb8       ??_C@_0P@KHIIFDEG@instanceHandle?$AA@ 0000000180242fb8     sfc_debug:sfdb_animation.obj
 0002:00003fc8       ??_C@_0P@DEIGLMOE@instanceNumber?$AA@ 0000000180242fc8     sfc_debug:sfdb_animation.obj
 0002:00003fd8       ??_C@_0N@HACOJJON@instanceName?$AA@ 0000000180242fd8     sfc_debug:sfdb_animation.obj
 0002:00003fe8       ??_C@_0M@BFNIOHPP@chartNumber?$AA@ 0000000180242fe8     sfc_debug:sfdb_animation.obj
 0002:00003ff8       ??_C@_07KGNNMFDL@chartId?$AA@ 0000000180242ff8     sfc_debug:sfdb_animation.obj
 0002:00004000       ??_C@_09KMHJEGJ@chartName?$AA@ 0000000180243000     sfc_debug:sfdb_animation.obj
 0002:0000400c       ??_C@_06OOECHJN@charts?$AA@ 000000018024300c     sfc_debug:sfdb_animation.obj
 0002:00004018       ??_C@_0O@LOMGGENK@machineNumber?$AA@ 0000000180243018     sfc_debug:sfdb_animation.obj
 0002:00004028       ??_C@_09OOJCKABH@machineId?$AA@ 0000000180243028     sfc_debug:sfdb_animation.obj
 0002:00004038       ??_C@_0M@OCOCCFP@machineName?$AA@ 0000000180243038     sfc_debug:sfdb_animation.obj
 0002:00004048       ??_C@_0CN@CCJEMGOM@?$CIinstance?9?$DOsm?4statePack?$CJ?4length?$DO@ 0000000180243048     sfc_debug:sfdb_animation.obj
 0002:00004078       ??_C@_0DC@DKAJIDPA@?$CIinstance?9?$DOsm?4transitionPack?$CJ?4le@ 0000000180243078     sfc_debug:sfdb_animation.obj
 0002:000040b0       ??_C@_0BB@EGGLBLCL@sfdb_animation?4c?$AA@ 00000001802430b0     sfc_debug:sfdb_animation.obj
 0002:000040c8       ??_C@_0BB@GDGPIGLB@cv_model_enabled?$AA@ 00000001802430c8     sfc_debug:cv_sfinterface.obj
 0002:000040e0       ??_C@_09DDDNMFIJ@get_param?$AA@ 00000001802430e0     sfc_debug:cv_sfinterface.obj
 0002:000040f0       ??_C@_0L@BODNDPN@CoverageId?$AA@ 00000001802430f0     sfc_debug:cv_sfinterface.obj
 0002:000040fc       ??_C@_05IEGMLJMJ@exist?$AA@ 00000001802430fc     sfc_debug:cv_sfinterface.obj
 0002:00004104       ??_C@_02DDEKINOE@cv?$AA@   0000000180243104     sfc_debug:cv_sfinterface.obj
 0002:00004108       __real@4082c00000000000    0000000180243108     sfc_debug:cv_sfinterface.obj
 0002:00004110       ??_C@_0O@HGNEKHDK@MatlabVersion?$AA@ 0000000180243110     sfc_debug:cv_sfinterface.obj
 0002:00004120       ??_C@_0M@IIAIMKFO@status?5?$DN?$DN?50?$AA@ 0000000180243120     sfc_debug:cv_sfinterface.obj
 0002:00004130       ??_C@_0BB@ENEMAMMG@cv_sfinterface?4c?$AA@ 0000000180243130     sfc_debug:cv_sfinterface.obj
 0002:00004148       ??_C@_0CC@JMPFGLON@mxGetNumberOfElements?$CIplhs?$FL3?$FN?$CJ?$DN?$DN@ 0000000180243148     sfc_debug:cv_sfinterface.obj
 0002:00004170       ??_C@_0P@MCDOIOOF@plhs?$FL3?$FN?5?$CB?$DNNULL?$AA@ 0000000180243170     sfc_debug:cv_sfinterface.obj
 0002:00004180       ??_C@_0P@HAMLCBNF@len?$DM?$DNdataCount?$AA@ 0000000180243180     sfc_debug:cv_sfinterface.obj
 0002:00004190       ??_C@_0BA@FJOAHKLL@len?$DN?$DNtransCount?$AA@ 0000000180243190     sfc_debug:cv_sfinterface.obj
 0002:000041a0       ??_C@_0BA@JELAJLGI@len?$DN?$DNstateCount?$AA@ 00000001802431a0     sfc_debug:cv_sfinterface.obj
 0002:000041b0       ??_C@_0BC@NEFBEIHN@InitChartInstance?$AA@ 00000001802431b0     sfc_debug:cv_sfinterface.obj
 0002:000041c4       ??_C@_04MMALOABH@cvsf?$AA@ 00000001802431c4     sfc_debug:cv_sfinterface.obj
 0002:000041d0       ??_C@_0L@GIEKKEHF@InitScript?$AA@ 00000001802431d0     sfc_debug:cv_sfinterface.obj
 0002:000041e0       ??_C@_08DNDOONPK@sigrange?$AA@ 00000001802431e0     sfc_debug:cv_sfinterface.obj
 0002:000041f0       ??_C@_0O@KGBGEHIN@MetricEnabled?$AA@ 00000001802431f0     sfc_debug:cv_sfinterface.obj
 0002:00004200       ??_C@_0BC@NKPEPJDJ@chart?9?$DOchartId?$CB?$DN0?$AA@ 0000000180243200     sfc_debug:cv_sfinterface.obj
 0002:00004214       ??_C@_06LIBBAANI@len?$DN?$DN1?$AA@ 0000000180243214     sfc_debug:sfdb_handle_management.obj
 0002:00004220       ??_C@_0BJ@IEEBKHME@sfdb_handle_management?4c?$AA@ 0000000180243220     sfc_debug:sfdb_handle_management.obj
 0002:0000423c       ??_C@_06NCGDPKCC@handle?$AA@ 000000018024323c     sfc_debug:sfdb_handle_management.obj
 0002:00004248       ??_C@_0BP@NAIIDBEE@parentObjectType?$DN?$DNCHART_OBJECT?$AA@ 0000000180243248     sfc_debug:sfdb_handle_management.obj
 0002:00004268       ??_C@_0BD@JOOOIBOE@get_machine_option?$AA@ 0000000180243268     sfc_debug:sfdb_handle_management.obj
 0002:00004280       ??_C@_0P@KGLBOIAN@get_machine_id?$AA@ 0000000180243280     sfc_debug:sfdb_handle_management.obj
 0002:00004290       ??_C@_0N@OBHOGINE@get_chart_id?$AA@ 0000000180243290     sfc_debug:sfdb_handle_management.obj
 0002:000042a0       ??_C@_0BD@DICPGEAM@register_sfunction?$AA@ 00000001802432a0     sfc_debug:sfdb_handle_management.obj
 0002:000042b8       ??_C@_0BK@FGANPGOL@get_chart_active_instance?$AA@ 00000001802432b8     sfc_debug:sfdb_handle_management.obj
 0002:000042d8       ??_C@_0BF@FENDCECP@get_chart_visibility?$AA@ 00000001802432d8     sfc_debug:sfdb_handle_management.obj
 0002:000042f0       ??_C@_0BM@FDGIEMLG@objectProperties?9?$DOlength?$DN?$DN0?$AA@ 00000001802432f0     sfc_debug:sfdb_handle_management.obj
 0002:00004310       ??_C@_0CE@KBPIEDGG@?$CI?$CI?$CKobjectProperties?$CJ?$CJ?4length?$DOnum@ 0000000180243310     sfc_debug:sfdb_handle_management.obj
 0002:00004338       ??_C@_0CA@HFGDFECP@len?5?$DN?$DN?5objectProperties?9?$DOlength?$AA@ 0000000180243338     sfc_debug:sfdb_handle_management.obj
 0002:00004358       ??_C@_0P@BHPLCHGJ@get_object_ids?$AA@ 0000000180243358     sfc_debug:sfdb_handle_management.obj
 0002:00004368       ??_C@_0BK@IFFOLHLE@objectProperties?9?$DOsize?$DN?$DN0?$AA@ 0000000180243368     sfc_debug:sfdb_handle_management.obj
 0002:00004388       ??_C@_0BO@GFLPGHHM@len?5?$DO?$DN?5objectProperties?9?$DOsize?$AA@ 0000000180243388     sfc_debug:sfdb_handle_management.obj
 0002:000043a8       ??_C@_05GFHEIIDD@event?$AA@ 00000001802433a8     sfc_debug:sfdb_handle_management.obj
 0002:000043b0       ??_C@_0M@BFOKCNLA@debug?4watch?$AA@ 00000001802433b0     sfc_debug:sfdb_handle_management.obj
 0002:000043bc       ??_C@_04PJOLNDGD@data?$AA@ 00000001802433bc     sfc_debug:sfdb_handle_management.obj
 0002:000043c4       ??_C@_02EGCJHIOB@id?$AA@   00000001802433c4     sfc_debug:sfdb_handle_management.obj
 0002:000043c8       ??_C@_0CE@OILCPIFA@machine?4debug?4disableAllBreakpoi@ 00000001802433c8     sfc_debug:sfdb_handle_management.obj
 0002:000043f0       ??_C@_0DA@JMDEGBBH@machine?4debug?4runTimeCheck?4state@ 00000001802433f0     sfc_debug:sfdb_handle_management.obj
 0002:00004420       ??_C@_0CP@IPHIMGFA@machine?4debug?4runTimeCheck?4trans@ 0000000180243420     sfc_debug:sfdb_handle_management.obj
 0002:00004450       ??_C@_0CL@LENOAAKD@machine?4debug?4runTimeCheck?4dataR@ 0000000180243450     sfc_debug:sfdb_handle_management.obj
 0002:00004480       ??_C@_0CK@MBMAMLGE@machine?4debug?4runTimeCheck?4cycle@ 0000000180243480     sfc_debug:sfdb_handle_management.obj
 0002:000044b0       ??_C@_0CA@EGLALCO@machine?4debug?4animation?4enabled?$AA@ 00000001802434b0     sfc_debug:sfdb_handle_management.obj
 0002:000044d0       ??_C@_0L@KGLELNDP@transition?$AA@ 00000001802434d0     sfc_debug:sfdb_handle_management.obj
 0002:000044dc       ??_C@_06JKPEPHBG@dst?4id?$AA@ 00000001802434dc     sfc_debug:sfdb_handle_management.obj
 0002:000044e4       ??_C@_05HDBKIDE@state?$AA@ 00000001802434e4     sfc_debug:sfdb_handle_management.obj
 0002:000044f0       ??_C@_0EG@MFIKDIJB@strlen?$CImachineName?$CJ?5?$DM?5sizeof?$CIdeb@ 00000001802434f0     sfc_debug:sfdb_handle_management.obj
 0002:00004538       ??_C@_02GMHACPFF@?$CFu?$AA@ 0000000180243538     sfc_debug:sfdb_data_browse.obj
 0002:0000453c       ??_C@_02NJPGOMH@?$CFf?$AA@ 000000018024353c     sfc_debug:sfdb_data_browse.obj
 0002:00004540       ??_C@_0BD@PCGIEHBF@sfdb_data_browse?4c?$AA@ 0000000180243540     sfc_debug:sfdb_data_browse.obj
 0002:00004558       __real@c2a2309ce53fffcd    0000000180243558     sfc_debug:sfdb_data_browse.obj
 0002:00004560       ??_C@_0CK@JKBFHDPL@result?5?$DN?5mxCreateDoubleMatrix?$CI1?0@ 0000000180243560     sfc_debug:sfdb_data_browse.obj
 0002:00004590       ??_C@_0DK@FJDNFCNK@result?5?$DN?5mxCreateDoubleMatrix?$CI1?0@ 0000000180243590     sfc_debug:sfdb_data_browse.obj
 0002:000045d0       ??_C@_0DL@OAKPHGJG@result?5?$DN?5mxCreateDoubleMatrix?$CI1?0@ 00000001802435d0     sfc_debug:sfdb_data_browse.obj
 0002:00004610       ??_C@_0N@MNGHGLAH@isFixedPoint?$AA@ 0000000180243610     sfc_debug:sfdb_data_browse.obj
 0002:00004620       ??_C@_06DLEPGFEF@format?$AA@ 0000000180243620     sfc_debug:sfdb_data_browse.obj
 0002:00004628       ??_C@_05MFEJDJP@value?$AA@ 0000000180243628     sfc_debug:sfdb_data_browse.obj
 0002:00004630       ??_C@_05DCCHDMEJ@scope?$AA@ 0000000180243630     sfc_debug:sfdb_data_browse.obj
 0002:00004638       ??_C@_0BM@DEONCIBN@stackPtr?5?$DN?$DN?5symScope?9?$DOstack?$AA@ 0000000180243638     sfc_debug:sfdb_symbol_scope.obj
 0002:00004658       ??_C@_0BE@PIKAOBFK@sfdb_symbol_scope?4c?$AA@ 0000000180243658     sfc_debug:sfdb_symbol_scope.obj
 0002:00004670       ??_C@_0BP@MJGDIBPE@symScope?9?$DOcurrentScope?5?$CB?$DN?5NULL?$AA@ 0000000180243670     sfc_debug:sfdb_symbol_scope.obj
 0002:00004690       ??_C@_0BP@OCHHKFJA@symScope?9?$DOcurrentScope?5?$DN?$DN?5NULL?$AA@ 0000000180243690     sfc_debug:sfdb_symbol_scope.obj
 0002:000046b0       ??_C@_0BM@KCIKANPA@symScope?9?$DOstack?5?$DN?$DN?5stackPtr?$AA@ 00000001802436b0     sfc_debug:sfdb_symbol_scope.obj
 0002:000046d0       ??_C@_0DK@NCABFGD@symScope?9?$DOcurrentScope?5?$CB?$DN?5NULL?5?$CG@ 00000001802436d0     sfc_debug:sfdb_symbol_scope.obj
 0002:00004710       ??_C@_0DL@LDAGNOEE@currScope?9?$DOsymbolTable?4count?5?$DM?5c@ 0000000180243710     sfc_debug:sfdb_symbol_scope.obj
 0002:00004750       ??_C@_0BK@PHCKFGOO@numDims?5?$DM?$DN?5MAX_DIMENSIONS?$AA@ 0000000180243750     sfc_debug:sfdb_symbol_scope.obj
 0002:00004770       ??_C@_0EE@CLCFNFKP@Warning?3?5Can?8t?5display?5value?4?5Nu@ 0000000180243770     sfc_debug:sfdb_symbol_scope.obj
 0002:000047b8       ??_C@_0BB@NPDHFBEP@valuePtr?5?$CB?$DN?5NULL?$AA@ 00000001802437b8     sfc_debug:sfdb_symbol_scope.obj
 0002:000047d0       ??_C@_0O@CHHKIHJE@chart?5?$CB?$DN?5NULL?$AA@ 00000001802437d0     sfc_debug:sfdb_symbol_scope.obj
 0002:000047e0       ??_C@_0CB@PFGINMAC@dataInfo?5?$CG?$CG?5data?5?$CG?$CG?5st?5?$CG?$CG?5i?5?$DO?$DN?50@ 00000001802437e0     sfc_debug:sfdb_symbol_scope.obj
 0002:00004804       ??_C@_02PINLEBJB@fi?$AA@   0000000180243804     sfc_debug:sfdb_symbol_scope.obj
 0002:00004808       ??_C@_06FDANFAAP@sim2fi?$AA@ 0000000180243808     sfc_debug:sfdb_symbol_scope.obj
 0002:00004810       ??_C@_0BF@KFJKGDMO@Unrecognized?5symbol?4?$AA@ 0000000180243810     sfc_debug:sfdb_symbol_scope.obj
 0002:00004828       ??_C@_0L@INJGJGAM@?5?$CIcomplex?$CJ?$AA@ 0000000180243828     sfc_debug:sfdb_symbol_scope.obj
 0002:00004838       ??_C@_0O@MHGLJPE@fixpt?5?$CI?$CFs?5?$CFs?$CJ?$AA@ 0000000180243838     sfc_debug:sfdb_symbol_scope.obj
 0002:00004848       ??_C@_08FFKICJMO@?$CFs?$CL?$CF?416g?$AA@ 0000000180243848     sfc_debug:sfdb_symbol_scope.obj
 0002:00004854       ??_C@_02EPPPECEI@SI?$AA@   0000000180243854     sfc_debug:sfdb_symbol_scope.obj
 0002:00004858       ??_C@_09LKFGHFHF@?$CFs?$CI2?$FO?$CFd?$CJ?$CK?$AA@ 0000000180243858     sfc_debug:sfdb_symbol_scope.obj
 0002:00004864       ??_C@_06KJECHFDK@?$CF?416g?$CK?$AA@ 0000000180243864     sfc_debug:sfdb_symbol_scope.obj
 0002:0000486c       ??_C@_02IJPJFKDF@ml?$AA@   000000018024386c     sfc_debug:sfdb_symbol_scope.obj
 0002:00004870       ??_C@_0O@NJOJHIHO@logical?5array?$AA@ 0000000180243870     sfc_debug:sfdb_symbol_scope.obj
 0002:00004880       ??_C@_0L@MDMKKENH@char?5array?$AA@ 0000000180243880     sfc_debug:sfdb_symbol_scope.obj
 0002:00004890       ??_C@_0N@DGCGENML@uint32?5array?$AA@ 0000000180243890     sfc_debug:sfdb_symbol_scope.obj
 0002:000048a0       ??_C@_0M@OFFMACLB@int32?5array?$AA@ 00000001802438a0     sfc_debug:sfdb_symbol_scope.obj
 0002:000048b0       ??_C@_0N@JMJKGLLH@uint16?5array?$AA@ 00000001802438b0     sfc_debug:sfdb_symbol_scope.obj
 0002:000048c0       ??_C@_0M@EPOACEMN@int16?5array?$AA@ 00000001802438c0     sfc_debug:sfdb_symbol_scope.obj
 0002:000048d0       ??_C@_0M@NOMKNEGI@uint8?5array?$AA@ 00000001802438d0     sfc_debug:sfdb_symbol_scope.obj
 0002:000048e0       ??_C@_0L@HCHBFFAP@int8?5array?$AA@ 00000001802438e0     sfc_debug:sfdb_symbol_scope.obj
 0002:000048f0       ??_C@_0N@KIFCNMIF@single?5array?$AA@ 00000001802438f0     sfc_debug:sfdb_symbol_scope.obj
 0002:00004900       ??_C@_0N@OFOFFBCM@double?5array?$AA@ 0000000180243900     sfc_debug:sfdb_symbol_scope.obj
 0002:00004910       ??_C@_04BIAHPGJI@?$CFdx1?$AA@ 0000000180243910     sfc_debug:sfdb_symbol_scope.obj
 0002:00004918       ??_C@_04CADIJHHA@?$CFd?9D?$AA@ 0000000180243918     sfc_debug:sfdb_symbol_scope.obj
 0002:00004920       ??_C@_05JIPKJPMI@?$CFs?$CFdx?$AA@ 0000000180243920     sfc_debug:sfdb_symbol_scope.obj
 0002:00004928       ??_C@_07CIFAGBMG@unknown?$AA@ 0000000180243928     sfc_debug:sfdb_symbol_scope.obj
 0002:00004930       ??_C@_05ENKANFLO@class?$AA@ 0000000180243930     sfc_debug:sfdb_symbol_scope.obj
 0002:00004938       ??_C@_05FBJAGGIG@bytes?$AA@ 0000000180243938     sfc_debug:sfdb_symbol_scope.obj
 0002:00004940       ??_C@_04MEMAJGDJ@name?$AA@ 0000000180243940     sfc_debug:sfdb_symbol_scope.obj
 0002:00004948       ??_C@_0CF@NELOECCL@coverageVector?9?$DOlength?$DOcoverageI@ 0000000180243948     sfc_debug:sfdb_coverage.obj
 0002:00004970       ??_C@_0BA@CBMBNBFB@sfdb_coverage?4c?$AA@ 0000000180243970     sfc_debug:sfdb_coverage.obj
 0002:00004980       ??_C@_0BF@FHBODGMA@transitionActionData?$AA@ 0000000180243980     sfc_debug:sfdb_coverage.obj
 0002:00004998       ??_C@_0BE@FOEHFHL@conditionActionData?$AA@ 0000000180243998     sfc_debug:sfdb_coverage.obj
 0002:000049b0       ??_C@_09GAFONGPE@guardData?$AA@ 00000001802439b0     sfc_debug:sfdb_coverage.obj
 0002:000049c0       ??_C@_0M@FEGFDJFB@triggerData?$AA@ 00000001802439c0     sfc_debug:sfdb_coverage.obj
 0002:000049d0       ??_C@_0BE@DDIOFNHN@endTransitionAction?$AA@ 00000001802439d0     sfc_debug:sfdb_coverage.obj
 0002:000049e8       ??_C@_0BD@BICKLGDM@endConditionAction?$AA@ 00000001802439e8     sfc_debug:sfdb_coverage.obj
 0002:00004a00       ??_C@_08EDILCCFF@endGuard?$AA@ 0000000180243a00     sfc_debug:sfdb_coverage.obj
 0002:00004a10       ??_C@_0L@CAMMIEPG@endTrigger?$AA@ 0000000180243a10     sfc_debug:sfdb_coverage.obj
 0002:00004a20       ??_C@_0BG@OPNNMDEH@startTransitionAction?$AA@ 0000000180243a20     sfc_debug:sfdb_coverage.obj
 0002:00004a38       ??_C@_0BF@JNLJEDBC@startConditionAction?$AA@ 0000000180243a38     sfc_debug:sfdb_coverage.obj
 0002:00004a50       ??_C@_0L@EHEBHPKB@startGuard?$AA@ 0000000180243a50     sfc_debug:sfdb_coverage.obj
 0002:00004a60       ??_C@_0N@EFMGIJMM@startTrigger?$AA@ 0000000180243a60     sfc_debug:sfdb_coverage.obj
 0002:00004a70       ??_C@_07HIPHOHKK@endExit?$AA@ 0000000180243a70     sfc_debug:sfdb_coverage.obj
 0002:00004a78       ??_C@_09KNNJHBLO@endDuring?$AA@ 0000000180243a78     sfc_debug:sfdb_coverage.obj
 0002:00004a88       ??_C@_08IBNIOOHM@endEntry?$AA@ 0000000180243a88     sfc_debug:sfdb_coverage.obj
 0002:00004a98       ??_C@_09GJIMAGCM@startExit?$AA@ 0000000180243a98     sfc_debug:sfdb_coverage.obj
 0002:00004aa8       ??_C@_0M@BHANINOG@startDuring?$AA@ 0000000180243aa8     sfc_debug:sfdb_coverage.obj
 0002:00004ab8       ??_C@_0L@IFBCLDII@startEntry?$AA@ 0000000180243ab8     sfc_debug:sfdb_coverage.obj
 0002:00004ac8       ??_C@_08PPNNBHPL@exitData?$AA@ 0000000180243ac8     sfc_debug:sfdb_coverage.obj
 0002:00004ad8       ??_C@_0L@LKGLEJGJ@duringData?$AA@ 0000000180243ad8     sfc_debug:sfdb_coverage.obj
 0002:00004ae8       ??_C@_09MBCNPEGP@entryData?$AA@ 0000000180243ae8     sfc_debug:sfdb_coverage.obj
 0002:00004af8       ??_C@_09BJOJOOIO@instances?$AA@ 0000000180243af8     sfc_debug:sfdb_coverage.obj
 0002:00004b08       ??_C@_0M@LCNCLDLF@transitions?$AA@ 0000000180243b08     sfc_debug:sfdb_coverage.obj
 0002:00004b18       ??_C@_0DN@FAEHHEAM@?$CIscript?9?$DObm?4breakpoints?$CJ?4length?$DO@ 0000000180243b18     sfc_debug:sfdb_breakpoints.obj
 0002:00004b58       ??_C@_0BD@BABBLJFB@sfdb_breakpoints?4c?$AA@ 0000000180243b58     sfc_debug:sfdb_breakpoints.obj
 0002:00004b70       ??_C@_0P@IGHKOFID@get_script_bps?$AA@ 0000000180243b70     sfc_debug:sfdb_breakpoints.obj
 0002:00004b80       ??_C@_0BA@ICOJJJDD@get_all_scripts?$AA@ 0000000180243b80     sfc_debug:sfdb_breakpoints.obj
 0002:00004b90       ??_C@_0EI@EDDFBGGP@?$CIunsigned?5int?$CJ?$CImxGetM?$CIplhs?$FL0?$FN?$CJ?5?$CK@ 0000000180243b90     sfc_debug:sfdb_breakpoints.obj
 0002:00004bd8       ??_C@_0BE@PNADEEOB@get_eml_line_counts?$AA@ 0000000180243bd8     sfc_debug:sfdb_breakpoints.obj
 0002:00004bf0       ??_C@_0CC@JPCLBDPC@mxGetNumberOfElements?$CIplhs?$FL0?$FN?$CJ?$DN?$DN@ 0000000180243bf0     sfc_debug:sfdb_breakpoints.obj
 0002:00004c18       ??_C@_0P@EHJHKHLL@get_global_bps?$AA@ 0000000180243c18     sfc_debug:sfdb_breakpoints.obj
 0002:00004c28       ??_C@_0CE@NADCJCF@?$CIchart?9?$DObm?4chart?$FLtagType?$FN?$CJ?4lengt@ 0000000180243c28     sfc_debug:sfdb_breakpoints.obj
 0002:00004c50       ??_C@_0CP@JOFCMAIP@?$CIchart?9?$DObm?4state?$FLtagType?$FN?$CJ?4lengt@ 0000000180243c50     sfc_debug:sfdb_breakpoints.obj
 0002:00004c80       ??_C@_0DE@GNPGALGC@?$CIchart?9?$DObm?4transition?$FLtagType?$FN?$CJ?4@ 0000000180243c80     sfc_debug:sfdb_breakpoints.obj
 0002:00004cb8       ??_C@_0DB@PCFIPMMH@?$CImachine?9?$DObm?4event?$FLtagType?$FN?$CJ?4len@ 0000000180243cb8     sfc_debug:sfdb_breakpoints.obj
 0002:00004cf0       ??_C@_0CP@FENPPAOI@?$CIchart?9?$DObm?4event?$FLtagType?$FN?$CJ?4lengt@ 0000000180243cf0     sfc_debug:sfdb_breakpoints.obj
 0002:00004d20       ??_C@_0CH@EKAIFOIL@numCols?5?$DN?$DN?5TOTAL_EVENT_BREAKPOIN@ 0000000180243d20     sfc_debug:sfdb_breakpoints.obj
 0002:00004d48       ??_C@_0CA@BECONEOF@numRows?5?$DN?$DN?5machine?9?$DOevent?4count?$AA@ 0000000180243d48     sfc_debug:sfdb_breakpoints.obj
 0002:00004d68       ??_C@_07HCEBIAFG@get_bps?$AA@ 0000000180243d68     sfc_debug:sfdb_breakpoints.obj
 0002:00004d70       ??_C@_0BI@LFGGAIIJ@?$CIbps?$CJ?4length?$DObreakPoint?$AA@ 0000000180243d70     sfc_debug:sfdb_breakpoints.obj
 0002:00004d88       ??_C@_0N@CNOINHPD@numCols?5?$DN?$DN?51?$AA@ 0000000180243d88     sfc_debug:sfdb_breakpoints.obj
 0002:00004d98       ??_C@_0M@NNPJEEAE@get_eml_bps?$AA@ 0000000180243d98     sfc_debug:sfdb_breakpoints.obj
 0002:00004da8       ??_C@_0BO@CDPAPHEM@numRows?5?$DN?$DN?5chart?9?$DOevent?4count?$AA@ 0000000180243da8     sfc_debug:sfdb_breakpoints.obj
 0002:00004dc8       ??_C@_0CM@FFJFHNEO@numCols?5?$DN?$DN?5TOTAL_TRANSITION_BREA@ 0000000180243dc8     sfc_debug:sfdb_breakpoints.obj
 0002:00004df8       ??_C@_0CD@IOIMPEBN@numRows?5?$DN?$DN?5chart?9?$DOtransition?4cou@ 0000000180243df8     sfc_debug:sfdb_breakpoints.obj
 0002:00004e20       ??_C@_0CH@JEIBGOOJ@numCols?5?$DN?$DN?5TOTAL_STATE_BREAKPOIN@ 0000000180243e20     sfc_debug:sfdb_breakpoints.obj
 0002:00004e48       ??_C@_0BO@BIKNFPLB@numRows?5?$DN?$DN?5chart?9?$DOstate?4count?$AA@ 0000000180243e48     sfc_debug:sfdb_breakpoints.obj
 0002:00004e68       ??_C@_0CH@BNLENKGD@numCols?5?$DN?$DN?5TOTAL_CHART_BREAKPOIN@ 0000000180243e68     sfc_debug:sfdb_breakpoints.obj
 0002:00004e90       ??_C@_0N@MEFFBAFI@numRows?5?$DN?$DN?51?$AA@ 0000000180243e90     sfc_debug:sfdb_breakpoints.obj
 0002:00004ea0       ??_C@_0BJ@BLHBHILO@sfdb_state_consistency?4c?$AA@ 0000000180243ea0     sfc_debug:sfdb_state_consistency.obj
 0002:00004ec0       ??_C@_09LHFAMEGK@errorType?$AA@ 0000000180243ec0     sfc_debug:sfdb_state_consistency.obj
 0002:00004ed0       ??_C@_08DLAIKNBK@objectId?$AA@ 0000000180243ed0     sfc_debug:sfdb_state_consistency.obj
 0002:00004ee0       ??_C@_0L@GODCDFEF@objectType?$AA@ 0000000180243ee0     sfc_debug:sfdb_state_consistency.obj
 0002:00004ef0       ??_C@_0L@CCGENCKP@errorStack?$AA@ 0000000180243ef0     sfc_debug:sfdb_state_consistency.obj
 0002:00004f00       ??_C@_0O@PPHMCEKO@cycleDetected?$AA@ 0000000180243f00     sfc_debug:sfdb_call_stack.obj
 0002:00004f10       ??_C@_0N@MGKMJLEK@cycleStarted?$AA@ 0000000180243f10     sfc_debug:sfdb_call_stack.obj
 0002:00004f20       ??_C@_07BNCILGOA@tagType?$AA@ 0000000180243f20     sfc_debug:sfdb_call_stack.obj
 0002:00004f28       ??_C@_0L@POKIGEMP@eventScope?$AA@ 0000000180243f28     sfc_debug:sfdb_call_stack.obj
 0002:00004f38       ??_C@_0M@LKJJPLIC@traceVector?$AA@ 0000000180243f38     sfc_debug:sfdb_call_stack.obj
 0002:00004f50       ??_C@_0EC@MGCLADPL@?$CIinstance?9?$DOcycleDetection?4transi@ 0000000180243f50     sfc_debug:sfdb_cycle_detection.obj
 0002:00004f98       ??_C@_0BH@ELCAAKDD@sfdb_cycle_detection?4c?$AA@ 0000000180243f98     sfc_debug:sfdb_cycle_detection.obj
 0002:00004fb0       ??_C@_0O@PICIAFIK@newNode?$CB?$DNNULL?$AA@ 0000000180243fb0     sfc_debug:sfdb_cycle_detection.obj
 0002:00004fc0       _pDefaultRawDllMain        0000000180243fc0     MSVCRT:crtdll.obj
 0002:00004fc0       _pRawDllMain               0000000180243fc0     MSVCRT:crtdll.obj
 0002:00004fd8       ?ProcessDetach@NativeDll@<CrtImplementationDetails>@@0IB 0000000180243fd8     MSVCRT:tncleanup.obj
 0002:00004fdc       ?ProcessAttach@NativeDll@<CrtImplementationDetails>@@0IB 0000000180243fdc     MSVCRT:tncleanup.obj
 0002:00004fe0       ?ThreadAttach@NativeDll@<CrtImplementationDetails>@@0IB 0000000180243fe0     MSVCRT:tncleanup.obj
 0002:00004fe4       ?ThreadDetach@NativeDll@<CrtImplementationDetails>@@0IB 0000000180243fe4     MSVCRT:tncleanup.obj
 0002:00004fe8       ?ProcessVerifier@NativeDll@<CrtImplementationDetails>@@0IB 0000000180243fe8     MSVCRT:tncleanup.obj
 0002:00004ff0       __rtc_iaa                  0000000180243ff0     MSVCRT:_initsect_.obj
 0002:00004ff8       __rtc_izz                  0000000180243ff8     MSVCRT:_initsect_.obj
 0002:00005000       __rtc_taa                  0000000180244000     MSVCRT:_initsect_.obj
 0002:00005008       __rtc_tzz                  0000000180244008     MSVCRT:_initsect_.obj
 0002:0000b94c       __IMPORT_DESCRIPTOR_libmx  000000018024a94c     libmx:libmx.dll
 0002:0000b960       __IMPORT_DESCRIPTOR_libmex 000000018024a960     libmex:libmex.dll
 0002:0000b974       __IMPORT_DESCRIPTOR_libfixedpoint 000000018024a974     libfixedpoint:libfixedpoint.dll
 0002:0000b988       __IMPORT_DESCRIPTOR_libut  000000018024a988     libut:libut.dll
 0002:0000b99c       __IMPORT_DESCRIPTOR_libmwmathutil 000000018024a99c     libmwmathutil:libmwmathutil.dll
 0002:0000b9b0       __IMPORT_DESCRIPTOR_libemlrt 000000018024a9b0     libemlrt:libemlrt.dll
 0002:0000b9c4       __IMPORT_DESCRIPTOR_libmwblascompat32 000000018024a9c4     libmwblascompat32:libmwblascompat32.dll
 0002:0000b9d8       __IMPORT_DESCRIPTOR_MSVCR90 000000018024a9d8     MSVCRT:MSVCR90.dll
 0002:0000b9ec       __IMPORT_DESCRIPTOR_KERNEL32 000000018024a9ec     kernel32:KERNEL32.dll
 0002:0000ba00       __NULL_IMPORT_DESCRIPTOR   000000018024aa00     libmx:libmx.dll
 0003:000583e0       DYNAMIC_DIMENSION          00000001802a43e0     EurlerDynJointVerify_sfun_registry.obj
 0003:000590b8       emlrtContextGlobal         00000001802a50b8     sfc_mex:sfc_mex.obj
 0003:00059140       _fltused                   00000001802a5140     MSVCRT:dllsupp.obj
 0003:00059148       __security_cookie          00000001802a5148     MSVCRT:gs_cookie.obj
 0003:00059150       __security_cookie_complement 00000001802a5150     MSVCRT:gs_cookie.obj
 0003:00059160       __native_dllmain_reason    00000001802a5160     MSVCRT:natstart.obj
 0003:00059164       __native_vcclrit_reason    00000001802a5164     MSVCRT:natstart.obj
 0003:0005ad40       sSFDebuggerInitialized     00000001802a6d40     sfc_debug:sfcdebug.obj
 0003:0005bdf0       ?__type_info_root_node@@3U__type_info_node@@A 00000001802a7df0     MSVCRT:tncleanup.obj
 0003:0005be00       _sfTime_                   00000001802a7e00     <common>
 0003:0005be08       _EurlerDynJointVerifyMachineNumber_ 00000001802a7e08     <common>
 0003:0005be0c       _sfEvent_                  00000001802a7e0c     <common>
 0003:0005be20       gSfComplexDataTypeOffsets  00000001802a7e20     <common>
 0003:0005be80       gSfDataTypeOffsets         00000001802a7e80     <common>
 0003:0005bec8       gMaskBits                  00000001802a7ec8     <common>
 0003:0005bed0       __native_startup_state     00000001802a7ed0     <common>
 0003:0005bed8       __native_startup_lock      00000001802a7ed8     <common>
 0003:0005bee0       __onexitend                00000001802a7ee0     <common>
 0003:0005bee8       __onexitbegin              00000001802a7ee8     <common>
 0003:0005bef0       __dyn_tls_init_callback    00000001802a7ef0     <common>

 entry point at        0001:0023d3e0

 Static symbols

 0001:000003b0       c1_info_helper             00000001800013b0 f   c1_EurlerDynJointVerify.obj
 0001:000021d0       c1_b_info_helper           00000001800031d0 f   c1_EurlerDynJointVerify.obj
 0001:00003b00       mdlProcessParameters_c1_EurlerDynJointVerify 0000000180004b00 f   c1_EurlerDynJointVerify.obj
 0001:00003bc0       initialize_params_c1_EurlerDynJointVerify 0000000180004bc0 f   c1_EurlerDynJointVerify.obj
 0001:00003cb0       mdlSetWorkWidths_c1_EurlerDynJointVerify 0000000180004cb0 f   c1_EurlerDynJointVerify.obj
 0001:00004170       mdlStart_c1_EurlerDynJointVerify 0000000180005170 f   c1_EurlerDynJointVerify.obj
 0001:00004380       init_dsm_address_info      0000000180005380 f   c1_EurlerDynJointVerify.obj
 0001:00004390       sf_get_sim_state_info_c1_EurlerDynJointVerify 0000000180005390 f   c1_EurlerDynJointVerify.obj
 0001:00004450       chart_debug_initialization 0000000180005450 f   c1_EurlerDynJointVerify.obj
 0001:000050f0       init_script_number_translation 00000001800060f0 f   c1_EurlerDynJointVerify.obj
 0001:000051a0       c1_sf_marshall             00000001800061a0 f   c1_EurlerDynJointVerify.obj
 0001:000052e0       c1_b_sf_marshall           00000001800062e0 f   c1_EurlerDynJointVerify.obj
 0001:00005420       c1_c_sf_marshall           0000000180006420 f   c1_EurlerDynJointVerify.obj
 0001:00005550       sf_opaque_initialize_c1_EurlerDynJointVerify 0000000180006550 f   c1_EurlerDynJointVerify.obj
 0001:00005590       initialize_c1_EurlerDynJointVerify 0000000180006590 f   c1_EurlerDynJointVerify.obj
 0001:000055d0       sf_opaque_enable_c1_EurlerDynJointVerify 00000001800065d0 f   c1_EurlerDynJointVerify.obj
 0001:000055f0       enable_c1_EurlerDynJointVerify 00000001800065f0 f   c1_EurlerDynJointVerify.obj
 0001:00005620       sf_opaque_disable_c1_EurlerDynJointVerify 0000000180006620 f   c1_EurlerDynJointVerify.obj
 0001:00005640       disable_c1_EurlerDynJointVerify 0000000180006640 f   c1_EurlerDynJointVerify.obj
 0001:00005670       sf_opaque_gateway_c1_EurlerDynJointVerify 0000000180006670 f   c1_EurlerDynJointVerify.obj
 0001:00005690       sf_c1_EurlerDynJointVerify 0000000180006690 f   c1_EurlerDynJointVerify.obj
 0001:00005960       c1_c1_EurlerDynJointVerify 0000000180006960 f   c1_EurlerDynJointVerify.obj
 0001:000077c0       c1_fwd_kin                 00000001800087c0 f   c1_EurlerDynJointVerify.obj
 0001:0000b1d0       c1_body_Jacobian           000000018000c1d0 f   c1_EurlerDynJointVerify.obj
 0001:0000e6c0       c1_AdjointInv              000000018000f6c0 f   c1_EurlerDynJointVerify.obj
 0001:0000f940       c1_eml_scalar_eg           0000000180010940 f   c1_EurlerDynJointVerify.obj
 0001:0000f950       c1_eml_matlab_zgetrf       0000000180010950 f   c1_EurlerDynJointVerify.obj
 0001:000107a0       c1_eps                     00000001800117a0 f   c1_EurlerDynJointVerify.obj
 0001:000107b0       c1_eml_ixamax              00000001800117b0 f   c1_EurlerDynJointVerify.obj
 0001:000108c0       c1_ceval_ixamax            00000001800118c0 f   c1_EurlerDynJointVerify.obj
 0001:00010990       c1_ceval_xswap             0000000180011990 f   c1_EurlerDynJointVerify.obj
 0001:00010b40       c1_ceval_xger              0000000180011b40 f   c1_EurlerDynJointVerify.obj
 0001:00010de0       c1_eml_warning             0000000180011de0 f   c1_EurlerDynJointVerify.obj
 0001:00010fc0       c1_eml_blas_xtrsm          0000000180011fc0 f   c1_EurlerDynJointVerify.obj
 0001:00011150       c1_ceval_xtrsm             0000000180012150 f   c1_EurlerDynJointVerify.obj
 0001:00011370       c1_b_eml_blas_xtrsm        0000000180012370 f   c1_EurlerDynJointVerify.obj
 0001:00011500       c1_b_ceval_xtrsm           0000000180012500 f   c1_EurlerDynJointVerify.obj
 0001:00011720       c1_b_eml_scalar_eg         0000000180012720 f   c1_EurlerDynJointVerify.obj
 0001:00011730       c1_d_sf_marshall           0000000180012730 f   c1_EurlerDynJointVerify.obj
 0001:000117e0       c1_e_sf_marshall           00000001800127e0 f   c1_EurlerDynJointVerify.obj
 0001:000119f0       c1_f_sf_marshall           00000001800129f0 f   c1_EurlerDynJointVerify.obj
 0001:00011be0       c1_g_sf_marshall           0000000180012be0 f   c1_EurlerDynJointVerify.obj
 0001:00011d30       c1_h_sf_marshall           0000000180012d30 f   c1_EurlerDynJointVerify.obj
 0001:00011f30       sf_opaque_get_sim_state_c1_EurlerDynJointVerify 0000000180012f30 f   c1_EurlerDynJointVerify.obj
 0001:00011f50       sf_internal_get_sim_state_c1_EurlerDynJointVerify 0000000180012f50 f   c1_EurlerDynJointVerify.obj
 0001:00012040       get_sim_state_c1_EurlerDynJointVerify 0000000180013040 f   c1_EurlerDynJointVerify.obj
 0001:00012270       sf_opaque_set_sim_state_c1_EurlerDynJointVerify 0000000180013270 f   c1_EurlerDynJointVerify.obj
 0001:000122a0       sf_internal_set_sim_state_c1_EurlerDynJointVerify 00000001800132a0 f   c1_EurlerDynJointVerify.obj
 0001:000123c0       set_sim_state_c1_EurlerDynJointVerify 00000001800133c0 f   c1_EurlerDynJointVerify.obj
 0001:000124e0       c1_update_debugger_state_c1_EurlerDynJointVerify 00000001800134e0 f   c1_EurlerDynJointVerify.obj
 0001:000124f0       c1_emlrt_marshallIn        00000001800134f0 f   c1_EurlerDynJointVerify.obj
 0001:000125c0       c1_b_emlrt_marshallIn      00000001800135c0 f   c1_EurlerDynJointVerify.obj
 0001:00012650       sf_opaque_terminate_c1_EurlerDynJointVerify 0000000180013650 f   c1_EurlerDynJointVerify.obj
 0001:000126d0       finalize_c1_EurlerDynJointVerify 00000001800136d0 f   c1_EurlerDynJointVerify.obj
 0001:000126e0       sf_opaque_init_subchart_simstructs 00000001800136e0 f   c1_EurlerDynJointVerify.obj
 0001:00012700       compInitSubchartSimstructsFcn_c1_EurlerDynJointVerify 0000000180013700 f   c1_EurlerDynJointVerify.obj
 0001:00012710       mdlRTW_c1_EurlerDynJointVerify 0000000180013710 f   c1_EurlerDynJointVerify.obj
 0001:00012b90       c2_info_helper             0000000180013b90 f   c2_EurlerDynJointVerify.obj
 0001:000149b0       c2_b_info_helper           00000001800159b0 f   c2_EurlerDynJointVerify.obj
 0001:00016cd0       mdlProcessParameters_c2_EurlerDynJointVerify 0000000180017cd0 f   c2_EurlerDynJointVerify.obj
 0001:00016d90       initialize_params_c2_EurlerDynJointVerify 0000000180017d90 f   c2_EurlerDynJointVerify.obj
 0001:00016f30       mdlSetWorkWidths_c2_EurlerDynJointVerify 0000000180017f30 f   c2_EurlerDynJointVerify.obj
 0001:00017470       mdlStart_c2_EurlerDynJointVerify 0000000180018470 f   c2_EurlerDynJointVerify.obj
 0001:00017690       init_dsm_address_info      0000000180018690 f   c2_EurlerDynJointVerify.obj
 0001:000176a0       sf_get_sim_state_info_c2_EurlerDynJointVerify 00000001800186a0 f   c2_EurlerDynJointVerify.obj
 0001:00017760       chart_debug_initialization 0000000180018760 f   c2_EurlerDynJointVerify.obj
 0001:00018e10       init_script_number_translation 0000000180019e10 f   c2_EurlerDynJointVerify.obj
 0001:00018f20       c2_sf_marshall             0000000180019f20 f   c2_EurlerDynJointVerify.obj
 0001:00019070       c2_b_sf_marshall           000000018001a070 f   c2_EurlerDynJointVerify.obj
 0001:000191d0       c2_c_sf_marshall           000000018001a1d0 f   c2_EurlerDynJointVerify.obj
 0001:000193d0       c2_d_sf_marshall           000000018001a3d0 f   c2_EurlerDynJointVerify.obj
 0001:000194f0       sf_opaque_initialize_c2_EurlerDynJointVerify 000000018001a4f0 f   c2_EurlerDynJointVerify.obj
 0001:00019530       initialize_c2_EurlerDynJointVerify 000000018001a530 f   c2_EurlerDynJointVerify.obj
 0001:00019570       sf_opaque_enable_c2_EurlerDynJointVerify 000000018001a570 f   c2_EurlerDynJointVerify.obj
 0001:00019590       enable_c2_EurlerDynJointVerify 000000018001a590 f   c2_EurlerDynJointVerify.obj
 0001:000195c0       sf_opaque_disable_c2_EurlerDynJointVerify 000000018001a5c0 f   c2_EurlerDynJointVerify.obj
 0001:000195e0       disable_c2_EurlerDynJointVerify 000000018001a5e0 f   c2_EurlerDynJointVerify.obj
 0001:00019610       sf_opaque_gateway_c2_EurlerDynJointVerify 000000018001a610 f   c2_EurlerDynJointVerify.obj
 0001:00019630       sf_c2_EurlerDynJointVerify 000000018001a630 f   c2_EurlerDynJointVerify.obj
 0001:0001a250       c2_inv_kin                 000000018001b250 f   c2_EurlerDynJointVerify.obj
 0001:00021760       c2_cross                   0000000180022760 f   c2_EurlerDynJointVerify.obj
 0001:00021960       c2_all                     0000000180022960 f   c2_EurlerDynJointVerify.obj
 0001:00021ac0       c2_mrdivide                0000000180022ac0 f   c2_EurlerDynJointVerify.obj
 0001:00022c20       c2_eml_matlab_zgetrf       0000000180023c20 f   c2_EurlerDynJointVerify.obj
 0001:00023ab0       c2_eps                     0000000180024ab0 f   c2_EurlerDynJointVerify.obj
 0001:00023ac0       c2_eml_ixamax              0000000180024ac0 f   c2_EurlerDynJointVerify.obj
 0001:00023bb0       c2_ceval_ixamax            0000000180024bb0 f   c2_EurlerDynJointVerify.obj
 0001:00023c80       c2_ceval_xswap             0000000180024c80 f   c2_EurlerDynJointVerify.obj
 0001:00023e50       c2_ceval_xger              0000000180024e50 f   c2_EurlerDynJointVerify.obj
 0001:00024110       c2_eml_warning             0000000180025110 f   c2_EurlerDynJointVerify.obj
 0001:000242c0       c2_b_eml_scalar_eg         00000001800252c0 f   c2_EurlerDynJointVerify.obj
 0001:000242d0       c2_eml_xtrsm               00000001800252d0 f   c2_EurlerDynJointVerify.obj
 0001:00024af0       c2_c_eml_scalar_eg         0000000180025af0 f   c2_EurlerDynJointVerify.obj
 0001:00024b00       c2_eml_blas_xtrsm          0000000180025b00 f   c2_EurlerDynJointVerify.obj
 0001:00025b20       c2_d_eml_scalar_eg         0000000180026b20 f   c2_EurlerDynJointVerify.obj
 0001:00025b30       c2_atan2                   0000000180026b30 f   c2_EurlerDynJointVerify.obj
 0001:00025b90       c2_eml_scalar_eg           0000000180026b90 f   c2_EurlerDynJointVerify.obj
 0001:00025ba0       c2_isInRange               0000000180026ba0 f   c2_EurlerDynJointVerify.obj
 0001:00025f20       c2_expWre                  0000000180026f20 f   c2_EurlerDynJointVerify.obj
 0001:00027540       c2_length                  0000000180028540 f   c2_EurlerDynJointVerify.obj
 0001:00027800       c2_eye                     0000000180028800 f   c2_EurlerDynJointVerify.obj
 0001:000279b0       c2_expRot                  00000001800289b0 f   c2_EurlerDynJointVerify.obj
 0001:000288e0       c2_e_eml_scalar_eg         00000001800298e0 f   c2_EurlerDynJointVerify.obj
 0001:000288f0       c2_f_eml_scalar_eg         00000001800298f0 f   c2_EurlerDynJointVerify.obj
 0001:00028900       c2_subPro3                 0000000180029900 f   c2_EurlerDynJointVerify.obj
 0001:0002b750       c2_g_eml_scalar_eg         000000018002c750 f   c2_EurlerDynJointVerify.obj
 0001:0002b760       c2_ceval_xdot              000000018002c760 f   c2_EurlerDynJointVerify.obj
 0001:0002b910       c2_mpower                  000000018002c910 f   c2_EurlerDynJointVerify.obj
 0001:0002b950       c2_power                   000000018002c950 f   c2_EurlerDynJointVerify.obj
 0001:0002ba00       c2_eml_error               000000018002ca00 f   c2_EurlerDynJointVerify.obj
 0001:0002bbb0       c2_norm                    000000018002cbb0 f   c2_EurlerDynJointVerify.obj
 0001:0002bcf0       c2_ceval_xnrm2             000000018002ccf0 f   c2_EurlerDynJointVerify.obj
 0001:0002bdc0       c2_b_eml_error             000000018002cdc0 f   c2_EurlerDynJointVerify.obj
 0001:0002bf80       c2_b_isInRange             000000018002cf80 f   c2_EurlerDynJointVerify.obj
 0001:0002c4e0       c2_any                     000000018002d4e0 f   c2_EurlerDynJointVerify.obj
 0001:0002c6f0       c2_subPro1                 000000018002d6f0 f   c2_EurlerDynJointVerify.obj
 0001:0002de60       c2_subPro2                 000000018002ee60 f   c2_EurlerDynJointVerify.obj
 0001:00032d80       c2_findCommon              0000000180033d80 f   c2_EurlerDynJointVerify.obj
 0001:000344a0       c2_det                     00000001800354a0 f   c2_EurlerDynJointVerify.obj
 0001:00034860       c2_b_eml_matlab_zgetrf     0000000180035860 f   c2_EurlerDynJointVerify.obj
 0001:000350c0       c2_b_eml_ixamax            00000001800360c0 f   c2_EurlerDynJointVerify.obj
 0001:00035180       c2_b_ceval_ixamax          0000000180036180 f   c2_EurlerDynJointVerify.obj
 0001:00035250       c2_b_ceval_xswap           0000000180036250 f   c2_EurlerDynJointVerify.obj
 0001:00035420       c2_b_ceval_xger            0000000180036420 f   c2_EurlerDynJointVerify.obj
 0001:000356e0       c2_c_eml_error             00000001800366e0 f   c2_EurlerDynJointVerify.obj
 0001:00035890       c2_b_subPro1               0000000180036890 f   c2_EurlerDynJointVerify.obj
 0001:00036ff0       c2_c_subPro1               0000000180037ff0 f   c2_EurlerDynJointVerify.obj
 0001:00038750       c2_e_sf_marshall           0000000180039750 f   c2_EurlerDynJointVerify.obj
 0001:00038800       c2_f_sf_marshall           0000000180039800 f   c2_EurlerDynJointVerify.obj
 0001:000389f0       c2_g_sf_marshall           00000001800399f0 f   c2_EurlerDynJointVerify.obj
 0001:00038c00       c2_h_sf_marshall           0000000180039c00 f   c2_EurlerDynJointVerify.obj
 0001:00038cb0       c2_i_sf_marshall           0000000180039cb0 f   c2_EurlerDynJointVerify.obj
 0001:00038dd0       c2_j_sf_marshall           0000000180039dd0 f   c2_EurlerDynJointVerify.obj
 0001:00038ef0       c2_k_sf_marshall           0000000180039ef0 f   c2_EurlerDynJointVerify.obj
 0001:00039000       c2_l_sf_marshall           000000018003a000 f   c2_EurlerDynJointVerify.obj
 0001:000391e0       sf_opaque_get_sim_state_c2_EurlerDynJointVerify 000000018003a1e0 f   c2_EurlerDynJointVerify.obj
 0001:00039200       sf_internal_get_sim_state_c2_EurlerDynJointVerify 000000018003a200 f   c2_EurlerDynJointVerify.obj
 0001:000392f0       get_sim_state_c2_EurlerDynJointVerify 000000018003a2f0 f   c2_EurlerDynJointVerify.obj
 0001:00039520       sf_opaque_set_sim_state_c2_EurlerDynJointVerify 000000018003a520 f   c2_EurlerDynJointVerify.obj
 0001:00039550       sf_internal_set_sim_state_c2_EurlerDynJointVerify 000000018003a550 f   c2_EurlerDynJointVerify.obj
 0001:00039670       set_sim_state_c2_EurlerDynJointVerify 000000018003a670 f   c2_EurlerDynJointVerify.obj
 0001:000397a0       c2_update_debugger_state_c2_EurlerDynJointVerify 000000018003a7a0 f   c2_EurlerDynJointVerify.obj
 0001:000397b0       c2_emlrt_marshallIn        000000018003a7b0 f   c2_EurlerDynJointVerify.obj
 0001:00039880       c2_b_emlrt_marshallIn      000000018003a880 f   c2_EurlerDynJointVerify.obj
 0001:00039910       sf_opaque_terminate_c2_EurlerDynJointVerify 000000018003a910 f   c2_EurlerDynJointVerify.obj
 0001:00039990       finalize_c2_EurlerDynJointVerify 000000018003a990 f   c2_EurlerDynJointVerify.obj
 0001:000399a0       sf_opaque_init_subchart_simstructs 000000018003a9a0 f   c2_EurlerDynJointVerify.obj
 0001:000399c0       compInitSubchartSimstructsFcn_c2_EurlerDynJointVerify 000000018003a9c0 f   c2_EurlerDynJointVerify.obj
 0001:000399d0       mdlRTW_c2_EurlerDynJointVerify 000000018003a9d0 f   c2_EurlerDynJointVerify.obj
 0001:00039e40       c3_info_helper             000000018003ae40 f   c3_EurlerDynJointVerify.obj
 0001:0003bc60       c3_b_info_helper           000000018003cc60 f   c3_EurlerDynJointVerify.obj
 0001:0003e520       mdlProcessParameters_c3_EurlerDynJointVerify 000000018003f520 f   c3_EurlerDynJointVerify.obj
 0001:0003e5e0       initialize_params_c3_EurlerDynJointVerify 000000018003f5e0 f   c3_EurlerDynJointVerify.obj
 0001:0003ea10       mdlSetWorkWidths_c3_EurlerDynJointVerify 000000018003fa10 f   c3_EurlerDynJointVerify.obj
 0001:0003f180       mdlStart_c3_EurlerDynJointVerify 0000000180040180 f   c3_EurlerDynJointVerify.obj
 0001:0003f3a0       init_dsm_address_info      00000001800403a0 f   c3_EurlerDynJointVerify.obj
 0001:0003f3b0       sf_get_sim_state_info_c3_EurlerDynJointVerify 00000001800403b0 f   c3_EurlerDynJointVerify.obj
 0001:0003f470       chart_debug_initialization 0000000180040470 f   c3_EurlerDynJointVerify.obj
 0001:00040d30       init_script_number_translation 0000000180041d30 f   c3_EurlerDynJointVerify.obj
 0001:00040e20       c3_sf_marshall             0000000180041e20 f   c3_EurlerDynJointVerify.obj
 0001:00040f80       c3_b_sf_marshall           0000000180041f80 f   c3_EurlerDynJointVerify.obj
 0001:000410c0       c3_c_sf_marshall           00000001800420c0 f   c3_EurlerDynJointVerify.obj
 0001:00041210       c3_d_sf_marshall           0000000180042210 f   c3_EurlerDynJointVerify.obj
 0001:00041370       c3_e_sf_marshall           0000000180042370 f   c3_EurlerDynJointVerify.obj
 0001:00041580       sf_opaque_initialize_c3_EurlerDynJointVerify 0000000180042580 f   c3_EurlerDynJointVerify.obj
 0001:000415c0       initialize_c3_EurlerDynJointVerify 00000001800425c0 f   c3_EurlerDynJointVerify.obj
 0001:00041600       sf_opaque_enable_c3_EurlerDynJointVerify 0000000180042600 f   c3_EurlerDynJointVerify.obj
 0001:00041620       enable_c3_EurlerDynJointVerify 0000000180042620 f   c3_EurlerDynJointVerify.obj
 0001:00041650       sf_opaque_disable_c3_EurlerDynJointVerify 0000000180042650 f   c3_EurlerDynJointVerify.obj
 0001:00041670       disable_c3_EurlerDynJointVerify 0000000180042670 f   c3_EurlerDynJointVerify.obj
 0001:000416a0       sf_opaque_gateway_c3_EurlerDynJointVerify 00000001800426a0 f   c3_EurlerDynJointVerify.obj
 0001:000416c0       sf_c3_EurlerDynJointVerify 00000001800426c0 f   c3_EurlerDynJointVerify.obj
 0001:00042e30       c3_DynEuler                0000000180043e30 f   c3_EurlerDynJointVerify.obj
 0001:0005ff70       c3_expg                    0000000180060f70 f   c3_EurlerDynJointVerify.obj
 0001:00061bb0       c3_norm                    0000000180062bb0 f   c3_EurlerDynJointVerify.obj
 0001:00061ce0       c3_ceval_xnrm2             0000000180062ce0 f   c3_EurlerDynJointVerify.obj
 0001:00061db0       c3_eps                     0000000180062db0 f   c3_EurlerDynJointVerify.obj
 0001:00061dc0       c3_eye                     0000000180062dc0 f   c3_EurlerDynJointVerify.obj
 0001:00061f80       c3_isVariableSizing        0000000180062f80 f   c3_EurlerDynJointVerify.obj
 0001:00061f90       c3_expr                    0000000180062f90 f   c3_EurlerDynJointVerify.obj
 0001:000630f0       c3_hat                     00000001800640f0 f   c3_EurlerDynJointVerify.obj
 0001:00063360       c3_matrix_to_integer_power 0000000180064360 f   c3_EurlerDynJointVerify.obj
 0001:000641e0       c3_b_eml_scalar_eg         00000001800651e0 f   c3_EurlerDynJointVerify.obj
 0001:000641f0       c3_c_eml_scalar_eg         00000001800651f0 f   c3_EurlerDynJointVerify.obj
 0001:00064200       c3_inv3x3                  0000000180065200 f   c3_EurlerDynJointVerify.obj
 0001:00065830       c3_b_norm                  0000000180066830 f   c3_EurlerDynJointVerify.obj
 0001:00065b30       c3_eml_warning             0000000180066b30 f   c3_EurlerDynJointVerify.obj
 0001:00065d20       c3_b_eml_warning           0000000180066d20 f   c3_EurlerDynJointVerify.obj
 0001:00065f90       c3_power                   0000000180066f90 f   c3_EurlerDynJointVerify.obj
 0001:00066040       c3_eml_scalar_eg           0000000180067040 f   c3_EurlerDynJointVerify.obj
 0001:00066050       c3_eml_error               0000000180067050 f   c3_EurlerDynJointVerify.obj
 0001:00066240       c3_d_eml_scalar_eg         0000000180067240 f   c3_EurlerDynJointVerify.obj
 0001:00066250       c3_e_eml_scalar_eg         0000000180067250 f   c3_EurlerDynJointVerify.obj
 0001:00066260       c3_mldivide                0000000180067260 f   c3_EurlerDynJointVerify.obj
 0001:00066ed0       c3_eml_matlab_zgetrf       0000000180067ed0 f   c3_EurlerDynJointVerify.obj
 0001:00067d40       c3_b_eps                   0000000180068d40 f   c3_EurlerDynJointVerify.obj
 0001:00067d50       c3_eml_ixamax              0000000180068d50 f   c3_EurlerDynJointVerify.obj
 0001:00067e60       c3_ceval_ixamax            0000000180068e60 f   c3_EurlerDynJointVerify.obj
 0001:00067f30       c3_ceval_xswap             0000000180068f30 f   c3_EurlerDynJointVerify.obj
 0001:00068100       c3_ceval_xger              0000000180069100 f   c3_EurlerDynJointVerify.obj
 0001:000683c0       c3_eml_xtrsm               00000001800693c0 f   c3_EurlerDynJointVerify.obj
 0001:00068bd0       c3_f_eml_scalar_eg         0000000180069bd0 f   c3_EurlerDynJointVerify.obj
 0001:00068be0       c3_eml_blas_xtrsm          0000000180069be0 f   c3_EurlerDynJointVerify.obj
 0001:00069bf0       c3_b_mldivide              000000018006abf0 f   c3_EurlerDynJointVerify.obj
 0001:0006ab20       c3_b_eml_xtrsm             000000018006bb20 f   c3_EurlerDynJointVerify.obj
 0001:0006b340       c3_g_eml_scalar_eg         000000018006c340 f   c3_EurlerDynJointVerify.obj
 0001:0006b350       c3_b_eml_blas_xtrsm        000000018006c350 f   c3_EurlerDynJointVerify.obj
 0001:0006c360       c3_Adj                     000000018006d360 f   c3_EurlerDynJointVerify.obj
 0001:0006d090       c3_h_eml_scalar_eg         000000018006e090 f   c3_EurlerDynJointVerify.obj
 0001:0006d0a0       c3_eml_xgemm               000000018006e0a0 f   c3_EurlerDynJointVerify.obj
 0001:0006d2a0       c3_ad                      000000018006e2a0 f   c3_EurlerDynJointVerify.obj
 0001:0006e090       c3_i_eml_scalar_eg         000000018006f090 f   c3_EurlerDynJointVerify.obj
 0001:0006e0a0       c3_ceval_xgemm             000000018006f0a0 f   c3_EurlerDynJointVerify.obj
 0001:0006e3a0       c3_j_eml_scalar_eg         000000018006f3a0 f   c3_EurlerDynJointVerify.obj
 0001:0006e3b0       c3_ceval_xdot              000000018006f3b0 f   c3_EurlerDynJointVerify.obj
 0001:0006e560       c3_f_sf_marshall           000000018006f560 f   c3_EurlerDynJointVerify.obj
 0001:0006e610       c3_g_sf_marshall           000000018006f610 f   c3_EurlerDynJointVerify.obj
 0001:0006e840       c3_h_sf_marshall           000000018006f840 f   c3_EurlerDynJointVerify.obj
 0001:0006e970       c3_i_sf_marshall           000000018006f970 f   c3_EurlerDynJointVerify.obj
 0001:0006eba0       c3_j_sf_marshall           000000018006fba0 f   c3_EurlerDynJointVerify.obj
 0001:0006edd0       c3_k_sf_marshall           000000018006fdd0 f   c3_EurlerDynJointVerify.obj
 0001:0006ef00       sf_opaque_get_sim_state_c3_EurlerDynJointVerify 000000018006ff00 f   c3_EurlerDynJointVerify.obj
 0001:0006ef20       sf_internal_get_sim_state_c3_EurlerDynJointVerify 000000018006ff20 f   c3_EurlerDynJointVerify.obj
 0001:0006f010       get_sim_state_c3_EurlerDynJointVerify 0000000180070010 f   c3_EurlerDynJointVerify.obj
 0001:0006f610       sf_opaque_set_sim_state_c3_EurlerDynJointVerify 0000000180070610 f   c3_EurlerDynJointVerify.obj
 0001:0006f640       sf_internal_set_sim_state_c3_EurlerDynJointVerify 0000000180070640 f   c3_EurlerDynJointVerify.obj
 0001:0006f760       set_sim_state_c3_EurlerDynJointVerify 0000000180070760 f   c3_EurlerDynJointVerify.obj
 0001:0006fab0       c3_update_debugger_state_c3_EurlerDynJointVerify 0000000180070ab0 f   c3_EurlerDynJointVerify.obj
 0001:0006fac0       c3_emlrt_marshallIn        0000000180070ac0 f   c3_EurlerDynJointVerify.obj
 0001:0006fba0       c3_b_emlrt_marshallIn      0000000180070ba0 f   c3_EurlerDynJointVerify.obj
 0001:0006fc80       c3_c_emlrt_marshallIn      0000000180070c80 f   c3_EurlerDynJointVerify.obj
 0001:0006fd10       sf_opaque_terminate_c3_EurlerDynJointVerify 0000000180070d10 f   c3_EurlerDynJointVerify.obj
 0001:0006fd90       finalize_c3_EurlerDynJointVerify 0000000180070d90 f   c3_EurlerDynJointVerify.obj
 0001:0006fda0       sf_opaque_init_subchart_simstructs 0000000180070da0 f   c3_EurlerDynJointVerify.obj
 0001:0006fdc0       compInitSubchartSimstructsFcn_c3_EurlerDynJointVerify 0000000180070dc0 f   c3_EurlerDynJointVerify.obj
 0001:0006fdd0       mdlRTW_c3_EurlerDynJointVerify 0000000180070dd0 f   c3_EurlerDynJointVerify.obj
 0001:000701e0       c4_info_helper             00000001800711e0 f   c4_EurlerDynJointVerify.obj
 0001:00072000       c4_b_info_helper           0000000180073000 f   c4_EurlerDynJointVerify.obj
 0001:00074320       mdlProcessParameters_c4_EurlerDynJointVerify 0000000180075320 f   c4_EurlerDynJointVerify.obj
 0001:000743e0       initialize_params_c4_EurlerDynJointVerify 00000001800753e0 f   c4_EurlerDynJointVerify.obj
 0001:000745a0       mdlSetWorkWidths_c4_EurlerDynJointVerify 00000001800755a0 f   c4_EurlerDynJointVerify.obj
 0001:00074ae0       mdlStart_c4_EurlerDynJointVerify 0000000180075ae0 f   c4_EurlerDynJointVerify.obj
 0001:00074d00       init_dsm_address_info      0000000180075d00 f   c4_EurlerDynJointVerify.obj
 0001:00074d10       sf_get_sim_state_info_c4_EurlerDynJointVerify 0000000180075d10 f   c4_EurlerDynJointVerify.obj
 0001:00074dd0       chart_debug_initialization 0000000180075dd0 f   c4_EurlerDynJointVerify.obj
 0001:00076480       init_script_number_translation 0000000180077480 f   c4_EurlerDynJointVerify.obj
 0001:00076590       c4_sf_marshall             0000000180077590 f   c4_EurlerDynJointVerify.obj
 0001:000766f0       c4_b_sf_marshall           00000001800776f0 f   c4_EurlerDynJointVerify.obj
 0001:00076860       c4_c_sf_marshall           0000000180077860 f   c4_EurlerDynJointVerify.obj
 0001:00076a90       c4_d_sf_marshall           0000000180077a90 f   c4_EurlerDynJointVerify.obj
 0001:00076bd0       sf_opaque_initialize_c4_EurlerDynJointVerify 0000000180077bd0 f   c4_EurlerDynJointVerify.obj
 0001:00076c10       initialize_c4_EurlerDynJointVerify 0000000180077c10 f   c4_EurlerDynJointVerify.obj
 0001:00076c50       sf_opaque_enable_c4_EurlerDynJointVerify 0000000180077c50 f   c4_EurlerDynJointVerify.obj
 0001:00076c70       enable_c4_EurlerDynJointVerify 0000000180077c70 f   c4_EurlerDynJointVerify.obj
 0001:00076ca0       sf_opaque_disable_c4_EurlerDynJointVerify 0000000180077ca0 f   c4_EurlerDynJointVerify.obj
 0001:00076cc0       disable_c4_EurlerDynJointVerify 0000000180077cc0 f   c4_EurlerDynJointVerify.obj
 0001:00076cf0       sf_opaque_gateway_c4_EurlerDynJointVerify 0000000180077cf0 f   c4_EurlerDynJointVerify.obj
 0001:00076d10       sf_c4_EurlerDynJointVerify 0000000180077d10 f   c4_EurlerDynJointVerify.obj
 0001:00077960       c4_inv_kin                 0000000180078960 f   c4_EurlerDynJointVerify.obj
 0001:0007ee70       c4_cross                   000000018007fe70 f   c4_EurlerDynJointVerify.obj
 0001:0007f070       c4_all                     0000000180080070 f   c4_EurlerDynJointVerify.obj
 0001:0007f1d0       c4_mrdivide                00000001800801d0 f   c4_EurlerDynJointVerify.obj
 0001:00080320       c4_eml_matlab_zgetrf       0000000180081320 f   c4_EurlerDynJointVerify.obj
 0001:000811e0       c4_eps                     00000001800821e0 f   c4_EurlerDynJointVerify.obj
 0001:000811f0       c4_eml_ixamax              00000001800821f0 f   c4_EurlerDynJointVerify.obj
 0001:000812f0       c4_ceval_ixamax            00000001800822f0 f   c4_EurlerDynJointVerify.obj
 0001:000813c0       c4_ceval_xswap             00000001800823c0 f   c4_EurlerDynJointVerify.obj
 0001:00081590       c4_ceval_xger              0000000180082590 f   c4_EurlerDynJointVerify.obj
 0001:00081850       c4_eml_warning             0000000180082850 f   c4_EurlerDynJointVerify.obj
 0001:00081a30       c4_b_eml_scalar_eg         0000000180082a30 f   c4_EurlerDynJointVerify.obj
 0001:00081a40       c4_eml_xtrsm               0000000180082a40 f   c4_EurlerDynJointVerify.obj
 0001:00082260       c4_c_eml_scalar_eg         0000000180083260 f   c4_EurlerDynJointVerify.obj
 0001:00082270       c4_eml_blas_xtrsm          0000000180083270 f   c4_EurlerDynJointVerify.obj
 0001:00083270       c4_d_eml_scalar_eg         0000000180084270 f   c4_EurlerDynJointVerify.obj
 0001:00083280       c4_atan2                   0000000180084280 f   c4_EurlerDynJointVerify.obj
 0001:000832e0       c4_eml_scalar_eg           00000001800842e0 f   c4_EurlerDynJointVerify.obj
 0001:000832f0       c4_isInRange               00000001800842f0 f   c4_EurlerDynJointVerify.obj
 0001:00083660       c4_expWre                  0000000180084660 f   c4_EurlerDynJointVerify.obj
 0001:00084cb0       c4_length                  0000000180085cb0 f   c4_EurlerDynJointVerify.obj
 0001:00084f70       c4_eye                     0000000180085f70 f   c4_EurlerDynJointVerify.obj
 0001:00085120       c4_expRot                  0000000180086120 f   c4_EurlerDynJointVerify.obj
 0001:00086010       c4_e_eml_scalar_eg         0000000180087010 f   c4_EurlerDynJointVerify.obj
 0001:00086020       c4_f_eml_scalar_eg         0000000180087020 f   c4_EurlerDynJointVerify.obj
 0001:00086030       c4_subPro3                 0000000180087030 f   c4_EurlerDynJointVerify.obj
 0001:00088e50       c4_g_eml_scalar_eg         0000000180089e50 f   c4_EurlerDynJointVerify.obj
 0001:00088e60       c4_ceval_xdot              0000000180089e60 f   c4_EurlerDynJointVerify.obj
 0001:00089010       c4_mpower                  000000018008a010 f   c4_EurlerDynJointVerify.obj
 0001:00089050       c4_power                   000000018008a050 f   c4_EurlerDynJointVerify.obj
 0001:00089100       c4_eml_error               000000018008a100 f   c4_EurlerDynJointVerify.obj
 0001:000892f0       c4_norm                    000000018008a2f0 f   c4_EurlerDynJointVerify.obj
 0001:00089440       c4_ceval_xnrm2             000000018008a440 f   c4_EurlerDynJointVerify.obj
 0001:00089510       c4_b_eml_error             000000018008a510 f   c4_EurlerDynJointVerify.obj
 0001:00089700       c4_b_isInRange             000000018008a700 f   c4_EurlerDynJointVerify.obj
 0001:00089cb0       c4_any                     000000018008acb0 f   c4_EurlerDynJointVerify.obj
 0001:00089ec0       c4_subPro1                 000000018008aec0 f   c4_EurlerDynJointVerify.obj
 0001:0008b620       c4_subPro2                 000000018008c620 f   c4_EurlerDynJointVerify.obj
 0001:00090580       c4_findCommon              0000000180091580 f   c4_EurlerDynJointVerify.obj
 0001:00091cb0       c4_det                     0000000180092cb0 f   c4_EurlerDynJointVerify.obj
 0001:000920c0       c4_b_eml_matlab_zgetrf     00000001800930c0 f   c4_EurlerDynJointVerify.obj
 0001:00092950       c4_b_eml_ixamax            0000000180093950 f   c4_EurlerDynJointVerify.obj
 0001:00092a10       c4_b_ceval_ixamax          0000000180093a10 f   c4_EurlerDynJointVerify.obj
 0001:00092ae0       c4_b_ceval_xswap           0000000180093ae0 f   c4_EurlerDynJointVerify.obj
 0001:00092cb0       c4_b_ceval_xger            0000000180093cb0 f   c4_EurlerDynJointVerify.obj
 0001:00092f70       c4_c_eml_error             0000000180093f70 f   c4_EurlerDynJointVerify.obj
 0001:00093160       c4_b_subPro1               0000000180094160 f   c4_EurlerDynJointVerify.obj
 0001:000948c0       c4_c_subPro1               00000001800958c0 f   c4_EurlerDynJointVerify.obj
 0001:00096030       c4_e_sf_marshall           0000000180097030 f   c4_EurlerDynJointVerify.obj
 0001:000960e0       c4_f_sf_marshall           00000001800970e0 f   c4_EurlerDynJointVerify.obj
 0001:00096310       c4_g_sf_marshall           0000000180097310 f   c4_EurlerDynJointVerify.obj
 0001:00096540       c4_h_sf_marshall           0000000180097540 f   c4_EurlerDynJointVerify.obj
 0001:000965f0       c4_i_sf_marshall           00000001800975f0 f   c4_EurlerDynJointVerify.obj
 0001:00096710       c4_j_sf_marshall           0000000180097710 f   c4_EurlerDynJointVerify.obj
 0001:00096870       c4_k_sf_marshall           0000000180097870 f   c4_EurlerDynJointVerify.obj
 0001:00096980       c4_l_sf_marshall           0000000180097980 f   c4_EurlerDynJointVerify.obj
 0001:00096ba0       sf_opaque_get_sim_state_c4_EurlerDynJointVerify 0000000180097ba0 f   c4_EurlerDynJointVerify.obj
 0001:00096bc0       sf_internal_get_sim_state_c4_EurlerDynJointVerify 0000000180097bc0 f   c4_EurlerDynJointVerify.obj
 0001:00096cb0       get_sim_state_c4_EurlerDynJointVerify 0000000180097cb0 f   c4_EurlerDynJointVerify.obj
 0001:00096ee0       sf_opaque_set_sim_state_c4_EurlerDynJointVerify 0000000180097ee0 f   c4_EurlerDynJointVerify.obj
 0001:00096f10       sf_internal_set_sim_state_c4_EurlerDynJointVerify 0000000180097f10 f   c4_EurlerDynJointVerify.obj
 0001:00097030       set_sim_state_c4_EurlerDynJointVerify 0000000180098030 f   c4_EurlerDynJointVerify.obj
 0001:00097160       c4_update_debugger_state_c4_EurlerDynJointVerify 0000000180098160 f   c4_EurlerDynJointVerify.obj
 0001:00097170       c4_emlrt_marshallIn        0000000180098170 f   c4_EurlerDynJointVerify.obj
 0001:00097240       c4_b_emlrt_marshallIn      0000000180098240 f   c4_EurlerDynJointVerify.obj
 0001:000972d0       sf_opaque_terminate_c4_EurlerDynJointVerify 00000001800982d0 f   c4_EurlerDynJointVerify.obj
 0001:00097350       finalize_c4_EurlerDynJointVerify 0000000180098350 f   c4_EurlerDynJointVerify.obj
 0001:00097360       sf_opaque_init_subchart_simstructs 0000000180098360 f   c4_EurlerDynJointVerify.obj
 0001:00097380       compInitSubchartSimstructsFcn_c4_EurlerDynJointVerify 0000000180098380 f   c4_EurlerDynJointVerify.obj
 0001:00097390       mdlRTW_c4_EurlerDynJointVerify 0000000180098390 f   c4_EurlerDynJointVerify.obj
 0001:00097810       c5_info_helper             0000000180098810 f   c5_EurlerDynJointVerify.obj
 0001:00099630       c5_b_info_helper           000000018009a630 f   c5_EurlerDynJointVerify.obj
 0001:0009af60       mdlProcessParameters_c5_EurlerDynJointVerify 000000018009bf60 f   c5_EurlerDynJointVerify.obj
 0001:0009b020       initialize_params_c5_EurlerDynJointVerify 000000018009c020 f   c5_EurlerDynJointVerify.obj
 0001:0009b110       mdlSetWorkWidths_c5_EurlerDynJointVerify 000000018009c110 f   c5_EurlerDynJointVerify.obj
 0001:0009b5d0       mdlStart_c5_EurlerDynJointVerify 000000018009c5d0 f   c5_EurlerDynJointVerify.obj
 0001:0009b7e0       init_dsm_address_info      000000018009c7e0 f   c5_EurlerDynJointVerify.obj
 0001:0009b7f0       sf_get_sim_state_info_c5_EurlerDynJointVerify 000000018009c7f0 f   c5_EurlerDynJointVerify.obj
 0001:0009b8b0       chart_debug_initialization 000000018009c8b0 f   c5_EurlerDynJointVerify.obj
 0001:0009c550       init_script_number_translation 000000018009d550 f   c5_EurlerDynJointVerify.obj
 0001:0009c600       c5_sf_marshall             000000018009d600 f   c5_EurlerDynJointVerify.obj
 0001:0009c740       c5_b_sf_marshall           000000018009d740 f   c5_EurlerDynJointVerify.obj
 0001:0009c8b0       c5_c_sf_marshall           000000018009d8b0 f   c5_EurlerDynJointVerify.obj
 0001:0009c9f0       sf_opaque_initialize_c5_EurlerDynJointVerify 000000018009d9f0 f   c5_EurlerDynJointVerify.obj
 0001:0009ca30       initialize_c5_EurlerDynJointVerify 000000018009da30 f   c5_EurlerDynJointVerify.obj
 0001:0009ca70       sf_opaque_enable_c5_EurlerDynJointVerify 000000018009da70 f   c5_EurlerDynJointVerify.obj
 0001:0009ca90       enable_c5_EurlerDynJointVerify 000000018009da90 f   c5_EurlerDynJointVerify.obj
 0001:0009cac0       sf_opaque_disable_c5_EurlerDynJointVerify 000000018009dac0 f   c5_EurlerDynJointVerify.obj
 0001:0009cae0       disable_c5_EurlerDynJointVerify 000000018009dae0 f   c5_EurlerDynJointVerify.obj
 0001:0009cb10       sf_opaque_gateway_c5_EurlerDynJointVerify 000000018009db10 f   c5_EurlerDynJointVerify.obj
 0001:0009cb30       sf_c5_EurlerDynJointVerify 000000018009db30 f   c5_EurlerDynJointVerify.obj
 0001:0009ce00       c5_c5_EurlerDynJointVerify 000000018009de00 f   c5_EurlerDynJointVerify.obj
 0001:0009ec20       c5_fwd_kin                 000000018009fc20 f   c5_EurlerDynJointVerify.obj
 0001:000a2630       c5_body_Jacobian           00000001800a3630 f   c5_EurlerDynJointVerify.obj
 0001:000a5bc0       c5_AdjointInv              00000001800a6bc0 f   c5_EurlerDynJointVerify.obj
 0001:000a6e30       c5_eml_scalar_eg           00000001800a7e30 f   c5_EurlerDynJointVerify.obj
 0001:000a6e40       c5_eml_matlab_zgetrf       00000001800a7e40 f   c5_EurlerDynJointVerify.obj
 0001:000a7ca0       c5_eps                     00000001800a8ca0 f   c5_EurlerDynJointVerify.obj
 0001:000a7cb0       c5_eml_ixamax              00000001800a8cb0 f   c5_EurlerDynJointVerify.obj
 0001:000a7dc0       c5_ceval_ixamax            00000001800a8dc0 f   c5_EurlerDynJointVerify.obj
 0001:000a7e90       c5_ceval_xswap             00000001800a8e90 f   c5_EurlerDynJointVerify.obj
 0001:000a8040       c5_ceval_xger              00000001800a9040 f   c5_EurlerDynJointVerify.obj
 0001:000a82e0       c5_eml_warning             00000001800a92e0 f   c5_EurlerDynJointVerify.obj
 0001:000a84d0       c5_eml_blas_xtrsm          00000001800a94d0 f   c5_EurlerDynJointVerify.obj
 0001:000a8640       c5_ceval_xtrsm             00000001800a9640 f   c5_EurlerDynJointVerify.obj
 0001:000a8860       c5_b_eml_blas_xtrsm        00000001800a9860 f   c5_EurlerDynJointVerify.obj
 0001:000a89e0       c5_b_ceval_xtrsm           00000001800a99e0 f   c5_EurlerDynJointVerify.obj
 0001:000a8c00       c5_b_eml_scalar_eg         00000001800a9c00 f   c5_EurlerDynJointVerify.obj
 0001:000a8c10       c5_d_sf_marshall           00000001800a9c10 f   c5_EurlerDynJointVerify.obj
 0001:000a8cc0       c5_e_sf_marshall           00000001800a9cc0 f   c5_EurlerDynJointVerify.obj
 0001:000a8ed0       c5_f_sf_marshall           00000001800a9ed0 f   c5_EurlerDynJointVerify.obj
 0001:000a9100       c5_g_sf_marshall           00000001800aa100 f   c5_EurlerDynJointVerify.obj
 0001:000a9270       c5_h_sf_marshall           00000001800aa270 f   c5_EurlerDynJointVerify.obj
 0001:000a94a0       sf_opaque_get_sim_state_c5_EurlerDynJointVerify 00000001800aa4a0 f   c5_EurlerDynJointVerify.obj
 0001:000a94c0       sf_internal_get_sim_state_c5_EurlerDynJointVerify 00000001800aa4c0 f   c5_EurlerDynJointVerify.obj
 0001:000a95b0       get_sim_state_c5_EurlerDynJointVerify 00000001800aa5b0 f   c5_EurlerDynJointVerify.obj
 0001:000a97f0       sf_opaque_set_sim_state_c5_EurlerDynJointVerify 00000001800aa7f0 f   c5_EurlerDynJointVerify.obj
 0001:000a9820       sf_internal_set_sim_state_c5_EurlerDynJointVerify 00000001800aa820 f   c5_EurlerDynJointVerify.obj
 0001:000a9940       set_sim_state_c5_EurlerDynJointVerify 00000001800aa940 f   c5_EurlerDynJointVerify.obj
 0001:000a9a60       c5_update_debugger_state_c5_EurlerDynJointVerify 00000001800aaa60 f   c5_EurlerDynJointVerify.obj
 0001:000a9a70       c5_emlrt_marshallIn        00000001800aaa70 f   c5_EurlerDynJointVerify.obj
 0001:000a9b50       c5_b_emlrt_marshallIn      00000001800aab50 f   c5_EurlerDynJointVerify.obj
 0001:000a9be0       sf_opaque_terminate_c5_EurlerDynJointVerify 00000001800aabe0 f   c5_EurlerDynJointVerify.obj
 0001:000a9c60       finalize_c5_EurlerDynJointVerify 00000001800aac60 f   c5_EurlerDynJointVerify.obj
 0001:000a9c70       sf_opaque_init_subchart_simstructs 00000001800aac70 f   c5_EurlerDynJointVerify.obj
 0001:000a9c90       compInitSubchartSimstructsFcn_c5_EurlerDynJointVerify 00000001800aac90 f   c5_EurlerDynJointVerify.obj
 0001:000a9ca0       mdlRTW_c5_EurlerDynJointVerify 00000001800aaca0 f   c5_EurlerDynJointVerify.obj
 0001:000aa0a0       c6_info_helper             00000001800ab0a0 f   c6_EurlerDynJointVerify.obj
 0001:000ab9c0       mdlProcessParameters_c6_EurlerDynJointVerify 00000001800ac9c0 f   c6_EurlerDynJointVerify.obj
 0001:000aba80       initialize_params_c6_EurlerDynJointVerify 00000001800aca80 f   c6_EurlerDynJointVerify.obj
 0001:000abb70       mdlSetWorkWidths_c6_EurlerDynJointVerify 00000001800acb70 f   c6_EurlerDynJointVerify.obj
 0001:000ac000       mdlStart_c6_EurlerDynJointVerify 00000001800ad000 f   c6_EurlerDynJointVerify.obj
 0001:000ac210       init_dsm_address_info      00000001800ad210 f   c6_EurlerDynJointVerify.obj
 0001:000ac220       sf_get_sim_state_info_c6_EurlerDynJointVerify 00000001800ad220 f   c6_EurlerDynJointVerify.obj
 0001:000ac2e0       chart_debug_initialization 00000001800ad2e0 f   c6_EurlerDynJointVerify.obj
 0001:000acb70       init_script_number_translation 00000001800adb70 f   c6_EurlerDynJointVerify.obj
 0001:000acbb0       c6_sf_marshall             00000001800adbb0 f   c6_EurlerDynJointVerify.obj
 0001:000acce0       c6_b_sf_marshall           00000001800adce0 f   c6_EurlerDynJointVerify.obj
 0001:000ace30       c6_c_sf_marshall           00000001800ade30 f   c6_EurlerDynJointVerify.obj
 0001:000acf60       sf_opaque_initialize_c6_EurlerDynJointVerify 00000001800adf60 f   c6_EurlerDynJointVerify.obj
 0001:000acfa0       initialize_c6_EurlerDynJointVerify 00000001800adfa0 f   c6_EurlerDynJointVerify.obj
 0001:000acfe0       sf_opaque_enable_c6_EurlerDynJointVerify 00000001800adfe0 f   c6_EurlerDynJointVerify.obj
 0001:000ad000       enable_c6_EurlerDynJointVerify 00000001800ae000 f   c6_EurlerDynJointVerify.obj
 0001:000ad030       sf_opaque_disable_c6_EurlerDynJointVerify 00000001800ae030 f   c6_EurlerDynJointVerify.obj
 0001:000ad050       disable_c6_EurlerDynJointVerify 00000001800ae050 f   c6_EurlerDynJointVerify.obj
 0001:000ad080       sf_opaque_gateway_c6_EurlerDynJointVerify 00000001800ae080 f   c6_EurlerDynJointVerify.obj
 0001:000ad0a0       sf_c6_EurlerDynJointVerify 00000001800ae0a0 f   c6_EurlerDynJointVerify.obj
 0001:000ad8c0       c6_fwd_kin                 00000001800ae8c0 f   c6_EurlerDynJointVerify.obj
 0001:000b12c0       c6_d_sf_marshall           00000001800b22c0 f   c6_EurlerDynJointVerify.obj
 0001:000b1370       c6_e_sf_marshall           00000001800b2370 f   c6_EurlerDynJointVerify.obj
 0001:000b1590       c6_f_sf_marshall           00000001800b2590 f   c6_EurlerDynJointVerify.obj
 0001:000b16f0       sf_opaque_get_sim_state_c6_EurlerDynJointVerify 00000001800b26f0 f   c6_EurlerDynJointVerify.obj
 0001:000b1710       sf_internal_get_sim_state_c6_EurlerDynJointVerify 00000001800b2710 f   c6_EurlerDynJointVerify.obj
 0001:000b1800       get_sim_state_c6_EurlerDynJointVerify 00000001800b2800 f   c6_EurlerDynJointVerify.obj
 0001:000b1a00       sf_opaque_set_sim_state_c6_EurlerDynJointVerify 00000001800b2a00 f   c6_EurlerDynJointVerify.obj
 0001:000b1a30       sf_internal_set_sim_state_c6_EurlerDynJointVerify 00000001800b2a30 f   c6_EurlerDynJointVerify.obj
 0001:000b1b50       set_sim_state_c6_EurlerDynJointVerify 00000001800b2b50 f   c6_EurlerDynJointVerify.obj
 0001:000b1c60       c6_update_debugger_state_c6_EurlerDynJointVerify 00000001800b2c60 f   c6_EurlerDynJointVerify.obj
 0001:000b1c70       c6_emlrt_marshallIn        00000001800b2c70 f   c6_EurlerDynJointVerify.obj
 0001:000b1d40       c6_b_emlrt_marshallIn      00000001800b2d40 f   c6_EurlerDynJointVerify.obj
 0001:000b1dd0       sf_opaque_terminate_c6_EurlerDynJointVerify 00000001800b2dd0 f   c6_EurlerDynJointVerify.obj
 0001:000b1e50       finalize_c6_EurlerDynJointVerify 00000001800b2e50 f   c6_EurlerDynJointVerify.obj
 0001:000b1e60       sf_opaque_init_subchart_simstructs 00000001800b2e60 f   c6_EurlerDynJointVerify.obj
 0001:000b1e80       compInitSubchartSimstructsFcn_c6_EurlerDynJointVerify 00000001800b2e80 f   c6_EurlerDynJointVerify.obj
 0001:000b1e90       mdlRTW_c6_EurlerDynJointVerify 00000001800b2e90 f   c6_EurlerDynJointVerify.obj
 0001:000b22b0       c7_info_helper             00000001800b32b0 f   c7_EurlerDynJointVerify.obj
 0001:000b4690       mdlProcessParameters_c7_EurlerDynJointVerify 00000001800b5690 f   c7_EurlerDynJointVerify.obj
 0001:000b4750       initialize_params_c7_EurlerDynJointVerify 00000001800b5750 f   c7_EurlerDynJointVerify.obj
 0001:000b4840       mdlSetWorkWidths_c7_EurlerDynJointVerify 00000001800b5840 f   c7_EurlerDynJointVerify.obj
 0001:000b4d00       mdlStart_c7_EurlerDynJointVerify 00000001800b5d00 f   c7_EurlerDynJointVerify.obj
 0001:000b4f10       init_dsm_address_info      00000001800b5f10 f   c7_EurlerDynJointVerify.obj
 0001:000b4f20       sf_get_sim_state_info_c7_EurlerDynJointVerify 00000001800b5f20 f   c7_EurlerDynJointVerify.obj
 0001:000b4fe0       chart_debug_initialization 00000001800b5fe0 f   c7_EurlerDynJointVerify.obj
 0001:000b5a60       init_script_number_translation 00000001800b6a60 f   c7_EurlerDynJointVerify.obj
 0001:000b5ac0       c7_sf_marshall             00000001800b6ac0 f   c7_EurlerDynJointVerify.obj
 0001:000b5bf0       c7_b_sf_marshall           00000001800b6bf0 f   c7_EurlerDynJointVerify.obj
 0001:000b5d50       c7_c_sf_marshall           00000001800b6d50 f   c7_EurlerDynJointVerify.obj
 0001:000b5e90       sf_opaque_initialize_c7_EurlerDynJointVerify 00000001800b6e90 f   c7_EurlerDynJointVerify.obj
 0001:000b5ed0       initialize_c7_EurlerDynJointVerify 00000001800b6ed0 f   c7_EurlerDynJointVerify.obj
 0001:000b5f10       sf_opaque_enable_c7_EurlerDynJointVerify 00000001800b6f10 f   c7_EurlerDynJointVerify.obj
 0001:000b5f30       enable_c7_EurlerDynJointVerify 00000001800b6f30 f   c7_EurlerDynJointVerify.obj
 0001:000b5f60       sf_opaque_disable_c7_EurlerDynJointVerify 00000001800b6f60 f   c7_EurlerDynJointVerify.obj
 0001:000b5f80       disable_c7_EurlerDynJointVerify 00000001800b6f80 f   c7_EurlerDynJointVerify.obj
 0001:000b5fb0       sf_opaque_gateway_c7_EurlerDynJointVerify 00000001800b6fb0 f   c7_EurlerDynJointVerify.obj
 0001:000b5fd0       sf_c7_EurlerDynJointVerify 00000001800b6fd0 f   c7_EurlerDynJointVerify.obj
 0001:000b62c0       c7_c7_EurlerDynJointVerify 00000001800b72c0 f   c7_EurlerDynJointVerify.obj
 0001:000b71c0       c7_spat_Jacobian           00000001800b81c0 f   c7_EurlerDynJointVerify.obj
 0001:000ba030       c7_eml_scalar_eg           00000001800bb030 f   c7_EurlerDynJointVerify.obj
 0001:000ba040       c7_b_eml_scalar_eg         00000001800bb040 f   c7_EurlerDynJointVerify.obj
 0001:000ba050       c7_fwd_kin                 00000001800bb050 f   c7_EurlerDynJointVerify.obj
 0001:000bdb20       c7_d_sf_marshall           00000001800beb20 f   c7_EurlerDynJointVerify.obj
 0001:000bdbd0       c7_e_sf_marshall           00000001800bebd0 f   c7_EurlerDynJointVerify.obj
 0001:000bdde0       c7_f_sf_marshall           00000001800bede0 f   c7_EurlerDynJointVerify.obj
 0001:000bdfe0       c7_g_sf_marshall           00000001800befe0 f   c7_EurlerDynJointVerify.obj
 0001:000be130       sf_opaque_get_sim_state_c7_EurlerDynJointVerify 00000001800bf130 f   c7_EurlerDynJointVerify.obj
 0001:000be150       sf_internal_get_sim_state_c7_EurlerDynJointVerify 00000001800bf150 f   c7_EurlerDynJointVerify.obj
 0001:000be240       get_sim_state_c7_EurlerDynJointVerify 00000001800bf240 f   c7_EurlerDynJointVerify.obj
 0001:000be450       sf_opaque_set_sim_state_c7_EurlerDynJointVerify 00000001800bf450 f   c7_EurlerDynJointVerify.obj
 0001:000be480       sf_internal_set_sim_state_c7_EurlerDynJointVerify 00000001800bf480 f   c7_EurlerDynJointVerify.obj
 0001:000be5a0       set_sim_state_c7_EurlerDynJointVerify 00000001800bf5a0 f   c7_EurlerDynJointVerify.obj
 0001:000be6b0       c7_update_debugger_state_c7_EurlerDynJointVerify 00000001800bf6b0 f   c7_EurlerDynJointVerify.obj
 0001:000be6c0       c7_emlrt_marshallIn        00000001800bf6c0 f   c7_EurlerDynJointVerify.obj
 0001:000be790       c7_b_emlrt_marshallIn      00000001800bf790 f   c7_EurlerDynJointVerify.obj
 0001:000be820       sf_opaque_terminate_c7_EurlerDynJointVerify 00000001800bf820 f   c7_EurlerDynJointVerify.obj
 0001:000be8a0       finalize_c7_EurlerDynJointVerify 00000001800bf8a0 f   c7_EurlerDynJointVerify.obj
 0001:000be8b0       sf_opaque_init_subchart_simstructs 00000001800bf8b0 f   c7_EurlerDynJointVerify.obj
 0001:000be8d0       compInitSubchartSimstructsFcn_c7_EurlerDynJointVerify 00000001800bf8d0 f   c7_EurlerDynJointVerify.obj
 0001:000be8e0       mdlRTW_c7_EurlerDynJointVerify 00000001800bf8e0 f   c7_EurlerDynJointVerify.obj
 0001:000bed40       c8_info_helper             00000001800bfd40 f   c8_EurlerDynJointVerify.obj
 0001:000c0b60       c8_b_info_helper           00000001800c1b60 f   c8_EurlerDynJointVerify.obj
 0001:000c2e80       mdlProcessParameters_c8_EurlerDynJointVerify 00000001800c3e80 f   c8_EurlerDynJointVerify.obj
 0001:000c2f40       initialize_params_c8_EurlerDynJointVerify 00000001800c3f40 f   c8_EurlerDynJointVerify.obj
 0001:000c3100       mdlSetWorkWidths_c8_EurlerDynJointVerify 00000001800c4100 f   c8_EurlerDynJointVerify.obj
 0001:000c3640       mdlStart_c8_EurlerDynJointVerify 00000001800c4640 f   c8_EurlerDynJointVerify.obj
 0001:000c3860       init_dsm_address_info      00000001800c4860 f   c8_EurlerDynJointVerify.obj
 0001:000c3870       sf_get_sim_state_info_c8_EurlerDynJointVerify 00000001800c4870 f   c8_EurlerDynJointVerify.obj
 0001:000c3930       chart_debug_initialization 00000001800c4930 f   c8_EurlerDynJointVerify.obj
 0001:000c4fe0       init_script_number_translation 00000001800c5fe0 f   c8_EurlerDynJointVerify.obj
 0001:000c50f0       c8_sf_marshall             00000001800c60f0 f   c8_EurlerDynJointVerify.obj
 0001:000c5220       c8_b_sf_marshall           00000001800c6220 f   c8_EurlerDynJointVerify.obj
 0001:000c5360       c8_c_sf_marshall           00000001800c6360 f   c8_EurlerDynJointVerify.obj
 0001:000c5540       c8_d_sf_marshall           00000001800c6540 f   c8_EurlerDynJointVerify.obj
 0001:000c5670       sf_opaque_initialize_c8_EurlerDynJointVerify 00000001800c6670 f   c8_EurlerDynJointVerify.obj
 0001:000c56b0       initialize_c8_EurlerDynJointVerify 00000001800c66b0 f   c8_EurlerDynJointVerify.obj
 0001:000c56f0       sf_opaque_enable_c8_EurlerDynJointVerify 00000001800c66f0 f   c8_EurlerDynJointVerify.obj
 0001:000c5710       enable_c8_EurlerDynJointVerify 00000001800c6710 f   c8_EurlerDynJointVerify.obj
 0001:000c5740       sf_opaque_disable_c8_EurlerDynJointVerify 00000001800c6740 f   c8_EurlerDynJointVerify.obj
 0001:000c5760       disable_c8_EurlerDynJointVerify 00000001800c6760 f   c8_EurlerDynJointVerify.obj
 0001:000c5790       sf_opaque_gateway_c8_EurlerDynJointVerify 00000001800c6790 f   c8_EurlerDynJointVerify.obj
 0001:000c57b0       sf_c8_EurlerDynJointVerify 00000001800c67b0 f   c8_EurlerDynJointVerify.obj
 0001:000c6400       c8_inv_kin                 00000001800c7400 f   c8_EurlerDynJointVerify.obj
 0001:000cd920       c8_cross                   00000001800ce920 f   c8_EurlerDynJointVerify.obj
 0001:000cdb20       c8_all                     00000001800ceb20 f   c8_EurlerDynJointVerify.obj
 0001:000cdc80       c8_mrdivide                00000001800cec80 f   c8_EurlerDynJointVerify.obj
 0001:000cedc0       c8_eml_matlab_zgetrf       00000001800cfdc0 f   c8_EurlerDynJointVerify.obj
 0001:000cfc60       c8_eps                     00000001800d0c60 f   c8_EurlerDynJointVerify.obj
 0001:000cfc70       c8_eml_ixamax              00000001800d0c70 f   c8_EurlerDynJointVerify.obj
 0001:000cfd50       c8_ceval_ixamax            00000001800d0d50 f   c8_EurlerDynJointVerify.obj
 0001:000cfe20       c8_ceval_xswap             00000001800d0e20 f   c8_EurlerDynJointVerify.obj
 0001:000cfff0       c8_ceval_xger              00000001800d0ff0 f   c8_EurlerDynJointVerify.obj
 0001:000d02b0       c8_eml_warning             00000001800d12b0 f   c8_EurlerDynJointVerify.obj
 0001:000d0480       c8_b_eml_scalar_eg         00000001800d1480 f   c8_EurlerDynJointVerify.obj
 0001:000d0490       c8_eml_xtrsm               00000001800d1490 f   c8_EurlerDynJointVerify.obj
 0001:000d0d00       c8_c_eml_scalar_eg         00000001800d1d00 f   c8_EurlerDynJointVerify.obj
 0001:000d0d10       c8_eml_blas_xtrsm          00000001800d1d10 f   c8_EurlerDynJointVerify.obj
 0001:000d1d40       c8_d_eml_scalar_eg         00000001800d2d40 f   c8_EurlerDynJointVerify.obj
 0001:000d1d50       c8_atan2                   00000001800d2d50 f   c8_EurlerDynJointVerify.obj
 0001:000d1db0       c8_eml_scalar_eg           00000001800d2db0 f   c8_EurlerDynJointVerify.obj
 0001:000d1dc0       c8_isInRange               00000001800d2dc0 f   c8_EurlerDynJointVerify.obj
 0001:000d2140       c8_expWre                  00000001800d3140 f   c8_EurlerDynJointVerify.obj
 0001:000d3780       c8_length                  00000001800d4780 f   c8_EurlerDynJointVerify.obj
 0001:000d3a40       c8_eye                     00000001800d4a40 f   c8_EurlerDynJointVerify.obj
 0001:000d3bf0       c8_expRot                  00000001800d4bf0 f   c8_EurlerDynJointVerify.obj
 0001:000d4b20       c8_e_eml_scalar_eg         00000001800d5b20 f   c8_EurlerDynJointVerify.obj
 0001:000d4b30       c8_f_eml_scalar_eg         00000001800d5b30 f   c8_EurlerDynJointVerify.obj
 0001:000d4b40       c8_subPro3                 00000001800d5b40 f   c8_EurlerDynJointVerify.obj
 0001:000d7970       c8_g_eml_scalar_eg         00000001800d8970 f   c8_EurlerDynJointVerify.obj
 0001:000d7980       c8_ceval_xdot              00000001800d8980 f   c8_EurlerDynJointVerify.obj
 0001:000d7b30       c8_mpower                  00000001800d8b30 f   c8_EurlerDynJointVerify.obj
 0001:000d7b70       c8_power                   00000001800d8b70 f   c8_EurlerDynJointVerify.obj
 0001:000d7c20       c8_eml_error               00000001800d8c20 f   c8_EurlerDynJointVerify.obj
 0001:000d7e00       c8_norm                    00000001800d8e00 f   c8_EurlerDynJointVerify.obj
 0001:000d7f40       c8_ceval_xnrm2             00000001800d8f40 f   c8_EurlerDynJointVerify.obj
 0001:000d8010       c8_b_eml_error             00000001800d9010 f   c8_EurlerDynJointVerify.obj
 0001:000d81e0       c8_b_isInRange             00000001800d91e0 f   c8_EurlerDynJointVerify.obj
 0001:000d8790       c8_any                     00000001800d9790 f   c8_EurlerDynJointVerify.obj
 0001:000d89a0       c8_subPro1                 00000001800d99a0 f   c8_EurlerDynJointVerify.obj
 0001:000da0e0       c8_subPro2                 00000001800db0e0 f   c8_EurlerDynJointVerify.obj
 0001:000df010       c8_findCommon              00000001800e0010 f   c8_EurlerDynJointVerify.obj
 0001:000e0750       c8_det                     00000001800e1750 f   c8_EurlerDynJointVerify.obj
 0001:000e0b30       c8_b_eml_matlab_zgetrf     00000001800e1b30 f   c8_EurlerDynJointVerify.obj
 0001:000e13c0       c8_b_eml_ixamax            00000001800e23c0 f   c8_EurlerDynJointVerify.obj
 0001:000e1480       c8_b_ceval_ixamax          00000001800e2480 f   c8_EurlerDynJointVerify.obj
 0001:000e1550       c8_b_ceval_xswap           00000001800e2550 f   c8_EurlerDynJointVerify.obj
 0001:000e1720       c8_b_ceval_xger            00000001800e2720 f   c8_EurlerDynJointVerify.obj
 0001:000e19e0       c8_c_eml_error             00000001800e29e0 f   c8_EurlerDynJointVerify.obj
 0001:000e1bc0       c8_b_subPro1               00000001800e2bc0 f   c8_EurlerDynJointVerify.obj
 0001:000e3320       c8_c_subPro1               00000001800e4320 f   c8_EurlerDynJointVerify.obj
 0001:000e4a60       c8_e_sf_marshall           00000001800e5a60 f   c8_EurlerDynJointVerify.obj
 0001:000e4b10       c8_f_sf_marshall           00000001800e5b10 f   c8_EurlerDynJointVerify.obj
 0001:000e4cd0       c8_g_sf_marshall           00000001800e5cd0 f   c8_EurlerDynJointVerify.obj
 0001:000e4ea0       c8_h_sf_marshall           00000001800e5ea0 f   c8_EurlerDynJointVerify.obj
 0001:000e4f50       c8_i_sf_marshall           00000001800e5f50 f   c8_EurlerDynJointVerify.obj
 0001:000e5070       c8_j_sf_marshall           00000001800e6070 f   c8_EurlerDynJointVerify.obj
 0001:000e51b0       c8_k_sf_marshall           00000001800e61b0 f   c8_EurlerDynJointVerify.obj
 0001:000e52c0       c8_l_sf_marshall           00000001800e62c0 f   c8_EurlerDynJointVerify.obj
 0001:000e54a0       sf_opaque_get_sim_state_c8_EurlerDynJointVerify 00000001800e64a0 f   c8_EurlerDynJointVerify.obj
 0001:000e54c0       sf_internal_get_sim_state_c8_EurlerDynJointVerify 00000001800e64c0 f   c8_EurlerDynJointVerify.obj
 0001:000e55b0       get_sim_state_c8_EurlerDynJointVerify 00000001800e65b0 f   c8_EurlerDynJointVerify.obj
 0001:000e57e0       sf_opaque_set_sim_state_c8_EurlerDynJointVerify 00000001800e67e0 f   c8_EurlerDynJointVerify.obj
 0001:000e5810       sf_internal_set_sim_state_c8_EurlerDynJointVerify 00000001800e6810 f   c8_EurlerDynJointVerify.obj
 0001:000e5930       set_sim_state_c8_EurlerDynJointVerify 00000001800e6930 f   c8_EurlerDynJointVerify.obj
 0001:000e5a60       c8_update_debugger_state_c8_EurlerDynJointVerify 00000001800e6a60 f   c8_EurlerDynJointVerify.obj
 0001:000e5a70       c8_emlrt_marshallIn        00000001800e6a70 f   c8_EurlerDynJointVerify.obj
 0001:000e5b40       c8_b_emlrt_marshallIn      00000001800e6b40 f   c8_EurlerDynJointVerify.obj
 0001:000e5bd0       sf_opaque_terminate_c8_EurlerDynJointVerify 00000001800e6bd0 f   c8_EurlerDynJointVerify.obj
 0001:000e5c50       finalize_c8_EurlerDynJointVerify 00000001800e6c50 f   c8_EurlerDynJointVerify.obj
 0001:000e5c60       sf_opaque_init_subchart_simstructs 00000001800e6c60 f   c8_EurlerDynJointVerify.obj
 0001:000e5c80       compInitSubchartSimstructsFcn_c8_EurlerDynJointVerify 00000001800e6c80 f   c8_EurlerDynJointVerify.obj
 0001:000e5c90       mdlRTW_c8_EurlerDynJointVerify 00000001800e6c90 f   c8_EurlerDynJointVerify.obj
 0001:000e6110       c9_info_helper             00000001800e7110 f   c9_EurlerDynJointVerify.obj
 0001:000e7f30       c9_b_info_helper           00000001800e8f30 f   c9_EurlerDynJointVerify.obj
 0001:000e9860       mdlProcessParameters_c9_EurlerDynJointVerify 00000001800ea860 f   c9_EurlerDynJointVerify.obj
 0001:000e9920       initialize_params_c9_EurlerDynJointVerify 00000001800ea920 f   c9_EurlerDynJointVerify.obj
 0001:000e9a10       mdlSetWorkWidths_c9_EurlerDynJointVerify 00000001800eaa10 f   c9_EurlerDynJointVerify.obj
 0001:000e9ed0       mdlStart_c9_EurlerDynJointVerify 00000001800eaed0 f   c9_EurlerDynJointVerify.obj
 0001:000ea0e0       init_dsm_address_info      00000001800eb0e0 f   c9_EurlerDynJointVerify.obj
 0001:000ea0f0       sf_get_sim_state_info_c9_EurlerDynJointVerify 00000001800eb0f0 f   c9_EurlerDynJointVerify.obj
 0001:000ea1b0       chart_debug_initialization 00000001800eb1b0 f   c9_EurlerDynJointVerify.obj
 0001:000eae50       init_script_number_translation 00000001800ebe50 f   c9_EurlerDynJointVerify.obj
 0001:000eaf00       c9_sf_marshall             00000001800ebf00 f   c9_EurlerDynJointVerify.obj
 0001:000eb040       c9_b_sf_marshall           00000001800ec040 f   c9_EurlerDynJointVerify.obj
 0001:000eb1a0       c9_c_sf_marshall           00000001800ec1a0 f   c9_EurlerDynJointVerify.obj
 0001:000eb2c0       sf_opaque_initialize_c9_EurlerDynJointVerify 00000001800ec2c0 f   c9_EurlerDynJointVerify.obj
 0001:000eb300       initialize_c9_EurlerDynJointVerify 00000001800ec300 f   c9_EurlerDynJointVerify.obj
 0001:000eb340       sf_opaque_enable_c9_EurlerDynJointVerify 00000001800ec340 f   c9_EurlerDynJointVerify.obj
 0001:000eb360       enable_c9_EurlerDynJointVerify 00000001800ec360 f   c9_EurlerDynJointVerify.obj
 0001:000eb390       sf_opaque_disable_c9_EurlerDynJointVerify 00000001800ec390 f   c9_EurlerDynJointVerify.obj
 0001:000eb3b0       disable_c9_EurlerDynJointVerify 00000001800ec3b0 f   c9_EurlerDynJointVerify.obj
 0001:000eb3e0       sf_opaque_gateway_c9_EurlerDynJointVerify 00000001800ec3e0 f   c9_EurlerDynJointVerify.obj
 0001:000eb400       sf_c9_EurlerDynJointVerify 00000001800ec400 f   c9_EurlerDynJointVerify.obj
 0001:000eb6e0       c9_c9_EurlerDynJointVerify 00000001800ec6e0 f   c9_EurlerDynJointVerify.obj
 0001:000ed530       c9_fwd_kin                 00000001800ee530 f   c9_EurlerDynJointVerify.obj
 0001:000f0ec0       c9_body_Jacobian           00000001800f1ec0 f   c9_EurlerDynJointVerify.obj
 0001:000f4380       c9_AdjointInv              00000001800f5380 f   c9_EurlerDynJointVerify.obj
 0001:000f5600       c9_eml_scalar_eg           00000001800f6600 f   c9_EurlerDynJointVerify.obj
 0001:000f5610       c9_eml_matlab_zgetrf       00000001800f6610 f   c9_EurlerDynJointVerify.obj
 0001:000f6470       c9_eps                     00000001800f7470 f   c9_EurlerDynJointVerify.obj
 0001:000f6480       c9_eml_ixamax              00000001800f7480 f   c9_EurlerDynJointVerify.obj
 0001:000f6590       c9_ceval_ixamax            00000001800f7590 f   c9_EurlerDynJointVerify.obj
 0001:000f6660       c9_ceval_xswap             00000001800f7660 f   c9_EurlerDynJointVerify.obj
 0001:000f6810       c9_ceval_xger              00000001800f7810 f   c9_EurlerDynJointVerify.obj
 0001:000f6ab0       c9_eml_warning             00000001800f7ab0 f   c9_EurlerDynJointVerify.obj
 0001:000f6c80       c9_eml_blas_xtrsm          00000001800f7c80 f   c9_EurlerDynJointVerify.obj
 0001:000f6e10       c9_ceval_xtrsm             00000001800f7e10 f   c9_EurlerDynJointVerify.obj
 0001:000f7030       c9_b_eml_blas_xtrsm        00000001800f8030 f   c9_EurlerDynJointVerify.obj
 0001:000f71c0       c9_b_ceval_xtrsm           00000001800f81c0 f   c9_EurlerDynJointVerify.obj
 0001:000f73e0       c9_b_eml_scalar_eg         00000001800f83e0 f   c9_EurlerDynJointVerify.obj
 0001:000f73f0       c9_d_sf_marshall           00000001800f83f0 f   c9_EurlerDynJointVerify.obj
 0001:000f74a0       c9_e_sf_marshall           00000001800f84a0 f   c9_EurlerDynJointVerify.obj
 0001:000f7680       c9_f_sf_marshall           00000001800f8680 f   c9_EurlerDynJointVerify.obj
 0001:000f7890       c9_g_sf_marshall           00000001800f8890 f   c9_EurlerDynJointVerify.obj
 0001:000f79e0       c9_h_sf_marshall           00000001800f89e0 f   c9_EurlerDynJointVerify.obj
 0001:000f7bf0       sf_opaque_get_sim_state_c9_EurlerDynJointVerify 00000001800f8bf0 f   c9_EurlerDynJointVerify.obj
 0001:000f7c10       sf_internal_get_sim_state_c9_EurlerDynJointVerify 00000001800f8c10 f   c9_EurlerDynJointVerify.obj
 0001:000f7d00       get_sim_state_c9_EurlerDynJointVerify 00000001800f8d00 f   c9_EurlerDynJointVerify.obj
 0001:000f7f00       sf_opaque_set_sim_state_c9_EurlerDynJointVerify 00000001800f8f00 f   c9_EurlerDynJointVerify.obj
 0001:000f7f30       sf_internal_set_sim_state_c9_EurlerDynJointVerify 00000001800f8f30 f   c9_EurlerDynJointVerify.obj
 0001:000f8050       set_sim_state_c9_EurlerDynJointVerify 00000001800f9050 f   c9_EurlerDynJointVerify.obj
 0001:000f8170       c9_update_debugger_state_c9_EurlerDynJointVerify 00000001800f9170 f   c9_EurlerDynJointVerify.obj
 0001:000f8180       c9_emlrt_marshallIn        00000001800f9180 f   c9_EurlerDynJointVerify.obj
 0001:000f8260       c9_b_emlrt_marshallIn      00000001800f9260 f   c9_EurlerDynJointVerify.obj
 0001:000f82f0       sf_opaque_terminate_c9_EurlerDynJointVerify 00000001800f92f0 f   c9_EurlerDynJointVerify.obj
 0001:000f8370       finalize_c9_EurlerDynJointVerify 00000001800f9370 f   c9_EurlerDynJointVerify.obj
 0001:000f8380       sf_opaque_init_subchart_simstructs 00000001800f9380 f   c9_EurlerDynJointVerify.obj
 0001:000f83a0       compInitSubchartSimstructsFcn_c9_EurlerDynJointVerify 00000001800f93a0 f   c9_EurlerDynJointVerify.obj
 0001:000f83b0       mdlRTW_c9_EurlerDynJointVerify 00000001800f93b0 f   c9_EurlerDynJointVerify.obj
 0001:000f8800       c10_info_helper            00000001800f9800 f   c10_EurlerDynJointVerify.obj
 0001:000fa620       c10_b_info_helper          00000001800fb620 f   c10_EurlerDynJointVerify.obj
 0001:000fc940       mdlProcessParameters_c10_EurlerDynJointVerify 00000001800fd940 f   c10_EurlerDynJointVerify.obj
 0001:000fca00       initialize_params_c10_EurlerDynJointVerify 00000001800fda00 f   c10_EurlerDynJointVerify.obj
 0001:000fcba0       mdlSetWorkWidths_c10_EurlerDynJointVerify 00000001800fdba0 f   c10_EurlerDynJointVerify.obj
 0001:000fd0e0       mdlStart_c10_EurlerDynJointVerify 00000001800fe0e0 f   c10_EurlerDynJointVerify.obj
 0001:000fd300       init_dsm_address_info      00000001800fe300 f   c10_EurlerDynJointVerify.obj
 0001:000fd310       sf_get_sim_state_info_c10_EurlerDynJointVerify 00000001800fe310 f   c10_EurlerDynJointVerify.obj
 0001:000fd3d0       chart_debug_initialization 00000001800fe3d0 f   c10_EurlerDynJointVerify.obj
 0001:000fea80       init_script_number_translation 00000001800ffa80 f   c10_EurlerDynJointVerify.obj
 0001:000feb90       c10_sf_marshall            00000001800ffb90 f   c10_EurlerDynJointVerify.obj
 0001:000fecd0       c10_b_sf_marshall          00000001800ffcd0 f   c10_EurlerDynJointVerify.obj
 0001:000fee30       c10_c_sf_marshall          00000001800ffe30 f   c10_EurlerDynJointVerify.obj
 0001:000ff050       c10_d_sf_marshall          0000000180100050 f   c10_EurlerDynJointVerify.obj
 0001:000ff180       sf_opaque_initialize_c10_EurlerDynJointVerify 0000000180100180 f   c10_EurlerDynJointVerify.obj
 0001:000ff1c0       initialize_c10_EurlerDynJointVerify 00000001801001c0 f   c10_EurlerDynJointVerify.obj
 0001:000ff200       sf_opaque_enable_c10_EurlerDynJointVerify 0000000180100200 f   c10_EurlerDynJointVerify.obj
 0001:000ff220       enable_c10_EurlerDynJointVerify 0000000180100220 f   c10_EurlerDynJointVerify.obj
 0001:000ff250       sf_opaque_disable_c10_EurlerDynJointVerify 0000000180100250 f   c10_EurlerDynJointVerify.obj
 0001:000ff270       disable_c10_EurlerDynJointVerify 0000000180100270 f   c10_EurlerDynJointVerify.obj
 0001:000ff2a0       sf_opaque_gateway_c10_EurlerDynJointVerify 00000001801002a0 f   c10_EurlerDynJointVerify.obj
 0001:000ff2c0       sf_c10_EurlerDynJointVerify 00000001801002c0 f   c10_EurlerDynJointVerify.obj
 0001:000fff10       c10_inv_kin                0000000180100f10 f   c10_EurlerDynJointVerify.obj
 0001:00107430       c10_cross                  0000000180108430 f   c10_EurlerDynJointVerify.obj
 0001:00107630       c10_all                    0000000180108630 f   c10_EurlerDynJointVerify.obj
 0001:00107790       c10_mrdivide               0000000180108790 f   c10_EurlerDynJointVerify.obj
 0001:001088c0       c10_eml_matlab_zgetrf      00000001801098c0 f   c10_EurlerDynJointVerify.obj
 0001:00109760       c10_eps                    000000018010a760 f   c10_EurlerDynJointVerify.obj
 0001:00109770       c10_eml_ixamax             000000018010a770 f   c10_EurlerDynJointVerify.obj
 0001:00109870       c10_ceval_ixamax           000000018010a870 f   c10_EurlerDynJointVerify.obj
 0001:00109940       c10_ceval_xswap            000000018010a940 f   c10_EurlerDynJointVerify.obj
 0001:00109b10       c10_ceval_xger             000000018010ab10 f   c10_EurlerDynJointVerify.obj
 0001:00109dd0       c10_eml_warning            000000018010add0 f   c10_EurlerDynJointVerify.obj
 0001:00109fc0       c10_b_eml_scalar_eg        000000018010afc0 f   c10_EurlerDynJointVerify.obj
 0001:00109fd0       c10_eml_xtrsm              000000018010afd0 f   c10_EurlerDynJointVerify.obj
 0001:0010a840       c10_c_eml_scalar_eg        000000018010b840 f   c10_EurlerDynJointVerify.obj
 0001:0010a850       c10_eml_blas_xtrsm         000000018010b850 f   c10_EurlerDynJointVerify.obj
 0001:0010b890       c10_d_eml_scalar_eg        000000018010c890 f   c10_EurlerDynJointVerify.obj
 0001:0010b8a0       c10_atan2                  000000018010c8a0 f   c10_EurlerDynJointVerify.obj
 0001:0010b900       c10_eml_scalar_eg          000000018010c900 f   c10_EurlerDynJointVerify.obj
 0001:0010b910       c10_isInRange              000000018010c910 f   c10_EurlerDynJointVerify.obj
 0001:0010bc90       c10_expWre                 000000018010cc90 f   c10_EurlerDynJointVerify.obj
 0001:0010d2c0       c10_length                 000000018010e2c0 f   c10_EurlerDynJointVerify.obj
 0001:0010d580       c10_eye                    000000018010e580 f   c10_EurlerDynJointVerify.obj
 0001:0010d730       c10_expRot                 000000018010e730 f   c10_EurlerDynJointVerify.obj
 0001:0010e660       c10_e_eml_scalar_eg        000000018010f660 f   c10_EurlerDynJointVerify.obj
 0001:0010e670       c10_f_eml_scalar_eg        000000018010f670 f   c10_EurlerDynJointVerify.obj
 0001:0010e680       c10_subPro3                000000018010f680 f   c10_EurlerDynJointVerify.obj
 0001:001114d0       c10_g_eml_scalar_eg        00000001801124d0 f   c10_EurlerDynJointVerify.obj
 0001:001114e0       c10_ceval_xdot             00000001801124e0 f   c10_EurlerDynJointVerify.obj
 0001:00111690       c10_mpower                 0000000180112690 f   c10_EurlerDynJointVerify.obj
 0001:001116d0       c10_power                  00000001801126d0 f   c10_EurlerDynJointVerify.obj
 0001:00111780       c10_eml_error              0000000180112780 f   c10_EurlerDynJointVerify.obj
 0001:00111970       c10_norm                   0000000180112970 f   c10_EurlerDynJointVerify.obj
 0001:00111ac0       c10_ceval_xnrm2            0000000180112ac0 f   c10_EurlerDynJointVerify.obj
 0001:00111b90       c10_b_eml_error            0000000180112b90 f   c10_EurlerDynJointVerify.obj
 0001:00111d80       c10_b_isInRange            0000000180112d80 f   c10_EurlerDynJointVerify.obj
 0001:00112350       c10_any                    0000000180113350 f   c10_EurlerDynJointVerify.obj
 0001:00112560       c10_subPro1                0000000180113560 f   c10_EurlerDynJointVerify.obj
 0001:00113cb0       c10_subPro2                0000000180114cb0 f   c10_EurlerDynJointVerify.obj
 0001:00118c10       c10_findCommon             0000000180119c10 f   c10_EurlerDynJointVerify.obj
 0001:0011a350       c10_det                    000000018011b350 f   c10_EurlerDynJointVerify.obj
 0001:0011a740       c10_b_eml_matlab_zgetrf    000000018011b740 f   c10_EurlerDynJointVerify.obj
 0001:0011afb0       c10_b_eml_ixamax           000000018011bfb0 f   c10_EurlerDynJointVerify.obj
 0001:0011b070       c10_b_ceval_ixamax         000000018011c070 f   c10_EurlerDynJointVerify.obj
 0001:0011b140       c10_b_ceval_xswap          000000018011c140 f   c10_EurlerDynJointVerify.obj
 0001:0011b310       c10_b_ceval_xger           000000018011c310 f   c10_EurlerDynJointVerify.obj
 0001:0011b5d0       c10_c_eml_error            000000018011c5d0 f   c10_EurlerDynJointVerify.obj
 0001:0011b7b0       c10_b_subPro1              000000018011c7b0 f   c10_EurlerDynJointVerify.obj
 0001:0011cf00       c10_c_subPro1              000000018011df00 f   c10_EurlerDynJointVerify.obj
 0001:0011e650       c10_e_sf_marshall          000000018011f650 f   c10_EurlerDynJointVerify.obj
 0001:0011e700       c10_f_sf_marshall          000000018011f700 f   c10_EurlerDynJointVerify.obj
 0001:0011e910       c10_g_sf_marshall          000000018011f910 f   c10_EurlerDynJointVerify.obj
 0001:0011eb20       c10_h_sf_marshall          000000018011fb20 f   c10_EurlerDynJointVerify.obj
 0001:0011ebd0       c10_i_sf_marshall          000000018011fbd0 f   c10_EurlerDynJointVerify.obj
 0001:0011ecf0       c10_j_sf_marshall          000000018011fcf0 f   c10_EurlerDynJointVerify.obj
 0001:0011ee20       c10_k_sf_marshall          000000018011fe20 f   c10_EurlerDynJointVerify.obj
 0001:0011ef30       c10_l_sf_marshall          000000018011ff30 f   c10_EurlerDynJointVerify.obj
 0001:0011f130       sf_opaque_get_sim_state_c10_EurlerDynJointVerify 0000000180120130 f   c10_EurlerDynJointVerify.obj
 0001:0011f150       sf_internal_get_sim_state_c10_EurlerDynJointVerify 0000000180120150 f   c10_EurlerDynJointVerify.obj
 0001:0011f240       get_sim_state_c10_EurlerDynJointVerify 0000000180120240 f   c10_EurlerDynJointVerify.obj
 0001:0011f480       sf_opaque_set_sim_state_c10_EurlerDynJointVerify 0000000180120480 f   c10_EurlerDynJointVerify.obj
 0001:0011f4b0       sf_internal_set_sim_state_c10_EurlerDynJointVerify 00000001801204b0 f   c10_EurlerDynJointVerify.obj
 0001:0011f5d0       set_sim_state_c10_EurlerDynJointVerify 00000001801205d0 f   c10_EurlerDynJointVerify.obj
 0001:0011f700       c10_update_debugger_state_c10_EurlerDynJointVerify 0000000180120700 f   c10_EurlerDynJointVerify.obj
 0001:0011f710       c10_emlrt_marshallIn       0000000180120710 f   c10_EurlerDynJointVerify.obj
 0001:0011f7e0       c10_b_emlrt_marshallIn     00000001801207e0 f   c10_EurlerDynJointVerify.obj
 0001:0011f870       sf_opaque_terminate_c10_EurlerDynJointVerify 0000000180120870 f   c10_EurlerDynJointVerify.obj
 0001:0011f8f0       finalize_c10_EurlerDynJointVerify 00000001801208f0 f   c10_EurlerDynJointVerify.obj
 0001:0011f900       sf_opaque_init_subchart_simstructs 0000000180120900 f   c10_EurlerDynJointVerify.obj
 0001:0011f920       compInitSubchartSimstructsFcn_c10_EurlerDynJointVerify 0000000180120920 f   c10_EurlerDynJointVerify.obj
 0001:0011f930       mdlRTW_c10_EurlerDynJointVerify 0000000180120930 f   c10_EurlerDynJointVerify.obj
 0001:0011fd40       c11_info_helper            0000000180120d40 f   c11_EurlerDynJointVerify.obj
 0001:00121b60       c11_b_info_helper          0000000180122b60 f   c11_EurlerDynJointVerify.obj
 0001:00123490       mdlProcessParameters_c11_EurlerDynJointVerify 0000000180124490 f   c11_EurlerDynJointVerify.obj
 0001:00123550       initialize_params_c11_EurlerDynJointVerify 0000000180124550 f   c11_EurlerDynJointVerify.obj
 0001:00123630       mdlSetWorkWidths_c11_EurlerDynJointVerify 0000000180124630 f   c11_EurlerDynJointVerify.obj
 0001:00123af0       mdlStart_c11_EurlerDynJointVerify 0000000180124af0 f   c11_EurlerDynJointVerify.obj
 0001:00123d00       init_dsm_address_info      0000000180124d00 f   c11_EurlerDynJointVerify.obj
 0001:00123d10       sf_get_sim_state_info_c11_EurlerDynJointVerify 0000000180124d10 f   c11_EurlerDynJointVerify.obj
 0001:00123dd0       chart_debug_initialization 0000000180124dd0 f   c11_EurlerDynJointVerify.obj
 0001:00124a70       init_script_number_translation 0000000180125a70 f   c11_EurlerDynJointVerify.obj
 0001:00124b20       c11_sf_marshall            0000000180125b20 f   c11_EurlerDynJointVerify.obj
 0001:00124c60       c11_b_sf_marshall          0000000180125c60 f   c11_EurlerDynJointVerify.obj
 0001:00124db0       c11_c_sf_marshall          0000000180125db0 f   c11_EurlerDynJointVerify.obj
 0001:00124ef0       sf_opaque_initialize_c11_EurlerDynJointVerify 0000000180125ef0 f   c11_EurlerDynJointVerify.obj
 0001:00124f30       initialize_c11_EurlerDynJointVerify 0000000180125f30 f   c11_EurlerDynJointVerify.obj
 0001:00124f70       sf_opaque_enable_c11_EurlerDynJointVerify 0000000180125f70 f   c11_EurlerDynJointVerify.obj
 0001:00124f90       enable_c11_EurlerDynJointVerify 0000000180125f90 f   c11_EurlerDynJointVerify.obj
 0001:00124fc0       sf_opaque_disable_c11_EurlerDynJointVerify 0000000180125fc0 f   c11_EurlerDynJointVerify.obj
 0001:00124fe0       disable_c11_EurlerDynJointVerify 0000000180125fe0 f   c11_EurlerDynJointVerify.obj
 0001:00125010       sf_opaque_gateway_c11_EurlerDynJointVerify 0000000180126010 f   c11_EurlerDynJointVerify.obj
 0001:00125030       sf_c11_EurlerDynJointVerify 0000000180126030 f   c11_EurlerDynJointVerify.obj
 0001:00125300       c11_c11_EurlerDynJointVerify 0000000180126300 f   c11_EurlerDynJointVerify.obj
 0001:00127170       c11_fwd_kin                0000000180128170 f   c11_EurlerDynJointVerify.obj
 0001:0012ab70       c11_body_Jacobian          000000018012bb70 f   c11_EurlerDynJointVerify.obj
 0001:0012e040       c11_AdjointInv             000000018012f040 f   c11_EurlerDynJointVerify.obj
 0001:0012f2d0       c11_eml_scalar_eg          00000001801302d0 f   c11_EurlerDynJointVerify.obj
 0001:0012f2e0       c11_eml_matlab_zgetrf      00000001801302e0 f   c11_EurlerDynJointVerify.obj
 0001:00130100       c11_eps                    0000000180131100 f   c11_EurlerDynJointVerify.obj
 0001:00130110       c11_eml_ixamax             0000000180131110 f   c11_EurlerDynJointVerify.obj
 0001:00130210       c11_ceval_ixamax           0000000180131210 f   c11_EurlerDynJointVerify.obj
 0001:001302e0       c11_ceval_xswap            00000001801312e0 f   c11_EurlerDynJointVerify.obj
 0001:00130490       c11_ceval_xger             0000000180131490 f   c11_EurlerDynJointVerify.obj
 0001:00130730       c11_eml_warning            0000000180131730 f   c11_EurlerDynJointVerify.obj
 0001:00130900       c11_eml_blas_xtrsm         0000000180131900 f   c11_EurlerDynJointVerify.obj
 0001:00130a70       c11_ceval_xtrsm            0000000180131a70 f   c11_EurlerDynJointVerify.obj
 0001:00130c90       c11_b_eml_blas_xtrsm       0000000180131c90 f   c11_EurlerDynJointVerify.obj
 0001:00130e00       c11_b_ceval_xtrsm          0000000180131e00 f   c11_EurlerDynJointVerify.obj
 0001:00131020       c11_b_eml_scalar_eg        0000000180132020 f   c11_EurlerDynJointVerify.obj
 0001:00131030       c11_d_sf_marshall          0000000180132030 f   c11_EurlerDynJointVerify.obj
 0001:001310e0       c11_e_sf_marshall          00000001801320e0 f   c11_EurlerDynJointVerify.obj
 0001:001312e0       c11_f_sf_marshall          00000001801322e0 f   c11_EurlerDynJointVerify.obj
 0001:001314e0       c11_g_sf_marshall          00000001801324e0 f   c11_EurlerDynJointVerify.obj
 0001:00131640       c11_h_sf_marshall          0000000180132640 f   c11_EurlerDynJointVerify.obj
 0001:00131840       sf_opaque_get_sim_state_c11_EurlerDynJointVerify 0000000180132840 f   c11_EurlerDynJointVerify.obj
 0001:00131860       sf_internal_get_sim_state_c11_EurlerDynJointVerify 0000000180132860 f   c11_EurlerDynJointVerify.obj
 0001:00131950       get_sim_state_c11_EurlerDynJointVerify 0000000180132950 f   c11_EurlerDynJointVerify.obj
 0001:00131b60       sf_opaque_set_sim_state_c11_EurlerDynJointVerify 0000000180132b60 f   c11_EurlerDynJointVerify.obj
 0001:00131b90       sf_internal_set_sim_state_c11_EurlerDynJointVerify 0000000180132b90 f   c11_EurlerDynJointVerify.obj
 0001:00131cb0       set_sim_state_c11_EurlerDynJointVerify 0000000180132cb0 f   c11_EurlerDynJointVerify.obj
 0001:00131dd0       c11_update_debugger_state_c11_EurlerDynJointVerify 0000000180132dd0 f   c11_EurlerDynJointVerify.obj
 0001:00131de0       c11_emlrt_marshallIn       0000000180132de0 f   c11_EurlerDynJointVerify.obj
 0001:00131ec0       c11_b_emlrt_marshallIn     0000000180132ec0 f   c11_EurlerDynJointVerify.obj
 0001:00131f50       sf_opaque_terminate_c11_EurlerDynJointVerify 0000000180132f50 f   c11_EurlerDynJointVerify.obj
 0001:00131fd0       finalize_c11_EurlerDynJointVerify 0000000180132fd0 f   c11_EurlerDynJointVerify.obj
 0001:00131fe0       sf_opaque_init_subchart_simstructs 0000000180132fe0 f   c11_EurlerDynJointVerify.obj
 0001:00132000       compInitSubchartSimstructsFcn_c11_EurlerDynJointVerify 0000000180133000 f   c11_EurlerDynJointVerify.obj
 0001:00132010       mdlRTW_c11_EurlerDynJointVerify 0000000180133010 f   c11_EurlerDynJointVerify.obj
 0001:00132410       c12_info_helper            0000000180133410 f   c12_EurlerDynJointVerify.obj
 0001:00133d30       mdlProcessParameters_c12_EurlerDynJointVerify 0000000180134d30 f   c12_EurlerDynJointVerify.obj
 0001:00133df0       initialize_params_c12_EurlerDynJointVerify 0000000180134df0 f   c12_EurlerDynJointVerify.obj
 0001:00133ed0       mdlSetWorkWidths_c12_EurlerDynJointVerify 0000000180134ed0 f   c12_EurlerDynJointVerify.obj
 0001:00134360       mdlStart_c12_EurlerDynJointVerify 0000000180135360 f   c12_EurlerDynJointVerify.obj
 0001:00134570       init_dsm_address_info      0000000180135570 f   c12_EurlerDynJointVerify.obj
 0001:00134580       sf_get_sim_state_info_c12_EurlerDynJointVerify 0000000180135580 f   c12_EurlerDynJointVerify.obj
 0001:00134640       chart_debug_initialization 0000000180135640 f   c12_EurlerDynJointVerify.obj
 0001:00134ed0       init_script_number_translation 0000000180135ed0 f   c12_EurlerDynJointVerify.obj
 0001:00134f10       c12_sf_marshall            0000000180135f10 f   c12_EurlerDynJointVerify.obj
 0001:00135050       c12_b_sf_marshall          0000000180136050 f   c12_EurlerDynJointVerify.obj
 0001:001351c0       c12_c_sf_marshall          00000001801361c0 f   c12_EurlerDynJointVerify.obj
 0001:00135300       sf_opaque_initialize_c12_EurlerDynJointVerify 0000000180136300 f   c12_EurlerDynJointVerify.obj
 0001:00135340       initialize_c12_EurlerDynJointVerify 0000000180136340 f   c12_EurlerDynJointVerify.obj
 0001:00135380       sf_opaque_enable_c12_EurlerDynJointVerify 0000000180136380 f   c12_EurlerDynJointVerify.obj
 0001:001353a0       enable_c12_EurlerDynJointVerify 00000001801363a0 f   c12_EurlerDynJointVerify.obj
 0001:001353d0       sf_opaque_disable_c12_EurlerDynJointVerify 00000001801363d0 f   c12_EurlerDynJointVerify.obj
 0001:001353f0       disable_c12_EurlerDynJointVerify 00000001801363f0 f   c12_EurlerDynJointVerify.obj
 0001:00135420       sf_opaque_gateway_c12_EurlerDynJointVerify 0000000180136420 f   c12_EurlerDynJointVerify.obj
 0001:00135440       sf_c12_EurlerDynJointVerify 0000000180136440 f   c12_EurlerDynJointVerify.obj
 0001:00135c80       c12_fwd_kin                0000000180136c80 f   c12_EurlerDynJointVerify.obj
 0001:00139600       c12_d_sf_marshall          000000018013a600 f   c12_EurlerDynJointVerify.obj
 0001:001396b0       c12_e_sf_marshall          000000018013a6b0 f   c12_EurlerDynJointVerify.obj
 0001:001398e0       c12_f_sf_marshall          000000018013a8e0 f   c12_EurlerDynJointVerify.obj
 0001:00139a50       sf_opaque_get_sim_state_c12_EurlerDynJointVerify 000000018013aa50 f   c12_EurlerDynJointVerify.obj
 0001:00139a70       sf_internal_get_sim_state_c12_EurlerDynJointVerify 000000018013aa70 f   c12_EurlerDynJointVerify.obj
 0001:00139b60       get_sim_state_c12_EurlerDynJointVerify 000000018013ab60 f   c12_EurlerDynJointVerify.obj
 0001:00139d80       sf_opaque_set_sim_state_c12_EurlerDynJointVerify 000000018013ad80 f   c12_EurlerDynJointVerify.obj
 0001:00139db0       sf_internal_set_sim_state_c12_EurlerDynJointVerify 000000018013adb0 f   c12_EurlerDynJointVerify.obj
 0001:00139ed0       set_sim_state_c12_EurlerDynJointVerify 000000018013aed0 f   c12_EurlerDynJointVerify.obj
 0001:00139fe0       c12_update_debugger_state_c12_EurlerDynJointVerify 000000018013afe0 f   c12_EurlerDynJointVerify.obj
 0001:00139ff0       c12_emlrt_marshallIn       000000018013aff0 f   c12_EurlerDynJointVerify.obj
 0001:0013a0c0       c12_b_emlrt_marshallIn     000000018013b0c0 f   c12_EurlerDynJointVerify.obj
 0001:0013a150       sf_opaque_terminate_c12_EurlerDynJointVerify 000000018013b150 f   c12_EurlerDynJointVerify.obj
 0001:0013a1d0       finalize_c12_EurlerDynJointVerify 000000018013b1d0 f   c12_EurlerDynJointVerify.obj
 0001:0013a1e0       sf_opaque_init_subchart_simstructs 000000018013b1e0 f   c12_EurlerDynJointVerify.obj
 0001:0013a200       compInitSubchartSimstructsFcn_c12_EurlerDynJointVerify 000000018013b200 f   c12_EurlerDynJointVerify.obj
 0001:0013a210       mdlRTW_c12_EurlerDynJointVerify 000000018013b210 f   c12_EurlerDynJointVerify.obj
 0001:0013a640       c13_info_helper            000000018013b640 f   c13_EurlerDynJointVerify.obj
 0001:0013ca20       mdlProcessParameters_c13_EurlerDynJointVerify 000000018013da20 f   c13_EurlerDynJointVerify.obj
 0001:0013cae0       initialize_params_c13_EurlerDynJointVerify 000000018013dae0 f   c13_EurlerDynJointVerify.obj
 0001:0013cbd0       mdlSetWorkWidths_c13_EurlerDynJointVerify 000000018013dbd0 f   c13_EurlerDynJointVerify.obj
 0001:0013d090       mdlStart_c13_EurlerDynJointVerify 000000018013e090 f   c13_EurlerDynJointVerify.obj
 0001:0013d2a0       init_dsm_address_info      000000018013e2a0 f   c13_EurlerDynJointVerify.obj
 0001:0013d2b0       sf_get_sim_state_info_c13_EurlerDynJointVerify 000000018013e2b0 f   c13_EurlerDynJointVerify.obj
 0001:0013d370       chart_debug_initialization 000000018013e370 f   c13_EurlerDynJointVerify.obj
 0001:0013ddf0       init_script_number_translation 000000018013edf0 f   c13_EurlerDynJointVerify.obj
 0001:0013de50       c13_sf_marshall            000000018013ee50 f   c13_EurlerDynJointVerify.obj
 0001:0013df90       c13_b_sf_marshall          000000018013ef90 f   c13_EurlerDynJointVerify.obj
 0001:0013e0f0       c13_c_sf_marshall          000000018013f0f0 f   c13_EurlerDynJointVerify.obj
 0001:0013e230       sf_opaque_initialize_c13_EurlerDynJointVerify 000000018013f230 f   c13_EurlerDynJointVerify.obj
 0001:0013e270       initialize_c13_EurlerDynJointVerify 000000018013f270 f   c13_EurlerDynJointVerify.obj
 0001:0013e2b0       sf_opaque_enable_c13_EurlerDynJointVerify 000000018013f2b0 f   c13_EurlerDynJointVerify.obj
 0001:0013e2d0       enable_c13_EurlerDynJointVerify 000000018013f2d0 f   c13_EurlerDynJointVerify.obj
 0001:0013e300       sf_opaque_disable_c13_EurlerDynJointVerify 000000018013f300 f   c13_EurlerDynJointVerify.obj
 0001:0013e320       disable_c13_EurlerDynJointVerify 000000018013f320 f   c13_EurlerDynJointVerify.obj
 0001:0013e350       sf_opaque_gateway_c13_EurlerDynJointVerify 000000018013f350 f   c13_EurlerDynJointVerify.obj
 0001:0013e370       sf_c13_EurlerDynJointVerify 000000018013f370 f   c13_EurlerDynJointVerify.obj
 0001:0013e640       c13_c13_EurlerDynJointVerify 000000018013f640 f   c13_EurlerDynJointVerify.obj
 0001:0013f560       c13_spat_Jacobian          0000000180140560 f   c13_EurlerDynJointVerify.obj
 0001:001423e0       c13_eml_scalar_eg          00000001801433e0 f   c13_EurlerDynJointVerify.obj
 0001:001423f0       c13_b_eml_scalar_eg        00000001801433f0 f   c13_EurlerDynJointVerify.obj
 0001:00142400       c13_fwd_kin                0000000180143400 f   c13_EurlerDynJointVerify.obj
 0001:00145dd0       c13_d_sf_marshall          0000000180146dd0 f   c13_EurlerDynJointVerify.obj
 0001:00145e80       c13_e_sf_marshall          0000000180146e80 f   c13_EurlerDynJointVerify.obj
 0001:001460a0       c13_f_sf_marshall          00000001801470a0 f   c13_EurlerDynJointVerify.obj
 0001:001462c0       c13_g_sf_marshall          00000001801472c0 f   c13_EurlerDynJointVerify.obj
 0001:00146420       sf_opaque_get_sim_state_c13_EurlerDynJointVerify 0000000180147420 f   c13_EurlerDynJointVerify.obj
 0001:00146440       sf_internal_get_sim_state_c13_EurlerDynJointVerify 0000000180147440 f   c13_EurlerDynJointVerify.obj
 0001:00146530       get_sim_state_c13_EurlerDynJointVerify 0000000180147530 f   c13_EurlerDynJointVerify.obj
 0001:00146750       sf_opaque_set_sim_state_c13_EurlerDynJointVerify 0000000180147750 f   c13_EurlerDynJointVerify.obj
 0001:00146780       sf_internal_set_sim_state_c13_EurlerDynJointVerify 0000000180147780 f   c13_EurlerDynJointVerify.obj
 0001:001468a0       set_sim_state_c13_EurlerDynJointVerify 00000001801478a0 f   c13_EurlerDynJointVerify.obj
 0001:001469b0       c13_update_debugger_state_c13_EurlerDynJointVerify 00000001801479b0 f   c13_EurlerDynJointVerify.obj
 0001:001469c0       c13_emlrt_marshallIn       00000001801479c0 f   c13_EurlerDynJointVerify.obj
 0001:00146a90       c13_b_emlrt_marshallIn     0000000180147a90 f   c13_EurlerDynJointVerify.obj
 0001:00146b20       sf_opaque_terminate_c13_EurlerDynJointVerify 0000000180147b20 f   c13_EurlerDynJointVerify.obj
 0001:00146ba0       finalize_c13_EurlerDynJointVerify 0000000180147ba0 f   c13_EurlerDynJointVerify.obj
 0001:00146bb0       sf_opaque_init_subchart_simstructs 0000000180147bb0 f   c13_EurlerDynJointVerify.obj
 0001:00146bd0       compInitSubchartSimstructsFcn_c13_EurlerDynJointVerify 0000000180147bd0 f   c13_EurlerDynJointVerify.obj
 0001:00146be0       mdlRTW_c13_EurlerDynJointVerify 0000000180147be0 f   c13_EurlerDynJointVerify.obj
 0001:00146ff0       c14_info_helper            0000000180147ff0 f   c14_EurlerDynJointVerify.obj
 0001:00148e10       c14_b_info_helper          0000000180149e10 f   c14_EurlerDynJointVerify.obj
 0001:0014b130       mdlProcessParameters_c14_EurlerDynJointVerify 000000018014c130 f   c14_EurlerDynJointVerify.obj
 0001:0014b1f0       initialize_params_c14_EurlerDynJointVerify 000000018014c1f0 f   c14_EurlerDynJointVerify.obj
 0001:0014b390       mdlSetWorkWidths_c14_EurlerDynJointVerify 000000018014c390 f   c14_EurlerDynJointVerify.obj
 0001:0014b8d0       mdlStart_c14_EurlerDynJointVerify 000000018014c8d0 f   c14_EurlerDynJointVerify.obj
 0001:0014baf0       init_dsm_address_info      000000018014caf0 f   c14_EurlerDynJointVerify.obj
 0001:0014bb00       sf_get_sim_state_info_c14_EurlerDynJointVerify 000000018014cb00 f   c14_EurlerDynJointVerify.obj
 0001:0014bbc0       chart_debug_initialization 000000018014cbc0 f   c14_EurlerDynJointVerify.obj
 0001:0014d270       init_script_number_translation 000000018014e270 f   c14_EurlerDynJointVerify.obj
 0001:0014d380       c14_sf_marshall            000000018014e380 f   c14_EurlerDynJointVerify.obj
 0001:0014d4d0       c14_b_sf_marshall          000000018014e4d0 f   c14_EurlerDynJointVerify.obj
 0001:0014d640       c14_c_sf_marshall          000000018014e640 f   c14_EurlerDynJointVerify.obj
 0001:0014d870       c14_d_sf_marshall          000000018014e870 f   c14_EurlerDynJointVerify.obj
 0001:0014d9b0       sf_opaque_initialize_c14_EurlerDynJointVerify 000000018014e9b0 f   c14_EurlerDynJointVerify.obj
 0001:0014d9f0       initialize_c14_EurlerDynJointVerify 000000018014e9f0 f   c14_EurlerDynJointVerify.obj
 0001:0014da30       sf_opaque_enable_c14_EurlerDynJointVerify 000000018014ea30 f   c14_EurlerDynJointVerify.obj
 0001:0014da50       enable_c14_EurlerDynJointVerify 000000018014ea50 f   c14_EurlerDynJointVerify.obj
 0001:0014da80       sf_opaque_disable_c14_EurlerDynJointVerify 000000018014ea80 f   c14_EurlerDynJointVerify.obj
 0001:0014daa0       disable_c14_EurlerDynJointVerify 000000018014eaa0 f   c14_EurlerDynJointVerify.obj
 0001:0014dad0       sf_opaque_gateway_c14_EurlerDynJointVerify 000000018014ead0 f   c14_EurlerDynJointVerify.obj
 0001:0014daf0       sf_c14_EurlerDynJointVerify 000000018014eaf0 f   c14_EurlerDynJointVerify.obj
 0001:0014e700       c14_inv_kin                000000018014f700 f   c14_EurlerDynJointVerify.obj
 0001:00155c20       c14_cross                  0000000180156c20 f   c14_EurlerDynJointVerify.obj
 0001:00155e20       c14_all                    0000000180156e20 f   c14_EurlerDynJointVerify.obj
 0001:00155f80       c14_mrdivide               0000000180156f80 f   c14_EurlerDynJointVerify.obj
 0001:001570c0       c14_eml_matlab_zgetrf      00000001801580c0 f   c14_EurlerDynJointVerify.obj
 0001:00157f40       c14_eps                    0000000180158f40 f   c14_EurlerDynJointVerify.obj
 0001:00157f50       c14_eml_ixamax             0000000180158f50 f   c14_EurlerDynJointVerify.obj
 0001:00158050       c14_ceval_ixamax           0000000180159050 f   c14_EurlerDynJointVerify.obj
 0001:00158120       c14_ceval_xswap            0000000180159120 f   c14_EurlerDynJointVerify.obj
 0001:001582f0       c14_ceval_xger             00000001801592f0 f   c14_EurlerDynJointVerify.obj
 0001:001585b0       c14_eml_warning            00000001801595b0 f   c14_EurlerDynJointVerify.obj
 0001:001587a0       c14_b_eml_scalar_eg        00000001801597a0 f   c14_EurlerDynJointVerify.obj
 0001:001587b0       c14_eml_xtrsm              00000001801597b0 f   c14_EurlerDynJointVerify.obj
 0001:00158fd0       c14_c_eml_scalar_eg        0000000180159fd0 f   c14_EurlerDynJointVerify.obj
 0001:00158fe0       c14_eml_blas_xtrsm         0000000180159fe0 f   c14_EurlerDynJointVerify.obj
 0001:00159fe0       c14_d_eml_scalar_eg        000000018015afe0 f   c14_EurlerDynJointVerify.obj
 0001:00159ff0       c14_atan2                  000000018015aff0 f   c14_EurlerDynJointVerify.obj
 0001:0015a050       c14_eml_scalar_eg          000000018015b050 f   c14_EurlerDynJointVerify.obj
 0001:0015a060       c14_isInRange              000000018015b060 f   c14_EurlerDynJointVerify.obj
 0001:0015a3e0       c14_expWre                 000000018015b3e0 f   c14_EurlerDynJointVerify.obj
 0001:0015b9e0       c14_length                 000000018015c9e0 f   c14_EurlerDynJointVerify.obj
 0001:0015bca0       c14_eye                    000000018015cca0 f   c14_EurlerDynJointVerify.obj
 0001:0015be50       c14_expRot                 000000018015ce50 f   c14_EurlerDynJointVerify.obj
 0001:0015cd00       c14_e_eml_scalar_eg        000000018015dd00 f   c14_EurlerDynJointVerify.obj
 0001:0015cd10       c14_f_eml_scalar_eg        000000018015dd10 f   c14_EurlerDynJointVerify.obj
 0001:0015cd20       c14_subPro3                000000018015dd20 f   c14_EurlerDynJointVerify.obj
 0001:0015fb40       c14_g_eml_scalar_eg        0000000180160b40 f   c14_EurlerDynJointVerify.obj
 0001:0015fb50       c14_ceval_xdot             0000000180160b50 f   c14_EurlerDynJointVerify.obj
 0001:0015fd00       c14_mpower                 0000000180160d00 f   c14_EurlerDynJointVerify.obj
 0001:0015fd40       c14_power                  0000000180160d40 f   c14_EurlerDynJointVerify.obj
 0001:0015fdf0       c14_eml_error              0000000180160df0 f   c14_EurlerDynJointVerify.obj
 0001:0015ffd0       c14_norm                   0000000180160fd0 f   c14_EurlerDynJointVerify.obj
 0001:00160110       c14_ceval_xnrm2            0000000180161110 f   c14_EurlerDynJointVerify.obj
 0001:001601e0       c14_b_eml_error            00000001801611e0 f   c14_EurlerDynJointVerify.obj
 0001:001603c0       c14_b_isInRange            00000001801613c0 f   c14_EurlerDynJointVerify.obj
 0001:00160940       c14_any                    0000000180161940 f   c14_EurlerDynJointVerify.obj
 0001:00160b50       c14_subPro1                0000000180161b50 f   c14_EurlerDynJointVerify.obj
 0001:00162290       c14_subPro2                0000000180163290 f   c14_EurlerDynJointVerify.obj
 0001:001671b0       c14_findCommon             00000001801681b0 f   c14_EurlerDynJointVerify.obj
 0001:001688d0       c14_det                    00000001801698d0 f   c14_EurlerDynJointVerify.obj
 0001:00168cc0       c14_b_eml_matlab_zgetrf    0000000180169cc0 f   c14_EurlerDynJointVerify.obj
 0001:00169560       c14_b_eml_ixamax           000000018016a560 f   c14_EurlerDynJointVerify.obj
 0001:00169620       c14_b_ceval_ixamax         000000018016a620 f   c14_EurlerDynJointVerify.obj
 0001:001696f0       c14_b_ceval_xswap          000000018016a6f0 f   c14_EurlerDynJointVerify.obj
 0001:001698c0       c14_b_ceval_xger           000000018016a8c0 f   c14_EurlerDynJointVerify.obj
 0001:00169b80       c14_c_eml_error            000000018016ab80 f   c14_EurlerDynJointVerify.obj
 0001:00169d60       c14_b_subPro1              000000018016ad60 f   c14_EurlerDynJointVerify.obj
 0001:0016b4a0       c14_c_subPro1              000000018016c4a0 f   c14_EurlerDynJointVerify.obj
 0001:0016cbe0       c14_e_sf_marshall          000000018016dbe0 f   c14_EurlerDynJointVerify.obj
 0001:0016cc90       c14_f_sf_marshall          000000018016dc90 f   c14_EurlerDynJointVerify.obj
 0001:0016cec0       c14_g_sf_marshall          000000018016dec0 f   c14_EurlerDynJointVerify.obj
 0001:0016d0f0       c14_h_sf_marshall          000000018016e0f0 f   c14_EurlerDynJointVerify.obj
 0001:0016d1a0       c14_i_sf_marshall          000000018016e1a0 f   c14_EurlerDynJointVerify.obj
 0001:0016d2c0       c14_j_sf_marshall          000000018016e2c0 f   c14_EurlerDynJointVerify.obj
 0001:0016d400       c14_k_sf_marshall          000000018016e400 f   c14_EurlerDynJointVerify.obj
 0001:0016d510       c14_l_sf_marshall          000000018016e510 f   c14_EurlerDynJointVerify.obj
 0001:0016d700       sf_opaque_get_sim_state_c14_EurlerDynJointVerify 000000018016e700 f   c14_EurlerDynJointVerify.obj
 0001:0016d720       sf_internal_get_sim_state_c14_EurlerDynJointVerify 000000018016e720 f   c14_EurlerDynJointVerify.obj
 0001:0016d810       get_sim_state_c14_EurlerDynJointVerify 000000018016e810 f   c14_EurlerDynJointVerify.obj
 0001:0016da50       sf_opaque_set_sim_state_c14_EurlerDynJointVerify 000000018016ea50 f   c14_EurlerDynJointVerify.obj
 0001:0016da80       sf_internal_set_sim_state_c14_EurlerDynJointVerify 000000018016ea80 f   c14_EurlerDynJointVerify.obj
 0001:0016dba0       set_sim_state_c14_EurlerDynJointVerify 000000018016eba0 f   c14_EurlerDynJointVerify.obj
 0001:0016dcd0       c14_update_debugger_state_c14_EurlerDynJointVerify 000000018016ecd0 f   c14_EurlerDynJointVerify.obj
 0001:0016dce0       c14_emlrt_marshallIn       000000018016ece0 f   c14_EurlerDynJointVerify.obj
 0001:0016ddb0       c14_b_emlrt_marshallIn     000000018016edb0 f   c14_EurlerDynJointVerify.obj
 0001:0016de40       sf_opaque_terminate_c14_EurlerDynJointVerify 000000018016ee40 f   c14_EurlerDynJointVerify.obj
 0001:0016dec0       finalize_c14_EurlerDynJointVerify 000000018016eec0 f   c14_EurlerDynJointVerify.obj
 0001:0016ded0       sf_opaque_init_subchart_simstructs 000000018016eed0 f   c14_EurlerDynJointVerify.obj
 0001:0016def0       compInitSubchartSimstructsFcn_c14_EurlerDynJointVerify 000000018016eef0 f   c14_EurlerDynJointVerify.obj
 0001:0016df00       mdlRTW_c14_EurlerDynJointVerify 000000018016ef00 f   c14_EurlerDynJointVerify.obj
 0001:0016e310       c15_info_helper            000000018016f310 f   c15_EurlerDynJointVerify.obj
 0001:00170130       c15_b_info_helper          0000000180171130 f   c15_EurlerDynJointVerify.obj
 0001:00171a60       mdlProcessParameters_c15_EurlerDynJointVerify 0000000180172a60 f   c15_EurlerDynJointVerify.obj
 0001:00171b20       initialize_params_c15_EurlerDynJointVerify 0000000180172b20 f   c15_EurlerDynJointVerify.obj
 0001:00171c00       mdlSetWorkWidths_c15_EurlerDynJointVerify 0000000180172c00 f   c15_EurlerDynJointVerify.obj
 0001:001720c0       mdlStart_c15_EurlerDynJointVerify 00000001801730c0 f   c15_EurlerDynJointVerify.obj
 0001:001722d0       init_dsm_address_info      00000001801732d0 f   c15_EurlerDynJointVerify.obj
 0001:001722e0       sf_get_sim_state_info_c15_EurlerDynJointVerify 00000001801732e0 f   c15_EurlerDynJointVerify.obj
 0001:001723a0       chart_debug_initialization 00000001801733a0 f   c15_EurlerDynJointVerify.obj
 0001:00173040       init_script_number_translation 0000000180174040 f   c15_EurlerDynJointVerify.obj
 0001:001730f0       c15_sf_marshall            00000001801740f0 f   c15_EurlerDynJointVerify.obj
 0001:00173230       c15_b_sf_marshall          0000000180174230 f   c15_EurlerDynJointVerify.obj
 0001:00173390       c15_c_sf_marshall          0000000180174390 f   c15_EurlerDynJointVerify.obj
 0001:001734b0       sf_opaque_initialize_c15_EurlerDynJointVerify 00000001801744b0 f   c15_EurlerDynJointVerify.obj
 0001:001734f0       initialize_c15_EurlerDynJointVerify 00000001801744f0 f   c15_EurlerDynJointVerify.obj
 0001:00173530       sf_opaque_enable_c15_EurlerDynJointVerify 0000000180174530 f   c15_EurlerDynJointVerify.obj
 0001:00173550       enable_c15_EurlerDynJointVerify 0000000180174550 f   c15_EurlerDynJointVerify.obj
 0001:00173580       sf_opaque_disable_c15_EurlerDynJointVerify 0000000180174580 f   c15_EurlerDynJointVerify.obj
 0001:001735a0       disable_c15_EurlerDynJointVerify 00000001801745a0 f   c15_EurlerDynJointVerify.obj
 0001:001735d0       sf_opaque_gateway_c15_EurlerDynJointVerify 00000001801745d0 f   c15_EurlerDynJointVerify.obj
 0001:001735f0       sf_c15_EurlerDynJointVerify 00000001801745f0 f   c15_EurlerDynJointVerify.obj
 0001:001738c0       c15_c15_EurlerDynJointVerify 00000001801748c0 f   c15_EurlerDynJointVerify.obj
 0001:00175710       c15_fwd_kin                0000000180176710 f   c15_EurlerDynJointVerify.obj
 0001:00179140       c15_body_Jacobian          000000018017a140 f   c15_EurlerDynJointVerify.obj
 0001:0017c590       c15_AdjointInv             000000018017d590 f   c15_EurlerDynJointVerify.obj
 0001:0017d7d0       c15_eml_scalar_eg          000000018017e7d0 f   c15_EurlerDynJointVerify.obj
 0001:0017d7e0       c15_eml_matlab_zgetrf      000000018017e7e0 f   c15_EurlerDynJointVerify.obj
 0001:0017e670       c15_eps                    000000018017f670 f   c15_EurlerDynJointVerify.obj
 0001:0017e680       c15_eml_ixamax             000000018017f680 f   c15_EurlerDynJointVerify.obj
 0001:0017e770       c15_ceval_ixamax           000000018017f770 f   c15_EurlerDynJointVerify.obj
 0001:0017e840       c15_ceval_xswap            000000018017f840 f   c15_EurlerDynJointVerify.obj
 0001:0017e9f0       c15_ceval_xger             000000018017f9f0 f   c15_EurlerDynJointVerify.obj
 0001:0017ec90       c15_eml_warning            000000018017fc90 f   c15_EurlerDynJointVerify.obj
 0001:0017ee50       c15_eml_blas_xtrsm         000000018017fe50 f   c15_EurlerDynJointVerify.obj
 0001:0017efe0       c15_ceval_xtrsm            000000018017ffe0 f   c15_EurlerDynJointVerify.obj
 0001:0017f200       c15_b_eml_blas_xtrsm       0000000180180200 f   c15_EurlerDynJointVerify.obj
 0001:0017f390       c15_b_ceval_xtrsm          0000000180180390 f   c15_EurlerDynJointVerify.obj
 0001:0017f5b0       c15_b_eml_scalar_eg        00000001801805b0 f   c15_EurlerDynJointVerify.obj
 0001:0017f5c0       c15_d_sf_marshall          00000001801805c0 f   c15_EurlerDynJointVerify.obj
 0001:0017f670       c15_e_sf_marshall          0000000180180670 f   c15_EurlerDynJointVerify.obj
 0001:0017f870       c15_f_sf_marshall          0000000180180870 f   c15_EurlerDynJointVerify.obj
 0001:0017fa60       c15_g_sf_marshall          0000000180180a60 f   c15_EurlerDynJointVerify.obj
 0001:0017fbc0       c15_h_sf_marshall          0000000180180bc0 f   c15_EurlerDynJointVerify.obj
 0001:0017fdd0       sf_opaque_get_sim_state_c15_EurlerDynJointVerify 0000000180180dd0 f   c15_EurlerDynJointVerify.obj
 0001:0017fdf0       sf_internal_get_sim_state_c15_EurlerDynJointVerify 0000000180180df0 f   c15_EurlerDynJointVerify.obj
 0001:0017fee0       get_sim_state_c15_EurlerDynJointVerify 0000000180180ee0 f   c15_EurlerDynJointVerify.obj
 0001:001800f0       sf_opaque_set_sim_state_c15_EurlerDynJointVerify 00000001801810f0 f   c15_EurlerDynJointVerify.obj
 0001:00180120       sf_internal_set_sim_state_c15_EurlerDynJointVerify 0000000180181120 f   c15_EurlerDynJointVerify.obj
 0001:00180240       set_sim_state_c15_EurlerDynJointVerify 0000000180181240 f   c15_EurlerDynJointVerify.obj
 0001:00180360       c15_update_debugger_state_c15_EurlerDynJointVerify 0000000180181360 f   c15_EurlerDynJointVerify.obj
 0001:00180370       c15_emlrt_marshallIn       0000000180181370 f   c15_EurlerDynJointVerify.obj
 0001:00180440       c15_b_emlrt_marshallIn     0000000180181440 f   c15_EurlerDynJointVerify.obj
 0001:001804d0       sf_opaque_terminate_c15_EurlerDynJointVerify 00000001801814d0 f   c15_EurlerDynJointVerify.obj
 0001:00180550       finalize_c15_EurlerDynJointVerify 0000000180181550 f   c15_EurlerDynJointVerify.obj
 0001:00180560       sf_opaque_init_subchart_simstructs 0000000180181560 f   c15_EurlerDynJointVerify.obj
 0001:00180580       compInitSubchartSimstructsFcn_c15_EurlerDynJointVerify 0000000180181580 f   c15_EurlerDynJointVerify.obj
 0001:00180590       mdlRTW_c15_EurlerDynJointVerify 0000000180181590 f   c15_EurlerDynJointVerify.obj
 0001:001809f0       c16_info_helper            00000001801819f0 f   c16_EurlerDynJointVerify.obj
 0001:00182810       c16_b_info_helper          0000000180183810 f   c16_EurlerDynJointVerify.obj
 0001:00184b30       mdlProcessParameters_c16_EurlerDynJointVerify 0000000180185b30 f   c16_EurlerDynJointVerify.obj
 0001:00184bf0       initialize_params_c16_EurlerDynJointVerify 0000000180185bf0 f   c16_EurlerDynJointVerify.obj
 0001:00184db0       mdlSetWorkWidths_c16_EurlerDynJointVerify 0000000180185db0 f   c16_EurlerDynJointVerify.obj
 0001:001852f0       mdlStart_c16_EurlerDynJointVerify 00000001801862f0 f   c16_EurlerDynJointVerify.obj
 0001:00185510       init_dsm_address_info      0000000180186510 f   c16_EurlerDynJointVerify.obj
 0001:00185520       sf_get_sim_state_info_c16_EurlerDynJointVerify 0000000180186520 f   c16_EurlerDynJointVerify.obj
 0001:001855e0       chart_debug_initialization 00000001801865e0 f   c16_EurlerDynJointVerify.obj
 0001:00186c90       init_script_number_translation 0000000180187c90 f   c16_EurlerDynJointVerify.obj
 0001:00186da0       c16_sf_marshall            0000000180187da0 f   c16_EurlerDynJointVerify.obj
 0001:00186ef0       c16_b_sf_marshall          0000000180187ef0 f   c16_EurlerDynJointVerify.obj
 0001:00187060       c16_c_sf_marshall          0000000180188060 f   c16_EurlerDynJointVerify.obj
 0001:00187290       c16_d_sf_marshall          0000000180188290 f   c16_EurlerDynJointVerify.obj
 0001:001873d0       sf_opaque_initialize_c16_EurlerDynJointVerify 00000001801883d0 f   c16_EurlerDynJointVerify.obj
 0001:00187410       initialize_c16_EurlerDynJointVerify 0000000180188410 f   c16_EurlerDynJointVerify.obj
 0001:00187450       sf_opaque_enable_c16_EurlerDynJointVerify 0000000180188450 f   c16_EurlerDynJointVerify.obj
 0001:00187470       enable_c16_EurlerDynJointVerify 0000000180188470 f   c16_EurlerDynJointVerify.obj
 0001:001874a0       sf_opaque_disable_c16_EurlerDynJointVerify 00000001801884a0 f   c16_EurlerDynJointVerify.obj
 0001:001874c0       disable_c16_EurlerDynJointVerify 00000001801884c0 f   c16_EurlerDynJointVerify.obj
 0001:001874f0       sf_opaque_gateway_c16_EurlerDynJointVerify 00000001801884f0 f   c16_EurlerDynJointVerify.obj
 0001:00187510       sf_c16_EurlerDynJointVerify 0000000180188510 f   c16_EurlerDynJointVerify.obj
 0001:00188170       c16_inv_kin                0000000180189170 f   c16_EurlerDynJointVerify.obj
 0001:0018f6b0       c16_cross                  00000001801906b0 f   c16_EurlerDynJointVerify.obj
 0001:0018f8b0       c16_all                    00000001801908b0 f   c16_EurlerDynJointVerify.obj
 0001:0018fa10       c16_mrdivide               0000000180190a10 f   c16_EurlerDynJointVerify.obj
 0001:00190b70       c16_eml_matlab_zgetrf      0000000180191b70 f   c16_EurlerDynJointVerify.obj
 0001:001919f0       c16_eps                    00000001801929f0 f   c16_EurlerDynJointVerify.obj
 0001:00191a00       c16_eml_ixamax             0000000180192a00 f   c16_EurlerDynJointVerify.obj
 0001:00191b00       c16_ceval_ixamax           0000000180192b00 f   c16_EurlerDynJointVerify.obj
 0001:00191bd0       c16_ceval_xswap            0000000180192bd0 f   c16_EurlerDynJointVerify.obj
 0001:00191da0       c16_ceval_xger             0000000180192da0 f   c16_EurlerDynJointVerify.obj
 0001:00192060       c16_eml_warning            0000000180193060 f   c16_EurlerDynJointVerify.obj
 0001:00192230       c16_b_eml_scalar_eg        0000000180193230 f   c16_EurlerDynJointVerify.obj
 0001:00192240       c16_eml_xtrsm              0000000180193240 f   c16_EurlerDynJointVerify.obj
 0001:00192ab0       c16_c_eml_scalar_eg        0000000180193ab0 f   c16_EurlerDynJointVerify.obj
 0001:00192ac0       c16_eml_blas_xtrsm         0000000180193ac0 f   c16_EurlerDynJointVerify.obj
 0001:00193af0       c16_d_eml_scalar_eg        0000000180194af0 f   c16_EurlerDynJointVerify.obj
 0001:00193b00       c16_atan2                  0000000180194b00 f   c16_EurlerDynJointVerify.obj
 0001:00193b60       c16_eml_scalar_eg          0000000180194b60 f   c16_EurlerDynJointVerify.obj
 0001:00193b70       c16_isInRange              0000000180194b70 f   c16_EurlerDynJointVerify.obj
 0001:00193ed0       c16_expWre                 0000000180194ed0 f   c16_EurlerDynJointVerify.obj
 0001:00195520       c16_length                 0000000180196520 f   c16_EurlerDynJointVerify.obj
 0001:001957e0       c16_eye                    00000001801967e0 f   c16_EurlerDynJointVerify.obj
 0001:00195990       c16_expRot                 0000000180196990 f   c16_EurlerDynJointVerify.obj
 0001:001968b0       c16_e_eml_scalar_eg        00000001801978b0 f   c16_EurlerDynJointVerify.obj
 0001:001968c0       c16_f_eml_scalar_eg        00000001801978c0 f   c16_EurlerDynJointVerify.obj
 0001:001968d0       c16_subPro3                00000001801978d0 f   c16_EurlerDynJointVerify.obj
 0001:001996d0       c16_g_eml_scalar_eg        000000018019a6d0 f   c16_EurlerDynJointVerify.obj
 0001:001996e0       c16_ceval_xdot             000000018019a6e0 f   c16_EurlerDynJointVerify.obj
 0001:00199890       c16_mpower                 000000018019a890 f   c16_EurlerDynJointVerify.obj
 0001:001998d0       c16_power                  000000018019a8d0 f   c16_EurlerDynJointVerify.obj
 0001:00199980       c16_eml_error              000000018019a980 f   c16_EurlerDynJointVerify.obj
 0001:00199b60       c16_norm                   000000018019ab60 f   c16_EurlerDynJointVerify.obj
 0001:00199ca0       c16_ceval_xnrm2            000000018019aca0 f   c16_EurlerDynJointVerify.obj
 0001:00199d70       c16_b_eml_error            000000018019ad70 f   c16_EurlerDynJointVerify.obj
 0001:00199f50       c16_b_isInRange            000000018019af50 f   c16_EurlerDynJointVerify.obj
 0001:0019a4d0       c16_any                    000000018019b4d0 f   c16_EurlerDynJointVerify.obj
 0001:0019a6e0       c16_subPro1                000000018019b6e0 f   c16_EurlerDynJointVerify.obj
 0001:0019be30       c16_subPro2                000000018019ce30 f   c16_EurlerDynJointVerify.obj
 0001:001a0da0       c16_findCommon             00000001801a1da0 f   c16_EurlerDynJointVerify.obj
 0001:001a24d0       c16_det                    00000001801a34d0 f   c16_EurlerDynJointVerify.obj
 0001:001a28c0       c16_b_eml_matlab_zgetrf    00000001801a38c0 f   c16_EurlerDynJointVerify.obj
 0001:001a3130       c16_b_eml_ixamax           00000001801a4130 f   c16_EurlerDynJointVerify.obj
 0001:001a31f0       c16_b_ceval_ixamax         00000001801a41f0 f   c16_EurlerDynJointVerify.obj
 0001:001a32c0       c16_b_ceval_xswap          00000001801a42c0 f   c16_EurlerDynJointVerify.obj
 0001:001a3490       c16_b_ceval_xger           00000001801a4490 f   c16_EurlerDynJointVerify.obj
 0001:001a3750       c16_c_eml_error            00000001801a4750 f   c16_EurlerDynJointVerify.obj
 0001:001a3930       c16_b_subPro1              00000001801a4930 f   c16_EurlerDynJointVerify.obj
 0001:001a5060       c16_c_subPro1              00000001801a6060 f   c16_EurlerDynJointVerify.obj
 0001:001a67b0       c16_e_sf_marshall          00000001801a77b0 f   c16_EurlerDynJointVerify.obj
 0001:001a6860       c16_f_sf_marshall          00000001801a7860 f   c16_EurlerDynJointVerify.obj
 0001:001a6a90       c16_g_sf_marshall          00000001801a7a90 f   c16_EurlerDynJointVerify.obj
 0001:001a6cc0       c16_h_sf_marshall          00000001801a7cc0 f   c16_EurlerDynJointVerify.obj
 0001:001a6d70       c16_i_sf_marshall          00000001801a7d70 f   c16_EurlerDynJointVerify.obj
 0001:001a6e90       c16_j_sf_marshall          00000001801a7e90 f   c16_EurlerDynJointVerify.obj
 0001:001a6fe0       c16_k_sf_marshall          00000001801a7fe0 f   c16_EurlerDynJointVerify.obj
 0001:001a70f0       c16_l_sf_marshall          00000001801a80f0 f   c16_EurlerDynJointVerify.obj
 0001:001a72f0       sf_opaque_get_sim_state_c16_EurlerDynJointVerify 00000001801a82f0 f   c16_EurlerDynJointVerify.obj
 0001:001a7310       sf_internal_get_sim_state_c16_EurlerDynJointVerify 00000001801a8310 f   c16_EurlerDynJointVerify.obj
 0001:001a7400       get_sim_state_c16_EurlerDynJointVerify 00000001801a8400 f   c16_EurlerDynJointVerify.obj
 0001:001a7650       sf_opaque_set_sim_state_c16_EurlerDynJointVerify 00000001801a8650 f   c16_EurlerDynJointVerify.obj
 0001:001a7680       sf_internal_set_sim_state_c16_EurlerDynJointVerify 00000001801a8680 f   c16_EurlerDynJointVerify.obj
 0001:001a77a0       set_sim_state_c16_EurlerDynJointVerify 00000001801a87a0 f   c16_EurlerDynJointVerify.obj
 0001:001a78d0       c16_update_debugger_state_c16_EurlerDynJointVerify 00000001801a88d0 f   c16_EurlerDynJointVerify.obj
 0001:001a78e0       c16_emlrt_marshallIn       00000001801a88e0 f   c16_EurlerDynJointVerify.obj
 0001:001a79b0       c16_b_emlrt_marshallIn     00000001801a89b0 f   c16_EurlerDynJointVerify.obj
 0001:001a7a40       sf_opaque_terminate_c16_EurlerDynJointVerify 00000001801a8a40 f   c16_EurlerDynJointVerify.obj
 0001:001a7ac0       finalize_c16_EurlerDynJointVerify 00000001801a8ac0 f   c16_EurlerDynJointVerify.obj
 0001:001a7ad0       sf_opaque_init_subchart_simstructs 00000001801a8ad0 f   c16_EurlerDynJointVerify.obj
 0001:001a7af0       compInitSubchartSimstructsFcn_c16_EurlerDynJointVerify 00000001801a8af0 f   c16_EurlerDynJointVerify.obj
 0001:001a7b00       mdlRTW_c16_EurlerDynJointVerify 00000001801a8b00 f   c16_EurlerDynJointVerify.obj
 0001:001a7f60       c17_info_helper            00000001801a8f60 f   c17_EurlerDynJointVerify.obj
 0001:001a9d80       c17_b_info_helper          00000001801aad80 f   c17_EurlerDynJointVerify.obj
 0001:001ab6b0       mdlProcessParameters_c17_EurlerDynJointVerify 00000001801ac6b0 f   c17_EurlerDynJointVerify.obj
 0001:001ab770       initialize_params_c17_EurlerDynJointVerify 00000001801ac770 f   c17_EurlerDynJointVerify.obj
 0001:001ab860       mdlSetWorkWidths_c17_EurlerDynJointVerify 00000001801ac860 f   c17_EurlerDynJointVerify.obj
 0001:001abd20       mdlStart_c17_EurlerDynJointVerify 00000001801acd20 f   c17_EurlerDynJointVerify.obj
 0001:001abf30       init_dsm_address_info      00000001801acf30 f   c17_EurlerDynJointVerify.obj
 0001:001abf40       sf_get_sim_state_info_c17_EurlerDynJointVerify 00000001801acf40 f   c17_EurlerDynJointVerify.obj
 0001:001ac000       chart_debug_initialization 00000001801ad000 f   c17_EurlerDynJointVerify.obj
 0001:001acca0       init_script_number_translation 00000001801adca0 f   c17_EurlerDynJointVerify.obj
 0001:001acd50       c17_sf_marshall            00000001801add50 f   c17_EurlerDynJointVerify.obj
 0001:001ace90       c17_b_sf_marshall          00000001801ade90 f   c17_EurlerDynJointVerify.obj
 0001:001ad000       c17_c_sf_marshall          00000001801ae000 f   c17_EurlerDynJointVerify.obj
 0001:001ad130       sf_opaque_initialize_c17_EurlerDynJointVerify 00000001801ae130 f   c17_EurlerDynJointVerify.obj
 0001:001ad170       initialize_c17_EurlerDynJointVerify 00000001801ae170 f   c17_EurlerDynJointVerify.obj
 0001:001ad1b0       sf_opaque_enable_c17_EurlerDynJointVerify 00000001801ae1b0 f   c17_EurlerDynJointVerify.obj
 0001:001ad1d0       enable_c17_EurlerDynJointVerify 00000001801ae1d0 f   c17_EurlerDynJointVerify.obj
 0001:001ad200       sf_opaque_disable_c17_EurlerDynJointVerify 00000001801ae200 f   c17_EurlerDynJointVerify.obj
 0001:001ad220       disable_c17_EurlerDynJointVerify 00000001801ae220 f   c17_EurlerDynJointVerify.obj
 0001:001ad250       sf_opaque_gateway_c17_EurlerDynJointVerify 00000001801ae250 f   c17_EurlerDynJointVerify.obj
 0001:001ad270       sf_c17_EurlerDynJointVerify 00000001801ae270 f   c17_EurlerDynJointVerify.obj
 0001:001ad540       c17_c17_EurlerDynJointVerify 00000001801ae540 f   c17_EurlerDynJointVerify.obj
 0001:001af3a0       c17_fwd_kin                00000001801b03a0 f   c17_EurlerDynJointVerify.obj
 0001:001b2da0       c17_body_Jacobian          00000001801b3da0 f   c17_EurlerDynJointVerify.obj
 0001:001b62f0       c17_AdjointInv             00000001801b72f0 f   c17_EurlerDynJointVerify.obj
 0001:001b7550       c17_eml_scalar_eg          00000001801b8550 f   c17_EurlerDynJointVerify.obj
 0001:001b7560       c17_eml_matlab_zgetrf      00000001801b8560 f   c17_EurlerDynJointVerify.obj
 0001:001b83c0       c17_eps                    00000001801b93c0 f   c17_EurlerDynJointVerify.obj
 0001:001b83d0       c17_eml_ixamax             00000001801b93d0 f   c17_EurlerDynJointVerify.obj
 0001:001b84d0       c17_ceval_ixamax           00000001801b94d0 f   c17_EurlerDynJointVerify.obj
 0001:001b85a0       c17_ceval_xswap            00000001801b95a0 f   c17_EurlerDynJointVerify.obj
 0001:001b8750       c17_ceval_xger             00000001801b9750 f   c17_EurlerDynJointVerify.obj
 0001:001b89f0       c17_eml_warning            00000001801b99f0 f   c17_EurlerDynJointVerify.obj
 0001:001b8be0       c17_eml_blas_xtrsm         00000001801b9be0 f   c17_EurlerDynJointVerify.obj
 0001:001b8d40       c17_ceval_xtrsm            00000001801b9d40 f   c17_EurlerDynJointVerify.obj
 0001:001b8f60       c17_b_eml_blas_xtrsm       00000001801b9f60 f   c17_EurlerDynJointVerify.obj
 0001:001b90c0       c17_b_ceval_xtrsm          00000001801ba0c0 f   c17_EurlerDynJointVerify.obj
 0001:001b92e0       c17_b_eml_scalar_eg        00000001801ba2e0 f   c17_EurlerDynJointVerify.obj
 0001:001b92f0       c17_d_sf_marshall          00000001801ba2f0 f   c17_EurlerDynJointVerify.obj
 0001:001b93a0       c17_e_sf_marshall          00000001801ba3a0 f   c17_EurlerDynJointVerify.obj
 0001:001b95b0       c17_f_sf_marshall          00000001801ba5b0 f   c17_EurlerDynJointVerify.obj
 0001:001b97c0       c17_g_sf_marshall          00000001801ba7c0 f   c17_EurlerDynJointVerify.obj
 0001:001b9930       c17_h_sf_marshall          00000001801ba930 f   c17_EurlerDynJointVerify.obj
 0001:001b9b60       sf_opaque_get_sim_state_c17_EurlerDynJointVerify 00000001801bab60 f   c17_EurlerDynJointVerify.obj
 0001:001b9b80       sf_internal_get_sim_state_c17_EurlerDynJointVerify 00000001801bab80 f   c17_EurlerDynJointVerify.obj
 0001:001b9c70       get_sim_state_c17_EurlerDynJointVerify 00000001801bac70 f   c17_EurlerDynJointVerify.obj
 0001:001b9e90       sf_opaque_set_sim_state_c17_EurlerDynJointVerify 00000001801bae90 f   c17_EurlerDynJointVerify.obj
 0001:001b9ec0       sf_internal_set_sim_state_c17_EurlerDynJointVerify 00000001801baec0 f   c17_EurlerDynJointVerify.obj
 0001:001b9fe0       set_sim_state_c17_EurlerDynJointVerify 00000001801bafe0 f   c17_EurlerDynJointVerify.obj
 0001:001ba100       c17_update_debugger_state_c17_EurlerDynJointVerify 00000001801bb100 f   c17_EurlerDynJointVerify.obj
 0001:001ba110       c17_emlrt_marshallIn       00000001801bb110 f   c17_EurlerDynJointVerify.obj
 0001:001ba1e0       c17_b_emlrt_marshallIn     00000001801bb1e0 f   c17_EurlerDynJointVerify.obj
 0001:001ba270       sf_opaque_terminate_c17_EurlerDynJointVerify 00000001801bb270 f   c17_EurlerDynJointVerify.obj
 0001:001ba2f0       finalize_c17_EurlerDynJointVerify 00000001801bb2f0 f   c17_EurlerDynJointVerify.obj
 0001:001ba300       sf_opaque_init_subchart_simstructs 00000001801bb300 f   c17_EurlerDynJointVerify.obj
 0001:001ba320       compInitSubchartSimstructsFcn_c17_EurlerDynJointVerify 00000001801bb320 f   c17_EurlerDynJointVerify.obj
 0001:001ba330       mdlRTW_c17_EurlerDynJointVerify 00000001801bb330 f   c17_EurlerDynJointVerify.obj
 0001:001ba730       c18_info_helper            00000001801bb730 f   c18_EurlerDynJointVerify.obj
 0001:001bc050       mdlProcessParameters_c18_EurlerDynJointVerify 00000001801bd050 f   c18_EurlerDynJointVerify.obj
 0001:001bc110       initialize_params_c18_EurlerDynJointVerify 00000001801bd110 f   c18_EurlerDynJointVerify.obj
 0001:001bc200       mdlSetWorkWidths_c18_EurlerDynJointVerify 00000001801bd200 f   c18_EurlerDynJointVerify.obj
 0001:001bc690       mdlStart_c18_EurlerDynJointVerify 00000001801bd690 f   c18_EurlerDynJointVerify.obj
 0001:001bc8a0       init_dsm_address_info      00000001801bd8a0 f   c18_EurlerDynJointVerify.obj
 0001:001bc8b0       sf_get_sim_state_info_c18_EurlerDynJointVerify 00000001801bd8b0 f   c18_EurlerDynJointVerify.obj
 0001:001bc970       chart_debug_initialization 00000001801bd970 f   c18_EurlerDynJointVerify.obj
 0001:001bd200       init_script_number_translation 00000001801be200 f   c18_EurlerDynJointVerify.obj
 0001:001bd240       c18_sf_marshall            00000001801be240 f   c18_EurlerDynJointVerify.obj
 0001:001bd360       c18_b_sf_marshall          00000001801be360 f   c18_EurlerDynJointVerify.obj
 0001:001bd4b0       c18_c_sf_marshall          00000001801be4b0 f   c18_EurlerDynJointVerify.obj
 0001:001bd5e0       sf_opaque_initialize_c18_EurlerDynJointVerify 00000001801be5e0 f   c18_EurlerDynJointVerify.obj
 0001:001bd620       initialize_c18_EurlerDynJointVerify 00000001801be620 f   c18_EurlerDynJointVerify.obj
 0001:001bd660       sf_opaque_enable_c18_EurlerDynJointVerify 00000001801be660 f   c18_EurlerDynJointVerify.obj
 0001:001bd680       enable_c18_EurlerDynJointVerify 00000001801be680 f   c18_EurlerDynJointVerify.obj
 0001:001bd6b0       sf_opaque_disable_c18_EurlerDynJointVerify 00000001801be6b0 f   c18_EurlerDynJointVerify.obj
 0001:001bd6d0       disable_c18_EurlerDynJointVerify 00000001801be6d0 f   c18_EurlerDynJointVerify.obj
 0001:001bd700       sf_opaque_gateway_c18_EurlerDynJointVerify 00000001801be700 f   c18_EurlerDynJointVerify.obj
 0001:001bd720       sf_c18_EurlerDynJointVerify 00000001801be720 f   c18_EurlerDynJointVerify.obj
 0001:001bdf50       c18_fwd_kin                00000001801bef50 f   c18_EurlerDynJointVerify.obj
 0001:001c1880       c18_d_sf_marshall          00000001801c2880 f   c18_EurlerDynJointVerify.obj
 0001:001c1930       c18_e_sf_marshall          00000001801c2930 f   c18_EurlerDynJointVerify.obj
 0001:001c1b60       c18_f_sf_marshall          00000001801c2b60 f   c18_EurlerDynJointVerify.obj
 0001:001c1cd0       sf_opaque_get_sim_state_c18_EurlerDynJointVerify 00000001801c2cd0 f   c18_EurlerDynJointVerify.obj
 0001:001c1cf0       sf_internal_get_sim_state_c18_EurlerDynJointVerify 00000001801c2cf0 f   c18_EurlerDynJointVerify.obj
 0001:001c1de0       get_sim_state_c18_EurlerDynJointVerify 00000001801c2de0 f   c18_EurlerDynJointVerify.obj
 0001:001c1ff0       sf_opaque_set_sim_state_c18_EurlerDynJointVerify 00000001801c2ff0 f   c18_EurlerDynJointVerify.obj
 0001:001c2020       sf_internal_set_sim_state_c18_EurlerDynJointVerify 00000001801c3020 f   c18_EurlerDynJointVerify.obj
 0001:001c2140       set_sim_state_c18_EurlerDynJointVerify 00000001801c3140 f   c18_EurlerDynJointVerify.obj
 0001:001c2250       c18_update_debugger_state_c18_EurlerDynJointVerify 00000001801c3250 f   c18_EurlerDynJointVerify.obj
 0001:001c2260       c18_emlrt_marshallIn       00000001801c3260 f   c18_EurlerDynJointVerify.obj
 0001:001c2330       c18_b_emlrt_marshallIn     00000001801c3330 f   c18_EurlerDynJointVerify.obj
 0001:001c23c0       sf_opaque_terminate_c18_EurlerDynJointVerify 00000001801c33c0 f   c18_EurlerDynJointVerify.obj
 0001:001c2440       finalize_c18_EurlerDynJointVerify 00000001801c3440 f   c18_EurlerDynJointVerify.obj
 0001:001c2450       sf_opaque_init_subchart_simstructs 00000001801c3450 f   c18_EurlerDynJointVerify.obj
 0001:001c2470       compInitSubchartSimstructsFcn_c18_EurlerDynJointVerify 00000001801c3470 f   c18_EurlerDynJointVerify.obj
 0001:001c2480       mdlRTW_c18_EurlerDynJointVerify 00000001801c3480 f   c18_EurlerDynJointVerify.obj
 0001:001c28c0       c19_info_helper            00000001801c38c0 f   c19_EurlerDynJointVerify.obj
 0001:001c4ca0       mdlProcessParameters_c19_EurlerDynJointVerify 00000001801c5ca0 f   c19_EurlerDynJointVerify.obj
 0001:001c4d60       initialize_params_c19_EurlerDynJointVerify 00000001801c5d60 f   c19_EurlerDynJointVerify.obj
 0001:001c4e50       mdlSetWorkWidths_c19_EurlerDynJointVerify 00000001801c5e50 f   c19_EurlerDynJointVerify.obj
 0001:001c5310       mdlStart_c19_EurlerDynJointVerify 00000001801c6310 f   c19_EurlerDynJointVerify.obj
 0001:001c5520       init_dsm_address_info      00000001801c6520 f   c19_EurlerDynJointVerify.obj
 0001:001c5530       sf_get_sim_state_info_c19_EurlerDynJointVerify 00000001801c6530 f   c19_EurlerDynJointVerify.obj
 0001:001c55f0       chart_debug_initialization 00000001801c65f0 f   c19_EurlerDynJointVerify.obj
 0001:001c6070       init_script_number_translation 00000001801c7070 f   c19_EurlerDynJointVerify.obj
 0001:001c60d0       c19_sf_marshall            00000001801c70d0 f   c19_EurlerDynJointVerify.obj
 0001:001c61f0       c19_b_sf_marshall          00000001801c71f0 f   c19_EurlerDynJointVerify.obj
 0001:001c6360       c19_c_sf_marshall          00000001801c7360 f   c19_EurlerDynJointVerify.obj
 0001:001c64b0       sf_opaque_initialize_c19_EurlerDynJointVerify 00000001801c74b0 f   c19_EurlerDynJointVerify.obj
 0001:001c64f0       initialize_c19_EurlerDynJointVerify 00000001801c74f0 f   c19_EurlerDynJointVerify.obj
 0001:001c6530       sf_opaque_enable_c19_EurlerDynJointVerify 00000001801c7530 f   c19_EurlerDynJointVerify.obj
 0001:001c6550       enable_c19_EurlerDynJointVerify 00000001801c7550 f   c19_EurlerDynJointVerify.obj
 0001:001c6580       sf_opaque_disable_c19_EurlerDynJointVerify 00000001801c7580 f   c19_EurlerDynJointVerify.obj
 0001:001c65a0       disable_c19_EurlerDynJointVerify 00000001801c75a0 f   c19_EurlerDynJointVerify.obj
 0001:001c65d0       sf_opaque_gateway_c19_EurlerDynJointVerify 00000001801c75d0 f   c19_EurlerDynJointVerify.obj
 0001:001c65f0       sf_c19_EurlerDynJointVerify 00000001801c75f0 f   c19_EurlerDynJointVerify.obj
 0001:001c68d0       c19_c19_EurlerDynJointVerify 00000001801c78d0 f   c19_EurlerDynJointVerify.obj
 0001:001c77e0       c19_spat_Jacobian          00000001801c87e0 f   c19_EurlerDynJointVerify.obj
 0001:001ca6b0       c19_eml_scalar_eg          00000001801cb6b0 f   c19_EurlerDynJointVerify.obj
 0001:001ca6c0       c19_b_eml_scalar_eg        00000001801cb6c0 f   c19_EurlerDynJointVerify.obj
 0001:001ca6d0       c19_fwd_kin                00000001801cb6d0 f   c19_EurlerDynJointVerify.obj
 0001:001ce1b0       c19_d_sf_marshall          00000001801cf1b0 f   c19_EurlerDynJointVerify.obj
 0001:001ce260       c19_e_sf_marshall          00000001801cf260 f   c19_EurlerDynJointVerify.obj
 0001:001ce490       c19_f_sf_marshall          00000001801cf490 f   c19_EurlerDynJointVerify.obj
 0001:001ce6c0       c19_g_sf_marshall          00000001801cf6c0 f   c19_EurlerDynJointVerify.obj
 0001:001ce830       sf_opaque_get_sim_state_c19_EurlerDynJointVerify 00000001801cf830 f   c19_EurlerDynJointVerify.obj
 0001:001ce850       sf_internal_get_sim_state_c19_EurlerDynJointVerify 00000001801cf850 f   c19_EurlerDynJointVerify.obj
 0001:001ce940       get_sim_state_c19_EurlerDynJointVerify 00000001801cf940 f   c19_EurlerDynJointVerify.obj
 0001:001ceb50       sf_opaque_set_sim_state_c19_EurlerDynJointVerify 00000001801cfb50 f   c19_EurlerDynJointVerify.obj
 0001:001ceb80       sf_internal_set_sim_state_c19_EurlerDynJointVerify 00000001801cfb80 f   c19_EurlerDynJointVerify.obj
 0001:001ceca0       set_sim_state_c19_EurlerDynJointVerify 00000001801cfca0 f   c19_EurlerDynJointVerify.obj
 0001:001cedb0       c19_update_debugger_state_c19_EurlerDynJointVerify 00000001801cfdb0 f   c19_EurlerDynJointVerify.obj
 0001:001cedc0       c19_emlrt_marshallIn       00000001801cfdc0 f   c19_EurlerDynJointVerify.obj
 0001:001cee90       c19_b_emlrt_marshallIn     00000001801cfe90 f   c19_EurlerDynJointVerify.obj
 0001:001cef20       sf_opaque_terminate_c19_EurlerDynJointVerify 00000001801cff20 f   c19_EurlerDynJointVerify.obj
 0001:001cefa0       finalize_c19_EurlerDynJointVerify 00000001801cffa0 f   c19_EurlerDynJointVerify.obj
 0001:001cefb0       sf_opaque_init_subchart_simstructs 00000001801cffb0 f   c19_EurlerDynJointVerify.obj
 0001:001cefd0       compInitSubchartSimstructsFcn_c19_EurlerDynJointVerify 00000001801cffd0 f   c19_EurlerDynJointVerify.obj
 0001:001cefe0       mdlRTW_c19_EurlerDynJointVerify 00000001801cffe0 f   c19_EurlerDynJointVerify.obj
 0001:001cf3f0       c20_info_helper            00000001801d03f0 f   c20_EurlerDynJointVerify.obj
 0001:001d1210       c20_b_info_helper          00000001801d2210 f   c20_EurlerDynJointVerify.obj
 0001:001d3cb0       mdlProcessParameters_c20_EurlerDynJointVerify 00000001801d4cb0 f   c20_EurlerDynJointVerify.obj
 0001:001d3d70       initialize_params_c20_EurlerDynJointVerify 00000001801d4d70 f   c20_EurlerDynJointVerify.obj
 0001:001d41a0       mdlSetWorkWidths_c20_EurlerDynJointVerify 00000001801d51a0 f   c20_EurlerDynJointVerify.obj
 0001:001d4910       mdlStart_c20_EurlerDynJointVerify 00000001801d5910 f   c20_EurlerDynJointVerify.obj
 0001:001d4b30       init_dsm_address_info      00000001801d5b30 f   c20_EurlerDynJointVerify.obj
 0001:001d4b40       sf_get_sim_state_info_c20_EurlerDynJointVerify 00000001801d5b40 f   c20_EurlerDynJointVerify.obj
 0001:001d4c00       chart_debug_initialization 00000001801d5c00 f   c20_EurlerDynJointVerify.obj
 0001:001d6890       init_script_number_translation 00000001801d7890 f   c20_EurlerDynJointVerify.obj
 0001:001d69f0       c20_sf_marshall            00000001801d79f0 f   c20_EurlerDynJointVerify.obj
 0001:001d6b50       c20_b_sf_marshall          00000001801d7b50 f   c20_EurlerDynJointVerify.obj
 0001:001d6c80       c20_c_sf_marshall          00000001801d7c80 f   c20_EurlerDynJointVerify.obj
 0001:001d6de0       c20_d_sf_marshall          00000001801d7de0 f   c20_EurlerDynJointVerify.obj
 0001:001d6f40       c20_e_sf_marshall          00000001801d7f40 f   c20_EurlerDynJointVerify.obj
 0001:001d7170       sf_opaque_initialize_c20_EurlerDynJointVerify 00000001801d8170 f   c20_EurlerDynJointVerify.obj
 0001:001d71b0       initialize_c20_EurlerDynJointVerify 00000001801d81b0 f   c20_EurlerDynJointVerify.obj
 0001:001d71f0       sf_opaque_enable_c20_EurlerDynJointVerify 00000001801d81f0 f   c20_EurlerDynJointVerify.obj
 0001:001d7210       enable_c20_EurlerDynJointVerify 00000001801d8210 f   c20_EurlerDynJointVerify.obj
 0001:001d7240       sf_opaque_disable_c20_EurlerDynJointVerify 00000001801d8240 f   c20_EurlerDynJointVerify.obj
 0001:001d7260       disable_c20_EurlerDynJointVerify 00000001801d8260 f   c20_EurlerDynJointVerify.obj
 0001:001d7290       sf_opaque_gateway_c20_EurlerDynJointVerify 00000001801d8290 f   c20_EurlerDynJointVerify.obj
 0001:001d72b0       sf_c20_EurlerDynJointVerify 00000001801d82b0 f   c20_EurlerDynJointVerify.obj
 0001:001d8a20       c20_DynEuler_Min           00000001801d9a20 f   c20_EurlerDynJointVerify.obj
 0001:001f5b60       c20_expWre                 00000001801f6b60 f   c20_EurlerDynJointVerify.obj
 0001:001f7180       c20_length                 00000001801f8180 f   c20_EurlerDynJointVerify.obj
 0001:001f7440       c20_eye                    00000001801f8440 f   c20_EurlerDynJointVerify.obj
 0001:001f7600       c20_isVariableSizing       00000001801f8600 f   c20_EurlerDynJointVerify.obj
 0001:001f7610       c20_expRot                 00000001801f8610 f   c20_EurlerDynJointVerify.obj
 0001:001f8530       c20_b_eml_scalar_eg        00000001801f9530 f   c20_EurlerDynJointVerify.obj
 0001:001f8540       c20_cross                  00000001801f9540 f   c20_EurlerDynJointVerify.obj
 0001:001f8740       c20_c_eml_scalar_eg        00000001801f9740 f   c20_EurlerDynJointVerify.obj
 0001:001f8750       c20_d_eml_scalar_eg        00000001801f9750 f   c20_EurlerDynJointVerify.obj
 0001:001f8760       c20_mldivide               00000001801f9760 f   c20_EurlerDynJointVerify.obj
 0001:001f93d0       c20_eml_matlab_zgetrf      00000001801fa3d0 f   c20_EurlerDynJointVerify.obj
 0001:001fa280       c20_eps                    00000001801fb280 f   c20_EurlerDynJointVerify.obj
 0001:001fa290       c20_eml_ixamax             00000001801fb290 f   c20_EurlerDynJointVerify.obj
 0001:001fa380       c20_ceval_ixamax           00000001801fb380 f   c20_EurlerDynJointVerify.obj
 0001:001fa450       c20_ceval_xswap            00000001801fb450 f   c20_EurlerDynJointVerify.obj
 0001:001fa620       c20_ceval_xger             00000001801fb620 f   c20_EurlerDynJointVerify.obj
 0001:001fa8e0       c20_eml_warning            00000001801fb8e0 f   c20_EurlerDynJointVerify.obj
 0001:001faab0       c20_eml_xtrsm              00000001801fbab0 f   c20_EurlerDynJointVerify.obj
 0001:001fb300       c20_e_eml_scalar_eg        00000001801fc300 f   c20_EurlerDynJointVerify.obj
 0001:001fb310       c20_eml_blas_xtrsm         00000001801fc310 f   c20_EurlerDynJointVerify.obj
 0001:001fc330       c20_hat                    00000001801fd330 f   c20_EurlerDynJointVerify.obj
 0001:001fc5a0       c20_expg                   00000001801fd5a0 f   c20_EurlerDynJointVerify.obj
 0001:001fe1d0       c20_norm                   00000001801ff1d0 f   c20_EurlerDynJointVerify.obj
 0001:001fe320       c20_ceval_xnrm2            00000001801ff320 f   c20_EurlerDynJointVerify.obj
 0001:001fe3f0       c20_b_eps                  00000001801ff3f0 f   c20_EurlerDynJointVerify.obj
 0001:001fe400       c20_expr                   00000001801ff400 f   c20_EurlerDynJointVerify.obj
 0001:001ff570       c20_power                  0000000180200570 f   c20_EurlerDynJointVerify.obj
 0001:001ff620       c20_eml_scalar_eg          0000000180200620 f   c20_EurlerDynJointVerify.obj
 0001:001ff630       c20_eml_error              0000000180200630 f   c20_EurlerDynJointVerify.obj
 0001:001ff810       c20_matrix_to_integer_power 0000000180200810 f   c20_EurlerDynJointVerify.obj
 0001:002006d0       c20_f_eml_scalar_eg        00000001802016d0 f   c20_EurlerDynJointVerify.obj
 0001:002006e0       c20_inv3x3                 00000001802016e0 f   c20_EurlerDynJointVerify.obj
 0001:00201d10       c20_b_norm                 0000000180202d10 f   c20_EurlerDynJointVerify.obj
 0001:00202020       c20_b_eml_warning          0000000180203020 f   c20_EurlerDynJointVerify.obj
 0001:00202280       c20_b_mldivide             0000000180203280 f   c20_EurlerDynJointVerify.obj
 0001:002031a0       c20_b_eml_xtrsm            00000001802041a0 f   c20_EurlerDynJointVerify.obj
 0001:002039f0       c20_g_eml_scalar_eg        00000001802049f0 f   c20_EurlerDynJointVerify.obj
 0001:00203a00       c20_b_eml_blas_xtrsm       0000000180204a00 f   c20_EurlerDynJointVerify.obj
 0001:00204a10       c20_Adj                    0000000180205a10 f   c20_EurlerDynJointVerify.obj
 0001:002057b0       c20_h_eml_scalar_eg        00000001802067b0 f   c20_EurlerDynJointVerify.obj
 0001:002057c0       c20_eml_xgemm              00000001802067c0 f   c20_EurlerDynJointVerify.obj
 0001:00205a10       c20_ad                     0000000180206a10 f   c20_EurlerDynJointVerify.obj
 0001:002067c0       c20_i_eml_scalar_eg        00000001802077c0 f   c20_EurlerDynJointVerify.obj
 0001:002067d0       c20_ceval_xgemm            00000001802077d0 f   c20_EurlerDynJointVerify.obj
 0001:00206ad0       c20_j_eml_scalar_eg        0000000180207ad0 f   c20_EurlerDynJointVerify.obj
 0001:00206ae0       c20_ceval_xdot             0000000180207ae0 f   c20_EurlerDynJointVerify.obj
 0001:00206c90       c20_f_sf_marshall          0000000180207c90 f   c20_EurlerDynJointVerify.obj
 0001:00206d40       c20_g_sf_marshall          0000000180207d40 f   c20_EurlerDynJointVerify.obj
 0001:00206f70       c20_h_sf_marshall          0000000180207f70 f   c20_EurlerDynJointVerify.obj
 0001:00207090       c20_i_sf_marshall          0000000180208090 f   c20_EurlerDynJointVerify.obj
 0001:002072c0       c20_j_sf_marshall          00000001802082c0 f   c20_EurlerDynJointVerify.obj
 0001:002074f0       c20_k_sf_marshall          00000001802084f0 f   c20_EurlerDynJointVerify.obj
 0001:00207620       sf_opaque_get_sim_state_c20_EurlerDynJointVerify 0000000180208620 f   c20_EurlerDynJointVerify.obj
 0001:00207640       sf_internal_get_sim_state_c20_EurlerDynJointVerify 0000000180208640 f   c20_EurlerDynJointVerify.obj
 0001:00207730       get_sim_state_c20_EurlerDynJointVerify 0000000180208730 f   c20_EurlerDynJointVerify.obj
 0001:00207d30       sf_opaque_set_sim_state_c20_EurlerDynJointVerify 0000000180208d30 f   c20_EurlerDynJointVerify.obj
 0001:00207d60       sf_internal_set_sim_state_c20_EurlerDynJointVerify 0000000180208d60 f   c20_EurlerDynJointVerify.obj
 0001:00207e80       set_sim_state_c20_EurlerDynJointVerify 0000000180208e80 f   c20_EurlerDynJointVerify.obj
 0001:002081c0       c20_update_debugger_state_c20_EurlerDynJointVerify 00000001802091c0 f   c20_EurlerDynJointVerify.obj
 0001:002081d0       c20_emlrt_marshallIn       00000001802091d0 f   c20_EurlerDynJointVerify.obj
 0001:002082b0       c20_b_emlrt_marshallIn     00000001802092b0 f   c20_EurlerDynJointVerify.obj
 0001:00208390       c20_c_emlrt_marshallIn     0000000180209390 f   c20_EurlerDynJointVerify.obj
 0001:00208420       sf_opaque_terminate_c20_EurlerDynJointVerify 0000000180209420 f   c20_EurlerDynJointVerify.obj
 0001:002084a0       finalize_c20_EurlerDynJointVerify 00000001802094a0 f   c20_EurlerDynJointVerify.obj
 0001:002084b0       sf_opaque_init_subchart_simstructs 00000001802094b0 f   c20_EurlerDynJointVerify.obj
 0001:002084d0       compInitSubchartSimstructsFcn_c20_EurlerDynJointVerify 00000001802094d0 f   c20_EurlerDynJointVerify.obj
 0001:002084e0       mdlRTW_c20_EurlerDynJointVerify 00000001802094e0 f   c20_EurlerDynJointVerify.obj
 0001:00209d50       _ssFatalError              000000018020ad50 f   EurlerDynJointVerify_sfun_registry.obj
 0001:0020cdd0       ProcessMexSfunctionCmdLineCall 000000018020ddd0 f   EurlerDynJointVerify_sfun_registry.obj
 0001:0020cec0       mdlGetTimeOfNextVarHit     000000018020dec0 f   EurlerDynJointVerify_sfun_registry.obj
 0001:0020cf20       _ProcessMexSfunctionCmdLineCall 000000018020df20 f   EurlerDynJointVerify_sfun_registry.obj
 0001:0020d5f0       _CreateSimStruct           000000018020e5f0 f   EurlerDynJointVerify_sfun_registry.obj
 0001:0020d780       _RegNumInputPortsCB        000000018020e780 f   EurlerDynJointVerify_sfun_registry.obj
 0001:0020d800       _RegNumOutputPortsCB       000000018020e800 f   EurlerDynJointVerify_sfun_registry.obj
 0001:0020d8e0       sf_machine_load_sfunction_ptrs 000000018020e8e0 f   EurlerDynJointVerify_sfun_registry.obj
 0001:0020ec30       SNPRINTF_WRAPPER           000000018020fc30 f   sfc_mex:sfc_mex.obj
 0001:0020ec50       convert_dims_to_string     000000018020fc50 f   sfc_mex:sfc_mex.obj
 0001:0020ee70       is_real_T_equal_to_double  000000018020fe70 f   sfc_mex:sfc_mex.obj
 0001:0020ee90       is_real32_T_equal_to_double 000000018020fe90 f   sfc_mex:sfc_mex.obj
 0001:0020eea0       is_mxLogical_equal_to_double 000000018020fea0 f   sfc_mex:sfc_mex.obj
 0001:0020eec0       is_int8_T_equal_to_double  000000018020fec0 f   sfc_mex:sfc_mex.obj
 0001:0020eee0       is_uint8_T_equal_to_double 000000018020fee0 f   sfc_mex:sfc_mex.obj
 0001:0020ef00       is_int16_T_equal_to_double 000000018020ff00 f   sfc_mex:sfc_mex.obj
 0001:0020ef20       is_uint16_T_equal_to_double 000000018020ff20 f   sfc_mex:sfc_mex.obj
 0001:0020ef40       is_int32_T_equal_to_double 000000018020ff40 f   sfc_mex:sfc_mex.obj
 0001:0020ef60       is_uint32_T_equal_to_double 000000018020ff60 f   sfc_mex:sfc_mex.obj
 0001:0020ef80       is_char_T_equal_to_double  000000018020ff80 f   sfc_mex:sfc_mex.obj
 0001:0020efa0       sf_zero_numeric_value      000000018020ffa0 f   sfc_mex:sfc_mex.obj
 0001:0020efd0       sf_error_append_debugger_context_if_available 000000018020ffd0 f   sfc_mex:sfc_mex.obj
 0001:0020f080       sf_mex_get_error_message_for_write 0000000180210080 f   sfc_mex:sfc_mex.obj
 0001:0020f0b0       replace_single_quotes_by_doubled_quotes 00000001802100b0 f   sfc_mex:sfc_mex.obj
 0001:0020f300       sf_mex_get_formatted_error_string 0000000180210300 f   sfc_mex:sfc_mex.obj
 0001:0020f700       sf_mex_destroy_array       0000000180210700 f   sfc_mex:sfc_mex.obj
 0001:0020faa0       sfrtAddSize                0000000180210aa0 f   sfc_mex:sfc_mex.obj
 0001:0020fb60       sfrtGenSizeString          0000000180210b60 f   sfc_mex:sfc_mex.obj
 0001:0020fc40       sfIsProperVector           0000000180210c40 f   sfc_mex:sfc_mex.obj
 0001:0020fc70       sfIsRowVector              0000000180210c70 f   sfc_mex:sfc_mex.obj
 0001:00210010       sf_mex_err                 0000000180211010 f   sfc_mex:sfc_mex.obj
 0001:00210030       sf_error_dimension_out_of_bound 0000000180211030 f   sfc_mex:sfc_mex.obj
 0001:00210060       sf_mex_check_and_set_actual_dimensions 0000000180211060 f   sfc_mex:sfc_mex.obj
 0001:00211250       size_mismatch_error        0000000180212250 f   sfc_mex:sfc_mex.obj
 0001:00211d90       check_array_dimensions     0000000180212d90 f   sfc_mex:sfc_mex.obj
 0001:00211e00       check_input_mxarray        0000000180212e00 f   sfc_mex:sfc_mex.obj
 0001:002125a0       sf_numeric_value_to_double 00000001802135a0 f   sfc_mex:sfc_mex.obj
 0001:002125f0       ml_generic_out_of_bounds_check 00000001802135f0 f   sfc_mex:sfc_mex.obj
 0001:00212740       ml_get_element_value_from_array 0000000180213740 f   sfc_mex:sfc_mex.obj
 0001:00212a40       _ml_generic_castability_check 0000000180213a40 f   sfc_mex:sfc_mex.obj
 0001:00213610       ml_generic_castability_check 0000000180214610 f   sfc_mex:sfc_mex.obj
 0001:002136b0       ml_check_mx_array_for_single_castability 00000001802146b0 f   sfc_mex:sfc_mex.obj
 0001:00213750       ml_check_mx_array_for_logical_castability 0000000180214750 f   sfc_mex:sfc_mex.obj
 0001:002137f0       ml_check_mx_array_for_int8_castability 00000001802147f0 f   sfc_mex:sfc_mex.obj
 0001:002138a0       ml_check_mx_array_for_uint8_castability 00000001802148a0 f   sfc_mex:sfc_mex.obj
 0001:00213940       ml_check_mx_array_for_int16_castability 0000000180214940 f   sfc_mex:sfc_mex.obj
 0001:002139e0       ml_check_mx_array_for_uint16_castability 00000001802149e0 f   sfc_mex:sfc_mex.obj
 0001:00213a80       ml_check_mx_array_for_int32_castability 0000000180214a80 f   sfc_mex:sfc_mex.obj
 0001:00213b20       ml_check_mx_array_for_uint32_castability 0000000180214b20 f   sfc_mex:sfc_mex.obj
 0001:00213bc0       ml_check_mx_array_for_castability 0000000180214bc0 f   sfc_mex:sfc_mex.obj
 0001:00214390       set_data_value             0000000180215390 f   sfc_mex:sfc_mex.obj
 0001:002146e0       get_data_value             00000001802156e0 f   sfc_mex:sfc_mex.obj
 0001:002147d0       get_next_element_address   00000001802157d0 f   sfc_mex:sfc_mex.obj
 0001:002148a0       sf_normalize_index         00000001802158a0 f   sfc_mex:sfc_mex.obj
 0001:00214c30       ml_array_index_bound_check 0000000180215c30 f   sfc_mex:sfc_mex.obj
 0001:00215840       mx_value                   0000000180216840 f   sfc_mex:sfc_mex.obj
 0001:00215890       sf_create_numeric_array    0000000180216890 f   sfc_mex:sfc_mex.obj
 0001:00215930       sf_mex_assign_to_mx_array  0000000180216930 f   sfc_mex:sfc_mex.obj
 0001:002162a0       assign_from_mx_array       00000001802172a0 f   sfc_mex:sfc_mex.obj
 0001:00217520       get_machine_and_chart_file_number 0000000180218520 f   sfc_mex:sfc_sf.obj
 0001:00217610       get_sfun_block_specialization 0000000180218610 f   sfc_mex:sfc_sf.obj
 0001:00217690       call_sf_machine_global_method_dispatcher 0000000180218690 f   sfc_mex:sfc_sf.obj
 0001:00217900       mdl_zeroCrossings_processing 0000000180218900 f   sfc_mex:sfc_sf.obj
 0001:002179d0       mdl_derivatives_processing 00000001802189d0 f   sfc_mex:sfc_sf.obj
 0001:00217c90       mdl_outputs_continuous_legacy 0000000180218c90 f   sfc_mex:sfc_sf.obj
 0001:00217d10       mdl_outputs_processing     0000000180218d10 f   sfc_mex:sfc_sf.obj
 0001:00218010       mdl_enable_processing      0000000180219010 f   sfc_mex:sfc_sf.obj
 0001:002180e0       mdl_disable_processing     00000001802190e0 f   sfc_mex:sfc_sf.obj
 0001:00218bd0       write_symbol_mapping       0000000180219bd0 f   sfc_mex:sfc_sf.obj
 0001:00219350       sf_call_output_fcn_enable_disable 000000018021a350 f   sfc_mex:sfc_sf.obj
 0001:002195d0       set_dwork_information_from_mx_array 000000018021a5d0 f   sfc_mex:sfc_sf.obj
 0001:00219d50       get_dwork_info_from_mat_file 000000018021ad50 f   sfc_mex:sfc_sf.obj
 0001:00219f00       ptr2mxStruct               000000018021af00 f   sfc_mex:sfc_sf.obj
 0001:0021a310       SNPRINTF_WRAPPER           000000018021b310 f   sfc_debug:sfcdebug.obj
 0001:0021a330       sf_debug_chart_instance_initialized_quick 000000018021b330 f   sfc_debug:sfcdebug.obj
 0001:0021a340       sf_debug_chart_instance_initialized 000000018021b340 f   sfc_debug:sfcdebug.obj
 0001:0021a4e0       sfrtAddSize                000000018021b4e0 f   sfc_debug:sfcdebug.obj
 0001:0021a5a0       sfrtGenSizeString          000000018021b5a0 f   sfc_debug:sfcdebug.obj
 0001:0021ad20       sf_debug_sim_status_listener 000000018021bd20 f   sfc_debug:sfcdebug.obj
 0001:0021b290       sf_debug_form_mask_bits    000000018021c290 f   sfc_debug:sfcdebug.obj
 0001:0021b2d0       sf_debug_form_sf_data_type_offsets 000000018021c2d0 f   sfc_debug:sfcdebug.obj
 0001:0021b390       sf_debug_free_all          000000018021c390 f   sfc_debug:sfcdebug.obj
 0001:0021b520       sf_debug_append_debugger_context 000000018021c520 f   sfc_debug:sfcdebug.obj
 0001:0021b7e0       local_strdup               000000018021c7e0 f   sfc_debug:sfcdebug.obj
 0001:0021c6c0       sf_debug_em_terminate      000000018021d6c0 f   sfc_debug:sfcdebug.obj
 0001:0021c700       sf_debug_push_eml_function 000000018021d700 f   sfc_debug:sfcdebug.obj
 0001:0021c7a0       sf_debug_pop_eml_function  000000018021d7a0 f   sfc_debug:sfcdebug.obj
 0001:0021d460       sf_debug_get_machine_number_from_id_or_name 000000018021e460 f   sfc_debug:sfcdebug.obj
 0001:0021d5b0       sf_debug_get_chart_number_from_id 000000018021e5b0 f   sfc_debug:sfcdebug.obj
 0001:0021e260       sf_debug_transfer_control_to_debugger_GUI 000000018021f260 f   sfc_debug:sfcdebug.obj
 0001:0021f240       sf_debug_scripts_rehash    0000000180220240 f   sfc_debug:sfcdebug.obj
 0001:0021f490       sf_debug_get_script_line_count 0000000180220490 f   sfc_debug:sfcdebug.obj
 0001:0021fbe0       cv_eml_state_cvId          0000000180220be0 f   sfc_debug:sfcdebug.obj
 0001:00221100       sf_debug_data_array_bounds_error 0000000180222100 f   sfc_debug:sfcdebug.obj
 0001:00221500       eml_debug_runtime_error_doclink 0000000180222500 f   sfc_debug:sfcdebug.obj
 0001:00221670       sf_debug_runtime_error     0000000180222670 f   sfc_debug:sfcdebug.obj
 0001:002216e0       sf_debug_matlab_error      00000001802226e0 f   sfc_debug:sfcdebug.obj
 0001:00221f20       sf_debug_data_value_error  0000000180222f20 f   sfc_debug:sfcdebug.obj
 0001:002227e0       sf_debug_data_loss_error   00000001802237e0 f   sfc_debug:sfcdebug.obj
 0001:002233f0       call_cv_range_check        00000001802243f0 f   sfc_debug:sfcdebug.obj
 0001:00223ce0       sf_debug_invoke_cycle_detection_code 0000000180224ce0 f   sfc_debug:sfcdebug.obj
 0001:00224b40       sf_reset_debug_info_struct 0000000180225b40 f   sfc_debug:sfcdebug.obj
 0001:00225600       cv_script_cvId             0000000180226600 f   sfc_debug:sfcdebug.obj
 0001:00226a80       sfc_api_chart_visible      0000000180227a80 f   sfc_debug:sfc_api.obj
 0001:00226b00       sfc_api_active_instance    0000000180227b00 f   sfc_debug:sfc_api.obj
 0001:00226b80       sfc_api_machine_load       0000000180227b80 f   sfc_debug:sfc_api.obj
 0001:00226c50       sfc_api_debugger_alive     0000000180227c50 f   sfc_debug:sfc_api.obj
 0001:00226c60       sfc_api_go                 0000000180227c60 f   sfc_debug:sfc_api.obj
 0001:00226c70       sfc_api_step_over          0000000180227c70 f   sfc_debug:sfc_api.obj
 0001:00226c80       sfc_api_step_out           0000000180227c80 f   sfc_debug:sfc_api.obj
 0001:00226c90       sfc_api_resume             0000000180227c90 f   sfc_debug:sfc_api.obj
 0001:00226ca0       sfc_api_break              0000000180227ca0 f   sfc_debug:sfc_api.obj
 0001:00226cb0       sfc_api_stop_debugging     0000000180227cb0 f   sfc_debug:sfc_api.obj
 0001:00226d00       sfc_api_is_cycle_detected  0000000180227d00 f   sfc_debug:sfc_api.obj
 0001:00226d50       sfc_api_is_array_bounds_detected 0000000180227d50 f   sfc_debug:sfc_api.obj
 0001:00226da0       sfc_api_set_disable_all_breakpoints 0000000180227da0 f   sfc_debug:sfc_api.obj
 0001:00226e10       sfc_api_disable_all_breakpoints_and_go 0000000180227e10 f   sfc_debug:sfc_api.obj
 0001:00226e20       sfc_api_close              0000000180227e20 f   sfc_debug:sfc_api.obj
 0001:00226e30       sfc_api_browse_data        0000000180227e30 f   sfc_debug:sfc_api.obj
 0001:00226ea0       sfc_api_watch_data         0000000180227ea0 f   sfc_debug:sfc_api.obj
 0001:00226f40       sfc_api_whos               0000000180227f40 f   sfc_debug:sfc_api.obj
 0001:00226fd0       sfc_api_get_consistency_info 0000000180227fd0 f   sfc_debug:sfc_api.obj
 0001:00226fe0       sfc_api_browse_trace       0000000180227fe0 f   sfc_debug:sfc_api.obj
 0001:00226ff0       sfc_api_break_on_chart_entry 0000000180227ff0 f   sfc_debug:sfc_api.obj
 0001:00227010       sfc_api_break_on_event_broadcast 0000000180228010 f   sfc_debug:sfc_api.obj
 0001:00227030       sfc_api_break_on_state_entry 0000000180228030 f   sfc_debug:sfc_api.obj
 0001:00227050       sfc_api_set_watch          0000000180228050 f   sfc_debug:sfc_api.obj
 0001:002270f0       sfc_api_set_breakpoints    00000001802280f0 f   sfc_debug:sfc_api.obj
 0001:00227190       sfc_api_set_eml_breakpoints 0000000180228190 f   sfc_debug:sfc_api.obj
 0001:00227210       sfc_api_set_script_breakpoints 0000000180228210 f   sfc_debug:sfc_api.obj
 0001:00227260       sfc_api_add_script_breakpoints 0000000180228260 f   sfc_debug:sfc_api.obj
 0001:002272b0       sfc_api_clear_script_breakpoints 00000001802282b0 f   sfc_debug:sfc_api.obj
 0001:00227300       sfc_api_query_script_breakpoints 0000000180228300 f   sfc_debug:sfc_api.obj
 0001:00227360       sfc_api_get_script_id      0000000180228360 f   sfc_debug:sfc_api.obj
 0001:00227420       sfc_api_get_active_states  0000000180228420 f   sfc_debug:sfc_api.obj
 0001:002274a0       sfc_api_break_between_times 00000001802284a0 f   sfc_debug:sfc_api.obj
 0001:00227500       sfc_api_get_instance_handle 0000000180228500 f   sfc_debug:sfc_api.obj
 0001:002275b0       sfc_api_get_coverage       00000001802285b0 f   sfc_debug:sfc_api.obj
 0001:00227630       sfc_api_set_animation      0000000180228630 f   sfc_debug:sfc_api.obj
 0001:00227680       sfc_api_select_chart       0000000180228680 f   sfc_debug:sfc_api.obj
 0001:002276e0       sfc_api_select_charts      00000001802286e0 f   sfc_debug:sfc_api.obj
 0001:00227710       sfc_api_cycle_detection_check 0000000180228710 f   sfc_debug:sfc_api.obj
 0001:00227760       sfc_api_data_range_check   0000000180228760 f   sfc_debug:sfc_api.obj
 0001:002277b0       sfc_api_transition_conflict_check 00000001802287b0 f   sfc_debug:sfc_api.obj
 0001:00227800       sfc_api_state_consistency_check 0000000180228800 f   sfc_debug:sfc_api.obj
 0001:00227850       sfc_api_set_instance_cv_ids 0000000180228850 f   sfc_debug:sfc_api.obj
 0001:00227960       sfc_api_set_script_cv_ids  0000000180228960 f   sfc_debug:sfc_api.obj
 0001:00227a00       sfc_api_get_current_machine_id 0000000180228a00 f   sfc_debug:sfc_api.obj
 0001:00227a30       sfc_api_get_current_machine_number 0000000180228a30 f   sfc_debug:sfc_api.obj
 0001:00227a60       sfc_api_get_current_chart_number 0000000180228a60 f   sfc_debug:sfc_api.obj
 0001:00227a90       sfc_api_get_current_instance_number 0000000180228a90 f   sfc_debug:sfc_api.obj
 0001:00227ac0       sfc_api_get_current_instance_handle 0000000180228ac0 f   sfc_debug:sfc_api.obj
 0001:00227ae0       sfc_api_get_current_is_minor_time_step 0000000180228ae0 f   sfc_debug:sfc_api.obj
 0001:00227b10       sfc_api_get_current_machine_name 0000000180228b10 f   sfc_debug:sfc_api.obj
 0001:00227b30       sfc_api_get_current_chart_id 0000000180228b30 f   sfc_debug:sfc_api.obj
 0001:00227b60       sfc_api_get_current_object_type 0000000180228b60 f   sfc_debug:sfc_api.obj
 0001:00227b90       sfc_api_get_current_event_type 0000000180228b90 f   sfc_debug:sfc_api.obj
 0001:00227bc0       sfc_api_get_current_object_id 0000000180228bc0 f   sfc_debug:sfc_api.obj
 0001:00227bf0       sfc_get_current_active_event_type 0000000180228bf0 f   sfc_debug:sfc_api.obj
 0001:00227c20       sfc_api_get_current_active_event_id 0000000180228c20 f   sfc_debug:sfc_api.obj
 0001:00227c50       sfc_api_get_current_simulation_time 0000000180228c50 f   sfc_debug:sfc_api.obj
 0001:00227c70       sfc_get_current_tag_type   0000000180228c70 f   sfc_debug:sfc_api.obj
 0001:00227ca0       sfc_get_current_coverage_percentage 0000000180228ca0 f   sfc_debug:sfc_api.obj
 0001:00227cc0       sfc_get_current_statement_context 0000000180228cc0 f   sfc_debug:sfc_api.obj
 0001:00227ce0       sfc_get_current_optional_integer 0000000180228ce0 f   sfc_debug:sfc_api.obj
 0001:00227d00       sfc_get_current_statement_info 0000000180228d00 f   sfc_debug:sfc_api.obj
 0001:00227da0       sfc_api_get                0000000180228da0 f   sfc_debug:sfc_api.obj
 0001:00227f00       sf_debug_sm_is_using_unified_editors 0000000180228f00 f   sfc_debug:sfdb_animation.obj
 0001:00227fa0       sf_debug_sm_is_chart_visible_in_unified_editors 0000000180228fa0 f   sfc_debug:sfdb_animation.obj
 0001:00228060       sf_debug_sm_check_if_chart_is_visible 0000000180229060 f   sfc_debug:sfdb_animation.obj
 0001:00228c70       sf_debug_sm_fill_state_activity_data 0000000180229c70 f   sfc_debug:sfdb_animation.obj
 0001:0022b280       sf_debug_hm_get_simulink_handle 000000018022c280 f   sfc_debug:sfdb_handle_management.obj
 0001:0022be70       sf_debug_hm_initialize_globals 000000018022ce70 f   sfc_debug:sfdb_handle_management.obj
 0001:0022bf70       sf_debug_hm_get_machine_debug_flag 000000018022cf70 f   sfc_debug:sfdb_handle_management.obj
 0001:0022c0e0       sf_debug_hm_get_machine_id 000000018022d0e0 f   sfc_debug:sfdb_handle_management.obj
 0001:0022c200       sf_debug_hm_get_chart_id   000000018022d200 f   sfc_debug:sfdb_handle_management.obj
 0001:0022c3a0       sf_debug_hm_register_executing_SFunction 000000018022d3a0 f   sfc_debug:sfdb_handle_management.obj
 0001:0022c530       sf_debug_hm_get_chart_active_instance 000000018022d530 f   sfc_debug:sfdb_handle_management.obj
 0001:0022c6a0       sf_debug_hm_get_chart_visibility 000000018022d6a0 f   sfc_debug:sfdb_handle_management.obj
 0001:0022c7f0       sf_debug_hm_form_object_boolean_properties 000000018022d7f0 f   sfc_debug:sfdb_handle_management.obj
 0001:0022cac0       sf_debug_hm_form_object_properties 000000018022dac0 f   sfc_debug:sfdb_handle_management.obj
 0001:0022cd00       sf_debug_hm_terminate_charts 000000018022dd00 f   sfc_debug:sfdb_handle_management.obj
 0001:0022d440       sf_debug_hm_terminate_machines 000000018022e440 f   sfc_debug:sfdb_handle_management.obj
 0001:0022ef40       void_ptr_stack_vector_free_total 000000018022ff40 f   sfc_debug:sfdb_data_browse.obj
 0001:0022efd0       sf_debug_st_terminate_machine 000000018022ffd0 f   sfc_debug:sfdb_data_browse.obj
 0001:0022f100       sf_debug_st_terminate_instance 0000000180230100 f   sfc_debug:sfdb_data_browse.obj
 0001:0022f5b0       push_on_to_void_ptr_stack  00000001802305b0 f   sfc_debug:sfdb_data_browse.obj
 0001:0022f740       pop_from_void_ptr_stack    0000000180230740 f   sfc_debug:sfdb_data_browse.obj
 0001:0022f870       sf_debug_st_get_data_value 0000000180230870 f   sfc_debug:sfdb_data_browse.obj
 0001:0022fda0       mx_value                   0000000180230da0 f   sfc_debug:sfdb_data_browse.obj
 0001:0022fde0       sf_debug_st_fill_data_struct 0000000180230de0 f   sfc_debug:sfdb_data_browse.obj
 0001:00230120       data_type_format_strings   0000000180231120 f   sfc_debug:sfdb_data_browse.obj
 0001:002301d0       sf_debug_st_fill_data      00000001802311d0 f   sfc_debug:sfdb_data_browse.obj
 0001:00231460       sf_debug_ss_copy_dimension 0000000180232460 f   sfc_debug:sfdb_symbol_scope.obj
 0001:00231520       sf_debug_ss_get_number_elements 0000000180232520 f   sfc_debug:sfdb_symbol_scope.obj
 0001:00231540       sf_debug_ss_fill_data_struct 0000000180232540 f   sfc_debug:sfdb_symbol_scope.obj
 0001:00231890       sf_debug_ss_reset_data_info 0000000180232890 f   sfc_debug:sfdb_symbol_scope.obj
 0001:002318f0       sf_debug_fill_data_info_by_symbol_scope_entry 00000001802328f0 f   sfc_debug:sfdb_symbol_scope.obj
 0001:002319a0       sf_debug_fill_data_info_by_data_vector 00000001802329a0 f   sfc_debug:sfdb_symbol_scope.obj
 0001:00231be0       sf_debug_ss_get_data_info  0000000180232be0 f   sfc_debug:sfdb_symbol_scope.obj
 0001:00232010       sf_debug_ss_get_data_value 0000000180233010 f   sfc_debug:sfdb_symbol_scope.obj
 0001:002324a0       sf_debug_ss_data_bytes_string 00000001802334a0 f   sfc_debug:sfdb_symbol_scope.obj
 0001:00232550       sf_debug_ss_data_class_string 0000000180233550 f   sfc_debug:sfdb_symbol_scope.obj
 0001:002328e0       sf_debug_ss_data_size_string 00000001802338e0 f   sfc_debug:sfdb_symbol_scope.obj
 0001:002329c0       sf_debug_ss_data_create_data_info_struct 00000001802339c0 f   sfc_debug:sfdb_symbol_scope.obj
 0001:00232c20       sf_debug_ss_data_create_name_value_pair 0000000180233c20 f   sfc_debug:sfdb_symbol_scope.obj
 0001:00232cc0       sf_debug_ss_data_get_whos_info 0000000180233cc0 f   sfc_debug:sfdb_symbol_scope.obj
 0001:00232d80       same_named_data_in_data_array 0000000180233d80 f   sfc_debug:sfdb_symbol_scope.obj
 0001:00234780       sf_debug_cc_terminate_chart 0000000180235780 f   sfc_debug:sfdb_coverage.obj
 0001:00234b20       sf_debug_cc_terminate_instance 0000000180235b20 f   sfc_debug:sfdb_coverage.obj
 0001:00235720       sf_debug_cc_mark_object_if_needed 0000000180236720 f   sfc_debug:sfdb_coverage.obj
 0001:00235e80       sf_debug_cc_fill_transition_coverage_data 0000000180236e80 f   sfc_debug:sfdb_coverage.obj
 0001:00236010       sf_debug_cc_fill_transition_coverage_map 0000000180237010 f   sfc_debug:sfdb_coverage.obj
 0001:002362c0       sf_debug_cc_fill_state_coverage_map 00000001802372c0 f   sfc_debug:sfdb_coverage.obj
 0001:00236510       sf_debug_cc_fill_state_coverage_data 0000000180237510 f   sfc_debug:sfdb_coverage.obj
 0001:00237140       sf_debug_bm_initialize_eml 0000000180238140 f   sfc_debug:sfdb_breakpoints.obj
 0001:00238290       sf_debug_bm_map_debug_tag_to_breakpoint_tag 0000000180239290 f   sfc_debug:sfdb_breakpoints.obj
 0001:00238370       sf_debug_bm_is_a_eml_breakpoint_impl 0000000180239370 f   sfc_debug:sfdb_breakpoints.obj
 0001:00239fd0       sf_debug_sc_push_on_error_stack 000000018023afd0 f   sfc_debug:sfdb_state_consistency.obj
 0001:0023a100       sf_debug_sc_reset_error_stack 000000018023b100 f   sfc_debug:sfdb_state_consistency.obj
 0001:0023a290       sf_debug_sc_is_state_inconsistent 000000018023b290 f   sfc_debug:sfdb_state_consistency.obj
 0001:0023a590       sf_debug_sc_fill_consistency_info 000000018023b590 f   sfc_debug:sfdb_state_consistency.obj
 0001:0023ab40       void_assertion_fcn         000000018023bb40 f   sfc_debug:sfdb_call_stack.obj
 0001:0023b0d0       sf_debug_tm_fill_local_trace 000000018023c0d0 f   sfc_debug:sfdb_call_stack.obj
 0001:0023b670       sf_debug_cd_terminate_instance 000000018023c670 f   sfc_debug:sfdb_cycle_detection.obj
 0001:0023b6d0       sf_debug_cd_free_checksum_stack 000000018023c6d0 f   sfc_debug:sfdb_cycle_detection.obj
 0001:0023b720       sf_debug_cd_reset_pack_strings 000000018023c720 f   sfc_debug:sfdb_cycle_detection.obj
 0001:0023bde0       md5file_clear              000000018023cde0 f   sfc_debug:ckmd5.obj
 0001:0023be10       Encode                     000000018023ce10 f   sfc_debug:ckmd5.obj
 0001:0023be60       Decode                     000000018023ce60 f   sfc_debug:ckmd5.obj
 0001:0023bf00       MD5Transform               000000018023cf00 f   sfc_debug:ckmd5.obj
 0001:0023c750       md5file_addn               000000018023d750 f   sfc_debug:ckmd5.obj
 0001:0023c820       md5file_hash               000000018023d820 f   sfc_debug:ckmd5.obj
 0001:0023cfec       pre_c_init                 000000018023dfec f   MSVCRT:crtdll.obj
 0001:0023d2a8       __DllMainCRTStartup        000000018023e2a8 f   MSVCRT:crtdll.obj
 0001:0023d990       __DllMainCRTStartup$filt$0 000000018023e990 f   MSVCRT:crtdll.obj
 0001:0023d9c0       __DllMainCRTStartup$fin$1  000000018023e9c0 f   MSVCRT:crtdll.obj
 0001:0023d9d9       _onexit$fin$0              000000018023e9d9 f   MSVCRT:atonexit.obj
 0001:0023da00       _IsNonwritableInCurrentImage$filt$0 000000018023ea00 f   MSVCRT:pesect.obj
