 DynJointVerify_sfun

 Timestamp is 53edc1a1 (Fri Aug 15 16:15:29 2014)

 Preferred load address is 0000000180000000

 Start         Length     Name                   Class
 0001:00000000 002b55ecH .text                   CODE
 0001:002b55f0 0000005eH .text$00                CODE
 0001:002b5650 00000091H .text$x                 CODE
 0002:00000000 000004b0H .idata$5                DATA
 0002:000004b0 00000008H .CRT$XCA                DATA
 0002:000004b8 00000008H .CRT$XCZ                DATA
 0002:000004c0 00000008H .CRT$XIA                DATA
 0002:000004c8 00000008H .CRT$XIAA               DATA
 0002:000004d0 00000008H .CRT$XIZ                DATA
 0002:000004e0 00004d4cH .rdata                  DATA
 0002:00005230 00000008H .rtc$IAA                DATA
 0002:00005238 00000008H .rtc$IZZ                DATA
 0002:00005240 00000008H .rtc$TAA                DATA
 0002:00005248 00000008H .rtc$TZZ                DATA
 0002:00005250 00006424H .xdata                  DATA
 0002:0000b674 000000b4H .idata$2                DATA
 0002:0000b728 00000014H .idata$3                DATA
 0002:0000b740 000004b0H .idata$4                DATA
 0002:0000bbf0 00000a76H .idata$6                DATA
 0002:0000c670 00000059H .edata                  DATA
 0003:00000000 000655d8H .data                   DATA
 0003:000655e0 00002ab8H .bss                    DATA
 0004:00000000 00005fa0H .pdata                  DATA

  Address         Publics by Value              Rva+Base               Lib:Object

 0000:00000000       ___safe_se_handler_count   0000000000000000     <absolute>
 0000:00000000       ___safe_se_handler_table   0000000000000000     <absolute>
 0000:00000000       __ImageBase                0000000180000000     <linker-defined>
 0001:00000000       sf_c1_DynJointVerify_get_eml_resolved_functions_info 0000000180001000 f   c1_DynJointVerify.obj
 0001:000032e0       sf_c1_DynJointVerify_get_check_sum 00000001800042e0 f   c1_DynJointVerify.obj
 0001:00003360       sf_c1_DynJointVerify_get_autoinheritance_info 0000000180004360 f   c1_DynJointVerify.obj
 0001:00003a90       c1_DynJointVerify_method_dispatcher 0000000180004a90 f   c1_DynJointVerify.obj
 0001:00012770       sf_c2_DynJointVerify_get_eml_resolved_functions_info 0000000180013770 f   c2_DynJointVerify.obj
 0001:000164b0       sf_c2_DynJointVerify_get_check_sum 00000001800174b0 f   c2_DynJointVerify.obj
 0001:00016530       sf_c2_DynJointVerify_get_autoinheritance_info 0000000180017530 f   c2_DynJointVerify.obj
 0001:00016c60       c2_DynJointVerify_method_dispatcher 0000000180017c60 f   c2_DynJointVerify.obj
 0001:00039a30       sf_c3_DynJointVerify_get_eml_resolved_functions_info 000000018003aa30 f   c3_DynJointVerify.obj
 0001:0003bb60       sf_c3_DynJointVerify_get_check_sum 000000018003cb60 f   c3_DynJointVerify.obj
 0001:0003bbe0       sf_c3_DynJointVerify_get_autoinheritance_info 000000018003cbe0 f   c3_DynJointVerify.obj
 0001:0003cd70       c3_DynJointVerify_method_dispatcher 000000018003dd70 f   c3_DynJointVerify.obj
 0001:0005eee0       sf_c4_DynJointVerify_get_eml_resolved_functions_info 000000018005fee0 f   c4_DynJointVerify.obj
 0001:00061220       sf_c4_DynJointVerify_get_check_sum 0000000180062220 f   c4_DynJointVerify.obj
 0001:000612a0       sf_c4_DynJointVerify_get_autoinheritance_info 00000001800622a0 f   c4_DynJointVerify.obj
 0001:00062570       c4_DynJointVerify_method_dispatcher 0000000180063570 f   c4_DynJointVerify.obj
 0001:000fb200       sf_c5_DynJointVerify_get_eml_resolved_functions_info 00000001800fc200 f   c5_DynJointVerify.obj
 0001:000fbfc0       sf_c5_DynJointVerify_get_check_sum 00000001800fcfc0 f   c5_DynJointVerify.obj
 0001:000fc040       sf_c5_DynJointVerify_get_autoinheritance_info 00000001800fd040 f   c5_DynJointVerify.obj
 0001:000fca10       c5_DynJointVerify_method_dispatcher 00000001800fda10 f   c5_DynJointVerify.obj
 0001:00104370       sf_c6_DynJointVerify_get_eml_resolved_functions_info 0000000180105370 f   c6_DynJointVerify.obj
 0001:00105960       sf_c6_DynJointVerify_get_check_sum 0000000180106960 f   c6_DynJointVerify.obj
 0001:001059e0       sf_c6_DynJointVerify_get_autoinheritance_info 00000001801069e0 f   c6_DynJointVerify.obj
 0001:00105fc0       c6_DynJointVerify_method_dispatcher 0000000180106fc0 f   c6_DynJointVerify.obj
 0001:0010c560       sf_c7_DynJointVerify_get_eml_resolved_functions_info 000000018010d560 f   c7_DynJointVerify.obj
 0001:0010e4e0       sf_c7_DynJointVerify_get_check_sum 000000018010f4e0 f   c7_DynJointVerify.obj
 0001:0010e560       sf_c7_DynJointVerify_get_autoinheritance_info 000000018010f560 f   c7_DynJointVerify.obj
 0001:0010ec90       c7_DynJointVerify_method_dispatcher 000000018010fc90 f   c7_DynJointVerify.obj
 0001:00118fb0       sf_c8_DynJointVerify_get_eml_resolved_functions_info 0000000180119fb0 f   c8_DynJointVerify.obj
 0001:0011ccd0       sf_c8_DynJointVerify_get_check_sum 000000018011dcd0 f   c8_DynJointVerify.obj
 0001:0011cd50       sf_c8_DynJointVerify_get_autoinheritance_info 000000018011dd50 f   c8_DynJointVerify.obj
 0001:0011d480       c8_DynJointVerify_method_dispatcher 000000018011e480 f   c8_DynJointVerify.obj
 0001:00140360       sf_c9_DynJointVerify_get_eml_resolved_functions_info 0000000180141360 f   c9_DynJointVerify.obj
 0001:001436b0       sf_c9_DynJointVerify_get_check_sum 00000001801446b0 f   c9_DynJointVerify.obj
 0001:00143730       sf_c9_DynJointVerify_get_autoinheritance_info 0000000180144730 f   c9_DynJointVerify.obj
 0001:00143e60       c9_DynJointVerify_method_dispatcher 0000000180144e60 f   c9_DynJointVerify.obj
 0001:00152a80       sf_c10_DynJointVerify_get_eml_resolved_functions_info 0000000180153a80 f   c10_DynJointVerify.obj
 0001:00156790       sf_c10_DynJointVerify_get_check_sum 0000000180157790 f   c10_DynJointVerify.obj
 0001:00156810       sf_c10_DynJointVerify_get_autoinheritance_info 0000000180157810 f   c10_DynJointVerify.obj
 0001:00156f40       c10_DynJointVerify_method_dispatcher 0000000180157f40 f   c10_DynJointVerify.obj
 0001:0017a000       sf_c11_DynJointVerify_get_eml_resolved_functions_info 000000018017b000 f   c11_DynJointVerify.obj
 0001:0017d2e0       sf_c11_DynJointVerify_get_check_sum 000000018017e2e0 f   c11_DynJointVerify.obj
 0001:0017d360       sf_c11_DynJointVerify_get_autoinheritance_info 000000018017e360 f   c11_DynJointVerify.obj
 0001:0017da90       c11_DynJointVerify_method_dispatcher 000000018017ea90 f   c11_DynJointVerify.obj
 0001:0018c6e0       sf_c12_DynJointVerify_get_eml_resolved_functions_info 000000018018d6e0 f   c12_DynJointVerify.obj
 0001:0018dcd0       sf_c12_DynJointVerify_get_check_sum 000000018018ecd0 f   c12_DynJointVerify.obj
 0001:0018dd50       sf_c12_DynJointVerify_get_autoinheritance_info 000000018018ed50 f   c12_DynJointVerify.obj
 0001:0018e330       c12_DynJointVerify_method_dispatcher 000000018018f330 f   c12_DynJointVerify.obj
 0001:001948e0       sf_c13_DynJointVerify_get_eml_resolved_functions_info 00000001801958e0 f   c13_DynJointVerify.obj
 0001:00196870       sf_c13_DynJointVerify_get_check_sum 0000000180197870 f   c13_DynJointVerify.obj
 0001:001968f0       sf_c13_DynJointVerify_get_autoinheritance_info 00000001801978f0 f   c13_DynJointVerify.obj
 0001:00197020       c13_DynJointVerify_method_dispatcher 0000000180198020 f   c13_DynJointVerify.obj
 0001:001a12b0       sf_c14_DynJointVerify_get_eml_resolved_functions_info 00000001801a22b0 f   c14_DynJointVerify.obj
 0001:001a4f80       sf_c14_DynJointVerify_get_check_sum 00000001801a5f80 f   c14_DynJointVerify.obj
 0001:001a5000       sf_c14_DynJointVerify_get_autoinheritance_info 00000001801a6000 f   c14_DynJointVerify.obj
 0001:001a5730       c14_DynJointVerify_method_dispatcher 00000001801a6730 f   c14_DynJointVerify.obj
 0001:001c85d0       sf_c15_DynJointVerify_get_eml_resolved_functions_info 00000001801c95d0 f   c15_DynJointVerify.obj
 0001:001cb8b0       sf_c15_DynJointVerify_get_check_sum 00000001801cc8b0 f   c15_DynJointVerify.obj
 0001:001cb930       sf_c15_DynJointVerify_get_autoinheritance_info 00000001801cc930 f   c15_DynJointVerify.obj
 0001:001cc060       c15_DynJointVerify_method_dispatcher 00000001801cd060 f   c15_DynJointVerify.obj
 0001:001dac60       sf_c16_DynJointVerify_get_eml_resolved_functions_info 00000001801dbc60 f   c16_DynJointVerify.obj
 0001:001dcb90       sf_c16_DynJointVerify_get_check_sum 00000001801ddb90 f   c16_DynJointVerify.obj
 0001:001dcc10       sf_c16_DynJointVerify_get_autoinheritance_info 00000001801ddc10 f   c16_DynJointVerify.obj
 0001:001ddee0       c16_DynJointVerify_method_dispatcher 00000001801deee0 f   c16_DynJointVerify.obj
 0001:00228240       sf_c17_DynJointVerify_get_eml_resolved_functions_info 0000000180229240 f   c17_DynJointVerify.obj
 0001:0022a140       sf_c17_DynJointVerify_get_check_sum 000000018022b140 f   c17_DynJointVerify.obj
 0001:0022a1c0       sf_c17_DynJointVerify_get_autoinheritance_info 000000018022b1c0 f   c17_DynJointVerify.obj
 0001:0022b350       c17_DynJointVerify_method_dispatcher 000000018022c350 f   c17_DynJointVerify.obj
 0001:00246340       sf_c18_DynJointVerify_get_eml_resolved_functions_info 0000000180247340 f   c18_DynJointVerify.obj
 0001:00247930       sf_c18_DynJointVerify_get_check_sum 0000000180248930 f   c18_DynJointVerify.obj
 0001:002479b0       sf_c18_DynJointVerify_get_autoinheritance_info 00000001802489b0 f   c18_DynJointVerify.obj
 0001:00247f90       c18_DynJointVerify_method_dispatcher 0000000180248f90 f   c18_DynJointVerify.obj
 0001:0024e490       sf_c19_DynJointVerify_get_eml_resolved_functions_info 000000018024f490 f   c19_DynJointVerify.obj
 0001:00250430       sf_c19_DynJointVerify_get_check_sum 0000000180251430 f   c19_DynJointVerify.obj
 0001:002504b0       sf_c19_DynJointVerify_get_autoinheritance_info 00000001802514b0 f   c19_DynJointVerify.obj
 0001:00250be0       c19_DynJointVerify_method_dispatcher 0000000180251be0 f   c19_DynJointVerify.obj
 0001:0025aff0       sf_c20_DynJointVerify_get_eml_resolved_functions_info 000000018025bff0 f   c20_DynJointVerify.obj
 0001:0025c210       sf_c20_DynJointVerify_get_check_sum 000000018025d210 f   c20_DynJointVerify.obj
 0001:0025c290       sf_c20_DynJointVerify_get_autoinheritance_info 000000018025d290 f   c20_DynJointVerify.obj
 0001:0025cc60       c20_DynJointVerify_method_dispatcher 000000018025dc60 f   c20_DynJointVerify.obj
 0001:00265c40       sf_c21_DynJointVerify_get_eml_resolved_functions_info 0000000180266c40 f   c21_DynJointVerify.obj
 0001:00267fc0       sf_c21_DynJointVerify_get_check_sum 0000000180268fc0 f   c21_DynJointVerify.obj
 0001:00268040       sf_c21_DynJointVerify_get_autoinheritance_info 0000000180269040 f   c21_DynJointVerify.obj
 0001:002688b0       c21_DynJointVerify_method_dispatcher 00000001802698b0 f   c21_DynJointVerify.obj
 0001:00280190       sf_process_check_sum_call  0000000180281190 f   DynJointVerify_sfun_registry.obj
 0001:002801e0       sf_process_autoinheritance_call 00000001802811e0 f   DynJointVerify_sfun_registry.obj
 0001:00280230       sf_process_get_eml_resolved_functions_info_call 0000000180281230 f   DynJointVerify_sfun_registry.obj
 0001:002803b0       sf_mex_unlock_call         00000001802813b0 f   DynJointVerify_sfun_registry.obj
 0001:00280460       sf_machine_global_initializer_called 0000000180281460 f   DynJointVerify_sfun_registry.obj
 0001:00280490       sf_machine_global_method_dispatcher 0000000180281490 f   DynJointVerify_sfun_registry.obj
 0001:002804f0       sf_machine_global_terminator 00000001802814f0 f   DynJointVerify_sfun_registry.obj
 0001:00280530       sf_register_machine_exported_symbols 0000000180281530 f   DynJointVerify_sfun_registry.obj
 0001:00280550       callCustomFcn              0000000180281550 f   DynJointVerify_sfun_registry.obj
 0001:00280560       sf_machine_global_initializer 0000000180281560 f   DynJointVerify_sfun_registry.obj
 0001:002805d0       _ssSetInputPortMatrixDimensions 00000001802815d0 f   DynJointVerify_sfun_registry.obj
 0001:002806e0       _ssSetOutputPortMatrixDimensions 00000001802816e0 f   DynJointVerify_sfun_registry.obj
 0001:002807f0       _ssSetInputPortVectorDimension 00000001802817f0 f   DynJointVerify_sfun_registry.obj
 0001:002808b0       _ssSetOutputPortVectorDimension 00000001802818b0 f   DynJointVerify_sfun_registry.obj
 0001:00280970       ssIsRunTimeParamTunable    0000000180281970 f   DynJointVerify_sfun_registry.obj
 0001:002809e0       ssGetSFuncBlockHandle      00000001802819e0 f   DynJointVerify_sfun_registry.obj
 0001:00280a50       _ssGetCurrentInputPortWidth 0000000180281a50 f   DynJointVerify_sfun_registry.obj
 0001:00280b70       _ssGetCurrentOutputPortWidth 0000000180281b70 f   DynJointVerify_sfun_registry.obj
 0001:00280c90       _ssGetCallSystemNumFcnCallDestinations 0000000180281c90 f   DynJointVerify_sfun_registry.obj
 0001:00280d00       ssWarning                  0000000180281d00 f   DynJointVerify_sfun_registry.obj
 0001:00280de0       ssGetIsZeroCrossControlDisabled 0000000180281de0 f   DynJointVerify_sfun_registry.obj
 0001:00280e50       ssSetIsInputPortUsedForContZcSignal 0000000180281e50 f   DynJointVerify_sfun_registry.obj
 0001:00280ec0       ssSetZcSignalIsZcElementDisc 0000000180281ec0 f   DynJointVerify_sfun_registry.obj
 0001:00280f50       ssSetZcSignalName          0000000180281f50 f   DynJointVerify_sfun_registry.obj
 0001:00280fc0       ssSetZcSignalWidth         0000000180281fc0 f   DynJointVerify_sfun_registry.obj
 0001:00281030       ssSetZcSignalZcEventType   0000000180282030 f   DynJointVerify_sfun_registry.obj
 0001:002810a0       ssSetZcSignalType          00000001802820a0 f   DynJointVerify_sfun_registry.obj
 0001:00281110       ssSetZcSignalZcTol         0000000180282110 f   DynJointVerify_sfun_registry.obj
 0001:00281180       ssSetZcSignalNeedsEventNotification 0000000180282180 f   DynJointVerify_sfun_registry.obj
 0001:002811f0       ssCreateAndAddZcSignalInfo 00000001802821f0 f   DynJointVerify_sfun_registry.obj
 0001:00281260       ssCloneAndAddZcSignalInfo  0000000180282260 f   DynJointVerify_sfun_registry.obj
 0001:002812d0       ssGetNumZcSignals          00000001802822d0 f   DynJointVerify_sfun_registry.obj
 0001:00281340       ssGetZcSignalVector        0000000180282340 f   DynJointVerify_sfun_registry.obj
 0001:002813b0       ssGetZcSignalZcEvents      00000001802823b0 f   DynJointVerify_sfun_registry.obj
 0001:00281420       ssGetZcSignalName          0000000180282420 f   DynJointVerify_sfun_registry.obj
 0001:00281490       ssGetZcSignalWidth         0000000180282490 f   DynJointVerify_sfun_registry.obj
 0001:00281500       ssGetZcSignalZcEventType   0000000180282500 f   DynJointVerify_sfun_registry.obj
 0001:00281570       ssGetZcSignalType          0000000180282570 f   DynJointVerify_sfun_registry.obj
 0001:002815e0       ssGetZcSignalZcTol         00000001802825e0 f   DynJointVerify_sfun_registry.obj
 0001:00281660       ssGetZcSignalNeedsEventNotification 0000000180282660 f   DynJointVerify_sfun_registry.obj
 0001:002816d0       ssGetZcSignalIsZcElementDisc 00000001802826d0 f   DynJointVerify_sfun_registry.obj
 0001:00281750       ssGetIsInputPortElementContinuous 0000000180282750 f   DynJointVerify_sfun_registry.obj
 0001:002817d0       _ssGetInputPortSignalPtrsFcn 00000001802827d0 f   DynJointVerify_sfun_registry.obj
 0001:00281a40       _ssGetInputPortSignalFcn   0000000180282a40 f   DynJointVerify_sfun_registry.obj
 0001:00281c10       _ssSetInputPortDirectFeedThroughFcn 0000000180282c10 f   DynJointVerify_sfun_registry.obj
 0001:00281d60       _ssSetInputPortReusableFcn 0000000180282d60 f   DynJointVerify_sfun_registry.obj
 0001:00281e50       _ssSetOutputPortReusableFcn 0000000180282e50 f   DynJointVerify_sfun_registry.obj
 0001:00281f30       ssGetDTypeIdFromMxArray    0000000180282f30 f   DynJointVerify_sfun_registry.obj
 0001:00282050       ssWriteRTWStr              0000000180283050 f   DynJointVerify_sfun_registry.obj
 0001:002820b0       ssWriteRTWMxVectParam      00000001802830b0 f   DynJointVerify_sfun_registry.obj
 0001:00282110       ssWriteRTWMx2dMatParam     0000000180283110 f   DynJointVerify_sfun_registry.obj
 0001:00282190       ssWriteRTWNameValuePair    0000000180283190 f   DynJointVerify_sfun_registry.obj
 0001:00282670       ssWriteRTWParameters       0000000180283670 f   DynJointVerify_sfun_registry.obj
 0001:00282c70       ssWriteRTWParamSettings    0000000180283c70 f   DynJointVerify_sfun_registry.obj
 0001:00283340       ssWriteRTWWorkVect         0000000180284340 f   DynJointVerify_sfun_registry.obj
 0001:00283840       mexFunction                0000000180284840 f   DynJointVerify_sfun_registry.obj
 0001:002854d0       ProcessMexSfunctionEveryCall 00000001802864d0 f   DynJointVerify_sfun_registry.obj
 0001:00285640       DynJointVerify_initializer 0000000180286640 f   DynJointVerify_sfun.obj
 0001:00285660       DynJointVerify_terminator  0000000180286660 f   DynJointVerify_sfun.obj
 0001:00285670       sf_DynJointVerify_method_dispatcher 0000000180286670 f   DynJointVerify_sfun.obj
 0001:00285980       sf_DynJointVerify_process_check_sum_call 0000000180286980 f   DynJointVerify_sfun.obj
 0001:00285f30       sf_DynJointVerify_autoinheritance_info 0000000180286f30 f   DynJointVerify_sfun.obj
 0001:00286240       sf_DynJointVerify_get_eml_resolved_functions_info 0000000180287240 f   DynJointVerify_sfun.obj
 0001:00286880       DynJointVerify_debug_initialize 0000000180287880 f   DynJointVerify_sfun.obj
 0001:002868f0       DynJointVerify_register_exported_symbols 00000001802878f0 f   DynJointVerify_sfun.obj
 0001:002869a0       sf_mex_mx_is_numeric       00000001802879a0 f   sfc_mex:sfc_mex.obj
 0001:002869e0       strcmp_ignore_ws           00000001802879e0 f   sfc_mex:sfc_mex.obj
 0001:00286b20       sf_mex_duplicatearraysafe  0000000180287b20 f   sfc_mex:sfc_mex.obj
 0001:00286c80       sf_set_error_debugger_context_message_fcn 0000000180287c80 f   sfc_mex:sfc_mex.obj
 0001:00286c90       sf_set_debugger_matlab_error_fcn 0000000180287c90 f   sfc_mex:sfc_mex.obj
 0001:00286cc0       sf_set_error_prefix_string 0000000180287cc0 f   sfc_mex:sfc_mex.obj
 0001:00286cf0       sf_get_error_prefix_string 0000000180287cf0 f   sfc_mex:sfc_mex.obj
 0001:00286d00       sf_get_current_jmp_buf_ptr 0000000180287d00 f   sfc_mex:sfc_mex.obj
 0001:00286d10       sf_set_current_jmp_buf_ptr 0000000180287d10 f   sfc_mex:sfc_mex.obj
 0001:00286d20       sf_mex_set_halt_simulation 0000000180287d20 f   sfc_mex:sfc_mex.obj
 0001:00286d30       sf_mex_get_halt_simulation 0000000180287d30 f   sfc_mex:sfc_mex.obj
 0001:00286d40       sf_mex_clear_error_message 0000000180287d40 f   sfc_mex:sfc_mex.obj
 0001:00286d60       sf_mex_get_error_message_for_read 0000000180287d60 f   sfc_mex:sfc_mex.obj
 0001:00286d70       sf_mex_get_error_message_buffer_length 0000000180287d70 f   sfc_mex:sfc_mex.obj
 0001:00286e60       sf_mex_warning_message     0000000180287e60 f   sfc_mex:sfc_mex.obj
 0001:00286ed0       sf_mex_v_errbuf_createf    0000000180287ed0 f   sfc_mex:sfc_mex.obj
 0001:00286ee0       sf_mex_errbuf_createf      0000000180287ee0 f   sfc_mex:sfc_mex.obj
 0001:00286f10       sf_mex_v_errbuf_catf       0000000180287f10 f   sfc_mex:sfc_mex.obj
 0001:00286f50       sf_mex_errbuf_catf         0000000180287f50 f   sfc_mex:sfc_mex.obj
 0001:00286fa0       sf_mex_errbuf_copy         0000000180287fa0 f   sfc_mex:sfc_mex.obj
 0001:00286fb0       sf_mex_errbuf_clear        0000000180287fb0 f   sfc_mex:sfc_mex.obj
 0001:00286fc0       sf_mex_errbuf_isempty      0000000180287fc0 f   sfc_mex:sfc_mex.obj
 0001:002870d0       sf_mex_set_error_status    00000001802880d0 f   sfc_mex:sfc_mex.obj
 0001:00287120       sf_mex_error_direct_call   0000000180288120 f   sfc_mex:sfc_mex.obj
 0001:00287140       sf_mex_long_jump_on_error  0000000180288140 f   sfc_mex:sfc_mex.obj
 0001:00287170       sf_mex_call_matlab         0000000180288170 f   sfc_mex:sfc_mex.obj
 0001:00287290       sf_mex_check_builtin       0000000180288290 f   sfc_mex:sfc_mex.obj
 0001:002872d0       sf_mex_check_builtin_vs    00000001802882d0 f   sfc_mex:sfc_mex.obj
 0001:00287330       sf_mex_check_enum          0000000180288330 f   sfc_mex:sfc_mex.obj
 0001:00287360       sf_mex_create_enum         0000000180288360 f   sfc_mex:sfc_mex.obj
 0001:00287380       sf_mex_get_enum_element    0000000180288380 f   sfc_mex:sfc_mex.obj
 0001:00287390       sf_mex_createcellarray     0000000180288390 f   sfc_mex:sfc_mex.obj
 0001:002873a0       sf_mex_setcell             00000001802883a0 f   sfc_mex:sfc_mex.obj
 0001:002873b0       sf_mex_getcell             00000001802883b0 f   sfc_mex:sfc_mex.obj
 0001:002873c0       sf_mex_dup                 00000001802883c0 f   sfc_mex:sfc_mex.obj
 0001:002873e0       sf_mex_assign              00000001802883e0 f   sfc_mex:sfc_mex.obj
 0001:00287440       sf_mex_destroy             0000000180288440 f   sfc_mex:sfc_mex.obj
 0001:00287470       mx_array_has_fi_type       0000000180288470 f   sfc_mex:sfc_mex.obj
 0001:002874a0       sf_mex_convert_from_fi     00000001802884a0 f   sfc_mex:sfc_mex.obj
 0001:00287600       sf_mex_convert_to_double   0000000180288600 f   sfc_mex:sfc_mex.obj
 0001:00287720       sf_mex_import_fi_vs        0000000180288720 f   sfc_mex:sfc_mex.obj
 0001:00287950       sf_matrix_matrix_index_ok  0000000180288950 f   sfc_mex:sfc_mex.obj
 0001:002879e0       sf_vector_vector_index_ok  00000001802889e0 f   sfc_mex:sfc_mex.obj
 0001:00287a10       ssGetCurrentInputPortDimensions_wrapper 0000000180288a10 f   sfc_mex:sfc_mex.obj
 0001:00287a30       ssGetCurrentOutputPortDimensions_wrapper 0000000180288a30 f   sfc_mex:sfc_mex.obj
 0001:00287a50       sf_mex_emlrt_context_is_debug_mode 0000000180288a50 f   sfc_mex:sfc_mex.obj
 0001:00287a60       sf_mex_emlrt_context_set_debug_mode 0000000180288a60 f   sfc_mex:sfc_mex.obj
 0001:00287a70       sf_clear_error_manager_info 0000000180288a70 f   sfc_mex:sfc_mex.obj
 0001:00287ac0       sf_mex_stop_simulation_abruptly_wo_error 0000000180288ac0 f   sfc_mex:sfc_mex.obj
 0001:00287b00       sf_mex_error_message       0000000180288b00 f   sfc_mex:sfc_mex.obj
 0001:00287b60       sf_react_to_error_in_matlab_call 0000000180288b60 f   sfc_mex:sfc_mex.obj
 0001:00287b90       sf_mex_addfield            0000000180288b90 f   sfc_mex:sfc_mex.obj
 0001:00287c30       sf_mex_getfield            0000000180288c30 f   sfc_mex:sfc_mex.obj
 0001:00287ee0       sf_mex_check_class         0000000180288ee0 f   sfc_mex:sfc_mex.obj
 0001:00287f70       sf_mex_is_real             0000000180288f70 f   sfc_mex:sfc_mex.obj
 0001:00288090       sf_mex_check_complex       0000000180289090 f   sfc_mex:sfc_mex.obj
 0001:002880f0       sf_mex_check_sparse        00000001802890f0 f   sfc_mex:sfc_mex.obj
 0001:00288160       sf_mex_check_numerictype   0000000180289160 f   sfc_mex:sfc_mex.obj
 0001:002883c0       sf_mex_check_fimath        00000001802893c0 f   sfc_mex:sfc_mex.obj
 0001:00288620       sf_mex_decode_encoded_mx_struct_array 0000000180289620 f   sfc_mex:sfc_mex.obj
 0001:002888f0       sf_mex_lw_bounds_check     00000001802898f0 f   sfc_mex:sfc_mex.obj
 0001:00288920       sf_mex_lw_size_eq_check_1d 0000000180289920 f   sfc_mex:sfc_mex.obj
 0001:00288940       sf_mex_lw_size_eq_check_nd 0000000180289940 f   sfc_mex:sfc_mex.obj
 0001:00288b30       sf_mex_lw_dim_size_eq_check 0000000180289b30 f   sfc_mex:sfc_mex.obj
 0001:00288b60       sf_mex_lw_dim_size_geq_check 0000000180289b60 f   sfc_mex:sfc_mex.obj
 0001:00288b90       sf_mex_lw_sub_assign_size_check_nd 0000000180289b90 f   sfc_mex:sfc_mex.obj
 0001:00288dd0       sf_mex_lw_matrix_matrix_index_check 0000000180289dd0 f   sfc_mex:sfc_mex.obj
 0001:00288e60       sf_mex_lw_vector_vector_index_check 0000000180289e60 f   sfc_mex:sfc_mex.obj
 0001:00288ea0       sf_mex_lw_non_negative_check 0000000180289ea0 f   sfc_mex:sfc_mex.obj
 0001:00288ee0       sf_mex_overflow_error      0000000180289ee0 f   sfc_mex:sfc_mex.obj
 0001:00288ef0       sf_mex_dividebyzero_error  0000000180289ef0 f   sfc_mex:sfc_mex.obj
 0001:00288f00       sf_mex_unsafe_enum_error   0000000180289f00 f   sfc_mex:sfc_mex.obj
 0001:00288f10       sf_emlrtErrHandler         0000000180289f10 f   sfc_mex:sfc_mex.obj
 0001:00288f40       sf_mex_printf              0000000180289f40 f   sfc_mex:sfc_mex.obj
 0001:00289170       sf_mex_check_size          000000018028a170 f   sfc_mex:sfc_mex.obj
 0001:00289470       sf_mex_check_struct        000000018028a470 f   sfc_mex:sfc_mex.obj
 0001:00289630       sf_mex_check_struct_vs     000000018028a630 f   sfc_mex:sfc_mex.obj
 0001:002896c0       sf_mex_check_fi            000000018028a6c0 f   sfc_mex:sfc_mex.obj
 0001:00289920       sf_mex_check_fi_vs         000000018028a920 f   sfc_mex:sfc_mex.obj
 0001:002899c0       sf_echo_expression         000000018028a9c0 f   sfc_mex:sfc_mex.obj
 0001:00289a20       sf_assertion_failed        000000018028aa20 f   sfc_mex:sfc_mex.obj
 0001:00289bf0       sf_mex_evalin              000000018028abf0 f   sfc_mex:sfc_mex.obj
 0001:00289f10       sf_mex_export              000000018028af10 f   sfc_mex:sfc_mex.obj
 0001:00289fb0       sf_mex_get_ml_var_no_error 000000018028afb0 f   sfc_mex:sfc_mex.obj
 0001:0028a230       sf_mex_get_ml_var          000000018028b230 f   sfc_mex:sfc_mex.obj
 0001:0028a5b0       ml_set_element_value_in_array 000000018028b5b0 f   sfc_mex:sfc_mex.obj
 0001:0028ba40       sf_mex_call_impl           000000018028ca40 f   sfc_mex:sfc_mex.obj
 0001:0028c000       sf_mex_call_debug          000000018028d000 f   sfc_mex:sfc_mex.obj
 0001:0028c030       sf_mex_call                000000018028d030 f   sfc_mex:sfc_mex.obj
 0001:0028c640       sf_mex_createstruct        000000018028d640 f   sfc_mex:sfc_mex.obj
 0001:0028c730       sf_mex_createstructarray   000000018028d730 f   sfc_mex:sfc_mex.obj
 0001:0028c7b0       sf_mex_get_mx_datatype_from_sf_datatype 000000018028d7b0 f   sfc_mex:sfc_mex.obj
 0001:0028cac0       sf_mex_ml_var_sub          000000018028dac0 f   sfc_mex:sfc_mex.obj
 0001:0028cc90       sf_mex_ml_var_subsasgn     000000018028dc90 f   sfc_mex:sfc_mex.obj
 0001:0028d0a0       sf_mex_sub                 000000018028e0a0 f   sfc_mex:sfc_mex.obj
 0001:0028d2c0       sf_mex_subsasgn            000000018028e2c0 f   sfc_mex:sfc_mex.obj
 0001:0028de70       sf_mex_create              000000018028ee70 f   sfc_mex:sfc_mex.obj
 0001:0028ecf0       sf_mex_import              000000018028fcf0 f   sfc_mex:sfc_mex.obj
 0001:0028ee00       sf_mex_import_vs           000000018028fe00 f   sfc_mex:sfc_mex.obj
 0001:0028ef10       sf_mex_lower_fixpt_mx_array 000000018028ff10 f   sfc_mex:sfc_mex.obj
 0001:0028f550       sim_mode_is_rtw_gen        0000000180290550 f   sfc_mex:sfc_sf.obj
 0001:0028f580       sim_mode_is_external       0000000180290580 f   sfc_mex:sfc_sf.obj
 0001:0028f590       mdlInitializeSizes         0000000180290590 f   sfc_mex:sfc_sf.obj
 0001:0028f5b0       mdlInitializeSampleTimes   00000001802905b0 f   sfc_mex:sfc_sf.obj
 0001:0028f5f0       mdlZeroCrossings           00000001802905f0 f   sfc_mex:sfc_sf.obj
 0001:0028f6d0       mdlDerivatives             00000001802906d0 f   sfc_mex:sfc_sf.obj
 0001:0028f780       mdl_initialize_conditions_processing 0000000180290780 f   sfc_mex:sfc_sf.obj
 0001:0028f7b0       mdlInitializeConditions    00000001802907b0 f   sfc_mex:sfc_sf.obj
 0001:0028f870       mdlGetSimState             0000000180290870 f   sfc_mex:sfc_sf.obj
 0001:0028f880       mdlSetSimState             0000000180290880 f   sfc_mex:sfc_sf.obj
 0001:0028f890       mdl_ext_mode_exec_processing 0000000180290890 f   sfc_mex:sfc_sf.obj
 0001:0028f8b0       mdlExtModeExec             00000001802908b0 f   sfc_mex:sfc_sf.obj
 0001:0028fb10       mdlTerminate               0000000180290b10 f   sfc_mex:sfc_sf.obj
 0001:0028fb80       mdlRTW                     0000000180290b80 f   sfc_mex:sfc_sf.obj
 0001:0028fbb0       mdlSetWorkWidths           0000000180290bb0 f   sfc_mex:sfc_sf.obj
 0001:0028fbc0       mdlProcessParameters       0000000180290bc0 f   sfc_mex:sfc_sf.obj
 0001:0028fbd0       mdl_start_processing       0000000180290bd0 f   sfc_mex:sfc_sf.obj
 0001:0028fc10       mdlStart                   0000000180290c10 f   sfc_mex:sfc_sf.obj
 0001:0028fd00       mdlEnable                  0000000180290d00 f   sfc_mex:sfc_sf.obj
 0001:0028fdd0       mdlDisable                 0000000180290dd0 f   sfc_mex:sfc_sf.obj
 0001:0028fe80       sf_get_chart_instance_ptr  0000000180290e80 f   sfc_mex:sfc_sf.obj
 0001:0028fea0       sf_rtw_info_uint_prop      0000000180290ea0 f   sfc_mex:sfc_sf.obj
 0001:00290080       sf_is_chart_inlinable      0000000180291080 f   sfc_mex:sfc_sf.obj
 0001:002900a0       sf_mark_output_events_with_multiple_callers 00000001802910a0 f   sfc_mex:sfc_sf.obj
 0001:002902c0       sf_mark_chart_reusable_outputs 00000001802912c0 f   sfc_mex:sfc_sf.obj
 0001:002905a0       sf_mark_chart_expressionable_inputs 00000001802915a0 f   sfc_mex:sfc_sf.obj
 0001:00290970       sf_get_subchart_simstruct  0000000180291970 f   sfc_mex:sfc_sf.obj
 0001:002909c0       sf_write_symbol_mapping    00000001802919c0 f   sfc_mex:sfc_sf.obj
 0001:00290c70       sf_get_fixpt_data_type_id  0000000180291c70 f   sfc_mex:sfc_sf.obj
 0001:00290cb0       sf_get_enum_data_type_id   0000000180291cb0 f   sfc_mex:sfc_sf.obj
 0001:00290cf0       sf_get_param_data_type_id  0000000180291cf0 f   sfc_mex:sfc_sf.obj
 0001:00290d20       sf_mex_listen_for_ctrl_c_force 0000000180291d20 f   sfc_mex:sfc_sf.obj
 0001:00290e30       sf_mex_draw_now            0000000180291e30 f   sfc_mex:sfc_sf.obj
 0001:00290e70       sf_mex_set_debugger_sim_status_listener_fcn 0000000180291e70 f   sfc_mex:sfc_sf.obj
 0001:00290e80       sf_mex_listen_for_ctrl_c   0000000180291e80 f   sfc_mex:sfc_sf.obj
 0001:00290f10       sf_mex_get_sfun_param      0000000180291f10 f   sfc_mex:sfc_sf.obj
 0001:00290f60       sf_get_runtime_param_data  0000000180291f60 f   sfc_mex:sfc_sf.obj
 0001:00290fa0       sf_call_output_fcn_call    0000000180291fa0 f   sfc_mex:sfc_sf.obj
 0001:002910e0       sf_call_output_fcn_enable  00000001802920e0 f   sfc_mex:sfc_sf.obj
 0001:00291170       sf_call_output_fcn_disable 0000000180292170 f   sfc_mex:sfc_sf.obj
 0001:00291200       sf_clear_rtw_identifier    0000000180292200 f   sfc_mex:sfc_sf.obj
 0001:002919d0       sf_set_encoded_dwork_info  00000001802929d0 f   sfc_mex:sfc_sf.obj
 0001:00291c70       sf_set_rtw_dwork_info      0000000180292c70 f   sfc_mex:sfc_sf.obj
 0001:00291f40       mdlOutputs                 0000000180292f40 f   sfc_mex:sfc_sf.obj
 0001:00292080       sf_debug_disp              0000000180293080 f   sfc_debug:sfcdebug.obj
 0001:00292350       sf_debug_data_runtime_size_mismatch_error_check 0000000180293350 f   sfc_debug:sfcdebug.obj
 0001:002923f0       sf_debug_try_loading_machine 00000001802933f0 f   sfc_debug:sfcdebug.obj
 0001:002924f0       sf_debug_reset_current_state_configuration 00000001802934f0 f   sfc_debug:sfcdebug.obj
 0001:00292580       sf_debug_store_current_state_configuration 0000000180293580 f   sfc_debug:sfcdebug.obj
 0001:00292610       sf_debug_restore_previous_state_configuration 0000000180293610 f   sfc_debug:sfcdebug.obj
 0001:002926a0       sf_debug_restore_previous_state_configuration2 00000001802936a0 f   sfc_debug:sfcdebug.obj
 0001:00292730       sf_debug_get_event_scope   0000000180293730 f   sfc_debug:sfcdebug.obj
 0001:002928a0       use_debugger_step_animation 00000001802938a0 f   sfc_debug:sfcdebug.obj
 0001:002928c0       sf_debug_get_script_id     00000001802938c0 f   sfc_debug:sfcdebug.obj
 0001:00292950       sf_debug_set_script_translation 0000000180293950 f   sfc_debug:sfcdebug.obj
 0001:00292a10       sf_debug_get_current_machine_id 0000000180293a10 f   sfc_debug:sfcdebug.obj
 0001:00292a30       sf_debug_get_current_optional_integer 0000000180293a30 f   sfc_debug:sfcdebug.obj
 0001:00292a40       sf_debug_get_current_machine_number 0000000180293a40 f   sfc_debug:sfcdebug.obj
 0001:00292a60       sf_debug_get_current_machine_name 0000000180293a60 f   sfc_debug:sfcdebug.obj
 0001:00292a80       sf_debug_get_current_chart_id 0000000180293a80 f   sfc_debug:sfcdebug.obj
 0001:00292ad0       sf_debug_get_current_chart_number 0000000180293ad0 f   sfc_debug:sfcdebug.obj
 0001:00292ae0       sf_debug_get_current_instance_number 0000000180293ae0 f   sfc_debug:sfcdebug.obj
 0001:00292af0       sf_debug_get_current_is_minor_time_step 0000000180293af0 f   sfc_debug:sfcdebug.obj
 0001:00292b70       sf_debug_get_current_object_type 0000000180293b70 f   sfc_debug:sfcdebug.obj
 0001:00292b80       sf_debug_get_current_instance_handle 0000000180293b80 f   sfc_debug:sfcdebug.obj
 0001:00292be0       sf_debug_get_current_event_type 0000000180293be0 f   sfc_debug:sfcdebug.obj
 0001:00292bf0       sf_debug_get_current_object_id 0000000180293bf0 f   sfc_debug:sfcdebug.obj
 0001:00292c30       sf_debug_get_current_active_event_type 0000000180293c30 f   sfc_debug:sfcdebug.obj
 0001:00292c40       sf_debug_get_current_active_event_id 0000000180293c40 f   sfc_debug:sfcdebug.obj
 0001:00292c80       sf_debug_get_current_tag_type 0000000180293c80 f   sfc_debug:sfcdebug.obj
 0001:00292c90       sf_debug_get_current_simulation_time 0000000180293c90 f   sfc_debug:sfcdebug.obj
 0001:00292ca0       sf_debug_get_current_coverage_percentage 0000000180293ca0 f   sfc_debug:sfcdebug.obj
 0001:00292cb0       sf_debug_current_statement_context 0000000180293cb0 f   sfc_debug:sfcdebug.obj
 0001:00292d40       sf_debug_get_current_statement_info 0000000180293d40 f   sfc_debug:sfcdebug.obj
 0001:00292ec0       sf_debug_terminate_instance 0000000180293ec0 f   sfc_debug:sfcdebug.obj
 0001:002931e0       sf_debug_assertion_failed  00000001802941e0 f   sfc_debug:sfcdebug.obj
 0001:00293390       sf_debug_set_number_of_data_with_change_event_for_machine 0000000180294390 f   sfc_debug:sfcdebug.obj
 0001:002933d0       sf_debug_set_machine_event_thresholds 00000001802943d0 f   sfc_debug:sfcdebug.obj
 0001:002933f0       sf_debug_set_machine_event_scope 00000001802943f0 f   sfc_debug:sfcdebug.obj
 0001:00293430       sf_debug_set_machine_data_thresholds 0000000180294430 f   sfc_debug:sfcdebug.obj
 0001:00293470       sf_debug_set_machine_data_scope 0000000180294470 f   sfc_debug:sfcdebug.obj
 0001:00293500       sf_debug_set_machine_data_name 0000000180294500 f   sfc_debug:sfcdebug.obj
 0001:002935a0       sf_debug_set_machine_data_size 00000001802945a0 f   sfc_debug:sfcdebug.obj
 0001:002936e0       sf_debug_set_machine_data_type 00000001802946e0 f   sfc_debug:sfcdebug.obj
 0001:00293850       sf_debug_get_chart_data_number 0000000180294850 f   sfc_debug:sfcdebug.obj
 0001:00293870       sf_debug_get_chart_event_number 0000000180294870 f   sfc_debug:sfcdebug.obj
 0001:00293890       sf_debug_set_chart_state_info 0000000180294890 f   sfc_debug:sfcdebug.obj
 0001:00293910       sf_debug_set_chart_decomposition 0000000180294910 f   sfc_debug:sfcdebug.obj
 0001:00293980       sf_debug_set_chart_substate_count 0000000180294980 f   sfc_debug:sfcdebug.obj
 0001:00293a60       sf_debug_set_chart_substate_index 0000000180294a60 f   sfc_debug:sfcdebug.obj
 0001:00293ad0       sf_debug_set_chart_state_substate_count 0000000180294ad0 f   sfc_debug:sfcdebug.obj
 0001:00293be0       sf_debug_set_chart_state_substate_index 0000000180294be0 f   sfc_debug:sfcdebug.obj
 0001:00293c60       sf_debug_set_number_of_data_with_change_event_for_chart 0000000180294c60 f   sfc_debug:sfcdebug.obj
 0001:00293ce0       sf_debug_set_number_of_states_with_entry_event_for_chart 0000000180294ce0 f   sfc_debug:sfcdebug.obj
 0001:00293d50       sf_debug_set_number_of_states_with_exit_event_for_chart 0000000180294d50 f   sfc_debug:sfcdebug.obj
 0001:00293dc0       sf_debug_set_chart_disable_implicit_casting 0000000180294dc0 f   sfc_debug:sfcdebug.obj
 0001:00293e30       sf_debug_set_chart_event_thresholds 0000000180294e30 f   sfc_debug:sfcdebug.obj
 0001:00293ea0       sf_debug_set_chart_data_compiled_props 0000000180294ea0 f   sfc_debug:sfcdebug.obj
 0001:002941e0       sf_debug_set_chart_data_props 00000001802951e0 f   sfc_debug:sfcdebug.obj
 0001:00294510       sf_debug_check_fi_license  0000000180295510 f   sfc_debug:sfcdebug.obj
 0001:00294700       sf_debug_symbol_scope_push 0000000180295700 f   sfc_debug:sfcdebug.obj
 0001:002947e0       sf_debug_symbol_scope_push_eml 00000001802957e0 f   sfc_debug:sfcdebug.obj
 0001:002948c0       sf_debug_symbol_scope_pop  00000001802958c0 f   sfc_debug:sfcdebug.obj
 0001:00294900       sf_debug_symbol_scope_add  0000000180295900 f   sfc_debug:sfcdebug.obj
 0001:00294980       sf_debug_symbol_scope_add_eml 0000000180295980 f   sfc_debug:sfcdebug.obj
 0001:002949c0       sf_debug_symbol_scope_add_dyn 00000001802959c0 f   sfc_debug:sfcdebug.obj
 0001:00294a70       sf_debug_symbol_scope_add_eml_dyn 0000000180295a70 f   sfc_debug:sfcdebug.obj
 0001:00294ad0       sf_debug_symbol_switch     0000000180295ad0 f   sfc_debug:sfcdebug.obj
 0001:00294af0       sf_debug_symbol_scope_add_verbose 0000000180295af0 f   sfc_debug:sfcdebug.obj
 0001:00294bc0       sf_debug_set_machine_data_value_ptr 0000000180295bc0 f   sfc_debug:sfcdebug.obj
 0001:00294c00       sf_debug_set_instance_data_value_ptr 0000000180295c00 f   sfc_debug:sfcdebug.obj
 0001:00294cc0       sf_debug_unset_instance_data_value_ptr 0000000180295cc0 f   sfc_debug:sfcdebug.obj
 0001:00294d70       sf_debug_set_chart_event_scope 0000000180295d70 f   sfc_debug:sfcdebug.obj
 0001:00294df0       sf_debug_set_chart_transition_coverage_maps 0000000180295df0 f   sfc_debug:sfcdebug.obj
 0001:00294f00       sf_debug_set_chart_state_coverage_maps 0000000180295f00 f   sfc_debug:sfcdebug.obj
 0001:00294fe0       sf_debug_set_instance_transition_coverage_weights 0000000180295fe0 f   sfc_debug:sfcdebug.obj
 0001:00295080       sf_debug_set_instance_state_coverage_weights 0000000180296080 f   sfc_debug:sfcdebug.obj
 0001:002952d0       sf_debug_unload_machine    00000001802962d0 f   sfc_debug:sfcdebug.obj
 0001:00295320       sf_debug_load_machine      0000000180296320 f   sfc_debug:sfcdebug.obj
 0001:00295430       sf_debug_set_active_instance_in_data_dictionary 0000000180296430 f   sfc_debug:sfcdebug.obj
 0001:00295610       sf_debug_set_active_instance 0000000180296610 f   sfc_debug:sfcdebug.obj
 0001:00295760       sf_debug_chart_visiblity_change 0000000180296760 f   sfc_debug:sfcdebug.obj
 0001:00295840       sf_debug_select_chart      0000000180296840 f   sfc_debug:sfcdebug.obj
 0001:00295920       sf_debug_set_instance_cv_ids 0000000180296920 f   sfc_debug:sfcdebug.obj
 0001:00295c40       sf_debug_select_charts     0000000180296c40 f   sfc_debug:sfcdebug.obj
 0001:00295d80       sf_debug_initialized       0000000180296d80 f   sfc_debug:sfcdebug.obj
 0001:00295d90       sf_debug_is_uninterruptible 0000000180296d90 f   sfc_debug:sfcdebug.obj
 0001:00295dc0       sf_debug_initialize_debugger_gui 0000000180296dc0 f   sfc_debug:sfcdebug.obj
 0001:002961a0       sf_debug_resume            00000001802971a0 f   sfc_debug:sfcdebug.obj
 0001:002961c0       sf_debug_go                00000001802971c0 f   sfc_debug:sfcdebug.obj
 0001:002961d0       sf_debug_break             00000001802971d0 f   sfc_debug:sfcdebug.obj
 0001:002961e0       sf_debug_step_over         00000001802971e0 f   sfc_debug:sfcdebug.obj
 0001:002961f0       sf_debug_step_out          00000001802971f0 f   sfc_debug:sfcdebug.obj
 0001:00296200       sf_debug_set_disable_all_breakpoints 0000000180297200 f   sfc_debug:sfcdebug.obj
 0001:00296210       sf_debug_disable_all_breakpoints_and_go 0000000180297210 f   sfc_debug:sfcdebug.obj
 0001:00296220       sf_debug_break_on_chart_entry 0000000180297220 f   sfc_debug:sfcdebug.obj
 0001:00296230       sf_debug_break_on_event_broadcast 0000000180297230 f   sfc_debug:sfcdebug.obj
 0001:00296240       sf_debug_break_on_state_entry 0000000180297240 f   sfc_debug:sfcdebug.obj
 0001:00296250       sf_debug_break_between_times 0000000180297250 f   sfc_debug:sfcdebug.obj
 0001:00296270       sf_debug_browse_data       0000000180297270 f   sfc_debug:sfcdebug.obj
 0001:00296290       sf_debug_watch_data        0000000180297290 f   sfc_debug:sfcdebug.obj
 0001:002962b0       sf_debug_whos              00000001802972b0 f   sfc_debug:sfcdebug.obj
 0001:002962d0       sf_debug_get_consistency_info 00000001802972d0 f   sfc_debug:sfcdebug.obj
 0001:002962e0       sf_debug_browse_trace      00000001802972e0 f   sfc_debug:sfcdebug.obj
 0001:002962f0       sf_debug_set_breakpoints   00000001802972f0 f   sfc_debug:sfcdebug.obj
 0001:00296440       sf_debug_set_eml_breakpoints 0000000180297440 f   sfc_debug:sfcdebug.obj
 0001:002965a0       sf_debug_set_script_breakpoints 00000001802975a0 f   sfc_debug:sfcdebug.obj
 0001:00296620       sf_debug_add_script_breakpoints 0000000180297620 f   sfc_debug:sfcdebug.obj
 0001:00296690       sf_debug_clear_script_breakpoints 0000000180297690 f   sfc_debug:sfcdebug.obj
 0001:00296700       sf_debug_query_script_breakpoints 0000000180297700 f   sfc_debug:sfcdebug.obj
 0001:002967c0       sf_debug_get_eml_script_id 00000001802977c0 f   sfc_debug:sfcdebug.obj
 0001:00296880       sf_debug_set_watch         0000000180297880 f   sfc_debug:sfcdebug.obj
 0001:00296aa0       sf_debug_get_coverage      0000000180297aa0 f   sfc_debug:sfcdebug.obj
 0001:00296ab0       sf_debug_get_instance_handle 0000000180297ab0 f   sfc_debug:sfcdebug.obj
 0001:00296b40       sf_debug_get_active_states 0000000180297b40 f   sfc_debug:sfcdebug.obj
 0001:00296b50       sf_debug_get_animation     0000000180297b50 f   sfc_debug:sfcdebug.obj
 0001:00296b60       sf_debug_set_animation     0000000180297b60 f   sfc_debug:sfcdebug.obj
 0001:00296b70       sf_debug_animate           0000000180297b70 f   sfc_debug:sfcdebug.obj
 0001:00296ba0       sf_debug_cycle_detection_check 0000000180297ba0 f   sfc_debug:sfcdebug.obj
 0001:00296bb0       sf_debug_data_range_check  0000000180297bb0 f   sfc_debug:sfcdebug.obj
 0001:00296bc0       sf_debug_transition_conflict_check 0000000180297bc0 f   sfc_debug:sfcdebug.obj
 0001:00296bd0       sf_debug_state_consistency_check 0000000180297bd0 f   sfc_debug:sfcdebug.obj
 0001:00296be0       sf_debug_data_range_check_enabled 0000000180297be0 f   sfc_debug:sfcdebug.obj
 0001:00296c00       sf_debug_transition_conflict_check_enabled 0000000180297c00 f   sfc_debug:sfcdebug.obj
 0001:00296c20       sf_debug_transition_conflict_check_begin 0000000180297c20 f   sfc_debug:sfcdebug.obj
 0001:00296c40       sf_debug_transition_conflict_check_end 0000000180297c40 f   sfc_debug:sfcdebug.obj
 0001:00296c60       sf_debug_stop_debugging    0000000180297c60 f   sfc_debug:sfcdebug.obj
 0001:00296c90       sf_debug_is_cycle_detected 0000000180297c90 f   sfc_debug:sfcdebug.obj
 0001:00296ca0       sf_debug_is_array_bounds_detected 0000000180297ca0 f   sfc_debug:sfcdebug.obj
 0001:00296cb0       sf_debug_get_state_vectors_data_size 0000000180297cb0 f   sfc_debug:sfcdebug.obj
 0001:00296cf0       sf_debug_get_state_vectors_data 0000000180297cf0 f   sfc_debug:sfcdebug.obj
 0001:00296e00       sf_debug_set_state_vectors_data 0000000180297e00 f   sfc_debug:sfcdebug.obj
 0001:002970e0       sf_debug_get_script_index  00000001802980e0 f   sfc_debug:sfcdebug.obj
 0001:00297260       sf_debug_add_script        0000000180298260 f   sfc_debug:sfcdebug.obj
 0001:00297440       cv_eval_point              0000000180298440 f   sfc_debug:sfcdebug.obj
 0001:002975b0       sf_debug_cv_init_state     00000001802985b0 f   sfc_debug:sfcdebug.obj
 0001:002976d0       sf_debug_cv_init_chart     00000001802986d0 f   sfc_debug:sfcdebug.obj
 0001:002977b0       sf_debug_cv_init_trans     00000001802987b0 f   sfc_debug:sfcdebug.obj
 0001:00297920       cv_eml_init_script         0000000180298920 f   sfc_debug:sfcdebug.obj
 0001:00297a50       cv_eml_init_fcn            0000000180298a50 f   sfc_debug:sfcdebug.obj
 0001:00297b50       cv_eml_init_testobjective  0000000180298b50 f   sfc_debug:sfcdebug.obj
 0001:00297c50       cv_eml_init_if             0000000180298c50 f   sfc_debug:sfcdebug.obj
 0001:00297d50       cv_eml_init_for            0000000180298d50 f   sfc_debug:sfcdebug.obj
 0001:00297e40       cv_eml_init_while          0000000180298e40 f   sfc_debug:sfcdebug.obj
 0001:00297f30       cv_eml_init_mcdc           0000000180298f30 f   sfc_debug:sfcdebug.obj
 0001:00298070       cv_eml_init_switch         0000000180299070 f   sfc_debug:sfcdebug.obj
 0001:00298190       cv_eml_eval                0000000180299190 f   sfc_debug:sfcdebug.obj
 0001:00298290       sf_debug_bm_is_a_eml_breakpoint 0000000180299290 f   sfc_debug:sfcdebug.obj
 0001:00298480       sf_debug_temporal_threshold 0000000180299480 f   sfc_debug:sfcdebug.obj
 0001:00298820       sf_debug_transition_conflict_error 0000000180299820 f   sfc_debug:sfcdebug.obj
 0001:00298b80       sf_debug_state_inconsistency_error 0000000180299b80 f   sfc_debug:sfcdebug.obj
 0001:00298c90       sf_debug_check_for_state_inconsistency 0000000180299c90 f   sfc_debug:sfcdebug.obj
 0001:00298cc0       sf_debug_cycle_detecton_error 0000000180299cc0 f   sfc_debug:sfcdebug.obj
 0001:00299460       sf_debug_size_eq_check_1d  000000018029a460 f   sfc_debug:sfcdebug.obj
 0001:00299480       sf_debug_size_eq_check_nd  000000018029a480 f   sfc_debug:sfcdebug.obj
 0001:00299670       sf_debug_dim_size_eq_check 000000018029a670 f   sfc_debug:sfcdebug.obj
 0001:002996a0       sf_debug_dim_size_geq_check 000000018029a6a0 f   sfc_debug:sfcdebug.obj
 0001:002996d0       sf_debug_sub_assign_size_check_nd 000000018029a6d0 f   sfc_debug:sfcdebug.obj
 0001:00299920       sf_debug_matrix_matrix_index_check 000000018029a920 f   sfc_debug:sfcdebug.obj
 0001:00299950       sf_debug_vector_vector_index_check 000000018029a950 f   sfc_debug:sfcdebug.obj
 0001:00299980       sf_debug_data_array_bounds_error_check 000000018029a980 f   sfc_debug:sfcdebug.obj
 0001:00299a90       sf_debug_eml_data_array_bounds_error_check 000000018029aa90 f   sfc_debug:sfcdebug.obj
 0001:00299f50       sf_debug_integer_check     000000018029af50 f   sfc_debug:sfcdebug.obj
 0001:0029a020       sf_debug_not_nan_check     000000018029b020 f   sfc_debug:sfcdebug.obj
 0001:0029a0e0       sf_debug_non_negative_check 000000018029b0e0 f   sfc_debug:sfcdebug.obj
 0001:0029a1a0       sf_debug_overflow_detection 000000018029b1a0 f   sfc_debug:sfcdebug.obj
 0001:0029a860       sf_debug_cast_to_real32_T  000000018029b860 f   sfc_debug:sfcdebug.obj
 0001:0029a920       sf_debug_cast_to_int8_T    000000018029b920 f   sfc_debug:sfcdebug.obj
 0001:0029a9e0       sf_debug_cast_to_uint8_T   000000018029b9e0 f   sfc_debug:sfcdebug.obj
 0001:0029aaa0       sf_debug_cast_to_int16_T   000000018029baa0 f   sfc_debug:sfcdebug.obj
 0001:0029ab60       sf_debug_cast_to_uint16_T  000000018029bb60 f   sfc_debug:sfcdebug.obj
 0001:0029ac20       sf_debug_cast_to_int32_T   000000018029bc20 f   sfc_debug:sfcdebug.obj
 0001:0029acd0       sf_debug_cast_to_uint32_T  000000018029bcd0 f   sfc_debug:sfcdebug.obj
 0001:0029ad90       sf_debug_data_range_error  000000018029bd90 f   sfc_debug:sfcdebug.obj
 0001:0029b1f0       sf_debug_data_range_error_wrapper_min_max 000000018029c1f0 f   sfc_debug:sfcdebug.obj
 0001:0029b2e0       sf_debug_data_range_error_wrapper_min 000000018029c2e0 f   sfc_debug:sfcdebug.obj
 0001:0029b3c0       sf_debug_data_range_error_wrapper_max 000000018029c3c0 f   sfc_debug:sfcdebug.obj
 0001:0029b4a0       sf_debug_data_range_wrapper 000000018029c4a0 f   sfc_debug:sfcdebug.obj
 0001:0029b550       sf_debug_set_current_status_info 000000018029c550 f   sfc_debug:sfcdebug.obj
 0001:0029ba20       sf_debug_call              000000018029ca20 f   sfc_debug:sfcdebug.obj
 0001:0029c8d0       sf_debug_initialize_machine 000000018029d8d0 f   sfc_debug:sfcdebug.obj
 0001:0029cd50       sf_debug_initialize_chart  000000018029dd50 f   sfc_debug:sfcdebug.obj
 0001:0029d230       sf_debug_ensure_script     000000018029e230 f   sfc_debug:sfcdebug.obj
 0001:0029d3a0       cv_script_init_script      000000018029e3a0 f   sfc_debug:sfcdebug.obj
 0001:0029d520       cv_script_init_fcn         000000018029e520 f   sfc_debug:sfcdebug.obj
 0001:0029d670       cv_script_init_testobjective 000000018029e670 f   sfc_debug:sfcdebug.obj
 0001:0029d7c0       cv_script_init_if          000000018029e7c0 f   sfc_debug:sfcdebug.obj
 0001:0029d910       cv_script_init_for         000000018029e910 f   sfc_debug:sfcdebug.obj
 0001:0029da60       cv_script_init_while       000000018029ea60 f   sfc_debug:sfcdebug.obj
 0001:0029dbb0       cv_script_init_mcdc        000000018029ebb0 f   sfc_debug:sfcdebug.obj
 0001:0029dd50       cv_script_init_switch      000000018029ed50 f   sfc_debug:sfcdebug.obj
 0001:0029dec0       cv_script_eval             000000018029eec0 f   sfc_debug:sfcdebug.obj
 0001:0029e020       eml_debug_line_call        000000018029f020 f   sfc_debug:sfcdebug.obj
 0001:0029e1d0       sf_debug_terminate         000000018029f1d0 f   sfc_debug:sfcdebug.obj
 0001:0029e410       sf_debug_set_script_cv_ids 000000018029f410 f   sfc_debug:sfcdebug.obj
 0001:0029e5e0       sf_debug_api               000000018029f5e0 f   sfc_debug:sfc_api.obj
 0001:0029fe80       sf_debug_sm_terminate      00000001802a0e80 f   sfc_debug:sfdb_animation.obj
 0001:002a0040       sf_debug_reset_path_objects 00000001802a1040 f   sfc_debug:sfdb_animation.obj
 0001:002a00c0       sf_debug_sm_reset_object_selection_status 00000001802a10c0 f   sfc_debug:sfdb_animation.obj
 0001:002a0160       sf_debug_sm_reset_state_buffer 00000001802a1160 f   sfc_debug:sfdb_animation.obj
 0001:002a0240       sf_debug_sm_store_state_buffer 00000001802a1240 f   sfc_debug:sfdb_animation.obj
 0001:002a02c0       sf_debug_sm_restore_state_buffer1 00000001802a12c0 f   sfc_debug:sfdb_animation.obj
 0001:002a0330       sf_debug_sm_restore_state_buffer2 00000001802a1330 f   sfc_debug:sfdb_animation.obj
 0001:002a03a0       sf_debug_sm_chart_active   00000001802a13a0 f   sfc_debug:sfdb_animation.obj
 0001:002a03f0       sf_debug_sm_select_active_objects 00000001802a13f0 f   sfc_debug:sfdb_animation.obj
 0001:002a0880       sf_debug_sm_is_chart_active 00000001802a1880 f   sfc_debug:sfdb_animation.obj
 0001:002a08c0       sf_debug_sm_is_state_active 00000001802a18c0 f   sfc_debug:sfdb_animation.obj
 0001:002a0b00       sf_debug_sm_get_active_states 00000001802a1b00 f   sfc_debug:sfdb_animation.obj
 0001:002a10b0       sf_debug_sm_initialize_instance 00000001802a20b0 f   sfc_debug:sfdb_animation.obj
 0001:002a1360       sf_debug_sm_change_object_selection_status 00000001802a2360 f   sfc_debug:sfdb_animation.obj
 0001:002a1650       cv_create_interface        00000001802a2650 f   sfc_debug:cv_sfinterface.obj
 0001:002a19a0       cv_init_trans              00000001802a29a0 f   sfc_debug:cv_sfinterface.obj
 0001:002a19f0       cv_init_state              00000001802a29f0 f   sfc_debug:cv_sfinterface.obj
 0001:002a1a60       cv_init_chart              00000001802a2a60 f   sfc_debug:cv_sfinterface.obj
 0001:002a1ab0       cv_dec_update_call         00000001802a2ab0 f   sfc_debug:cv_sfinterface.obj
 0001:002a1af0       cv_cond_update_call        00000001802a2af0 f   sfc_debug:cv_sfinterface.obj
 0001:002a1b30       cv_sigrange_update         00000001802a2b30 f   sfc_debug:cv_sfinterface.obj
 0001:002a1b70       cvsf_eml_eval              00000001802a2b70 f   sfc_debug:cv_sfinterface.obj
 0001:002a1c50       cvsf_eml_init_script       00000001802a2c50 f   sfc_debug:cv_sfinterface.obj
 0001:002a1cd0       cvsf_eml_init_fcn          00000001802a2cd0 f   sfc_debug:cv_sfinterface.obj
 0001:002a1d30       cvsf_eml_init_testobjective 00000001802a2d30 f   sfc_debug:cv_sfinterface.obj
 0001:002a1d90       cvsf_eml_init_if           00000001802a2d90 f   sfc_debug:cv_sfinterface.obj
 0001:002a1df0       cvsf_eml_init_for          00000001802a2df0 f   sfc_debug:cv_sfinterface.obj
 0001:002a1e40       cvsf_eml_init_while        00000001802a2e40 f   sfc_debug:cv_sfinterface.obj
 0001:002a1e90       cvsf_eml_init_mcdc         00000001802a2e90 f   sfc_debug:cv_sfinterface.obj
 0001:002a1f20       cvsf_eml_init_switch       00000001802a2f20 f   sfc_debug:cv_sfinterface.obj
 0001:002a1f90       cvsf_script_eval           00000001802a2f90 f   sfc_debug:cv_sfinterface.obj
 0001:002a2070       cvsf_script_init_script    00000001802a3070 f   sfc_debug:cv_sfinterface.obj
 0001:002a20f0       cvsf_script_init_fcn       00000001802a30f0 f   sfc_debug:cv_sfinterface.obj
 0001:002a2150       cvsf_script_init_testobjective 00000001802a3150 f   sfc_debug:cv_sfinterface.obj
 0001:002a21b0       cvsf_script_init_if        00000001802a31b0 f   sfc_debug:cv_sfinterface.obj
 0001:002a2210       cvsf_script_init_for       00000001802a3210 f   sfc_debug:cv_sfinterface.obj
 0001:002a2260       cvsf_script_init_while     00000001802a3260 f   sfc_debug:cv_sfinterface.obj
 0001:002a22b0       cvsf_script_init_mcdc      00000001802a32b0 f   sfc_debug:cv_sfinterface.obj
 0001:002a2340       cvsf_script_init_switch    00000001802a3340 f   sfc_debug:cv_sfinterface.obj
 0001:002a23b0       cv_destroy_interface       00000001802a33b0 f   sfc_debug:cv_sfinterface.obj
 0001:002a23d0       cv_create_instance_objects 00000001802a33d0 f   sfc_debug:cv_sfinterface.obj
 0001:002a2880       cv_is_enabled              00000001802a3880 f   sfc_debug:cv_sfinterface.obj
 0001:002a2890       sf_debug_cv_initialize_script 00000001802a3890 f   sfc_debug:cv_sfinterface.obj
 0001:002a2a30       sf_debug_cv_initialize_instance 00000001802a3a30 f   sfc_debug:cv_sfinterface.obj
 0001:002a2dc0       sf_debug_cv_terminate_chart 00000001802a3dc0 f   sfc_debug:cv_sfinterface.obj
 0001:002a2f00       cv_call_trans_test         00000001802a3f00 f   sfc_debug:cv_sfinterface.obj
 0001:002a2f10       cv_call_sub_cond_test      00000001802a3f10 f   sfc_debug:cv_sfinterface.obj
 0001:002a3040       sf_debug_hm_initialize_instance 00000001802a4040 f   sfc_debug:sfdb_handle_management.obj
 0001:002a3660       sf_debug_hm_get_object_id  00000001802a4660 f   sfc_debug:sfdb_handle_management.obj
 0001:002a5570       sf_debug_object_is_eml_function 00000001802a6570 f   sfc_debug:sfdb_handle_management.obj
 0001:002a55e0       sf_debug_hm_initialize_ids_in_machine 00000001802a65e0 f   sfc_debug:sfdb_handle_management.obj
 0001:002a5750       sf_debug_hm_initialize_ids_in_chart 00000001802a6750 f   sfc_debug:sfdb_handle_management.obj
 0001:002a5890       sf_debug_hm_initialize_chart 00000001802a6890 f   sfc_debug:sfdb_handle_management.obj
 0001:002a6140       sf_debug_hm_terminate      00000001802a7140 f   sfc_debug:sfdb_handle_management.obj
 0001:002a61a0       sf_debug_hm_initialize_machine 00000001802a71a0 f   sfc_debug:sfdb_handle_management.obj
 0001:002a6a50       sf_debug_st_initialize_machine 00000001802a7a50 f   sfc_debug:sfdb_data_browse.obj
 0001:002a6b10       sf_debug_st_initialize_instance 00000001802a7b10 f   sfc_debug:sfdb_data_browse.obj
 0001:002a6f20       sf_debug_st_terminate      00000001802a7f20 f   sfc_debug:sfdb_data_browse.obj
 0001:002a72d0       sf_debug_st_set_data_value_ptr_in_machine 00000001802a82d0 f   sfc_debug:sfdb_data_browse.obj
 0001:002a7360       sf_debug_st_set_data_value_ptr_in_instance 00000001802a8360 f   sfc_debug:sfdb_data_browse.obj
 0001:002a7440       sf_debug_st_unset_data_value_ptr_in_machine 00000001802a8440 f   sfc_debug:sfdb_data_browse.obj
 0001:002a74b0       sf_debug_st_unset_data_value_ptr_in_instance 00000001802a84b0 f   sfc_debug:sfdb_data_browse.obj
 0001:002a7770       sf_debug_mx_value          00000001802a8770 f   sfc_debug:sfdb_data_browse.obj
 0001:002a77d0       sf_debug_mx_packed_vector  00000001802a87d0 f   sfc_debug:sfdb_data_browse.obj
 0001:002a78b0       sf_debug_mx_uint_vector    00000001802a88b0 f   sfc_debug:sfdb_data_browse.obj
 0001:002a7960       sf_debug_st_get_double_value_from_void_ptr_vector 00000001802a8960 f   sfc_debug:sfdb_data_browse.obj
 0001:002a84c0       sf_debug_st_browse_data    00000001802a94c0 f   sfc_debug:sfdb_data_browse.obj
 0001:002a8c60       sf_debug_ss_initialize     00000001802a9c60 f   sfc_debug:sfdb_symbol_scope.obj
 0001:002a8c80       sf_debug_ss_terminate      00000001802a9c80 f   sfc_debug:sfdb_symbol_scope.obj
 0001:002a8d10       sf_debug_ss_push_symbol_scope 00000001802a9d10 f   sfc_debug:sfdb_symbol_scope.obj
 0001:002a8e10       sf_debug_ss_push_symbol_scope_eml 00000001802a9e10 f   sfc_debug:sfdb_symbol_scope.obj
 0001:002a8e70       sf_debug_ss_pop_symbol_scope 00000001802a9e70 f   sfc_debug:sfdb_symbol_scope.obj
 0001:002a8f20       sf_debug_ss_add_symbol     00000001802a9f20 f   sfc_debug:sfdb_symbol_scope.obj
 0001:002a9070       sf_debug_ss_add_symbol_eml 00000001802aa070 f   sfc_debug:sfdb_symbol_scope.obj
 0001:002aa0d0       sf_debug_ss_watch_data     00000001802ab0d0 f   sfc_debug:sfdb_symbol_scope.obj
 0001:002aab00       get_data_entry_name        00000001802abb00 f   sfc_debug:sfdb_symbol_scope.obj
 0001:002aab50       sf_debug_ss_whos           00000001802abb50 f   sfc_debug:sfdb_symbol_scope.obj
 0001:002ab3f0       sf_debug_cc_initialize_chart 00000001802ac3f0 f   sfc_debug:sfdb_coverage.obj
 0001:002abde0       sf_debug_cc_initialize_instance 00000001802acde0 f   sfc_debug:sfdb_coverage.obj
 0001:002acbe0       sf_debug_cc_terminate      00000001802adbe0 f   sfc_debug:sfdb_coverage.obj
 0001:002accd0       sf_debug_cc_set_transition_maps 00000001802adcd0 f   sfc_debug:sfdb_coverage.obj
 0001:002ace00       sf_debug_cc_set_state_maps 00000001802ade00 f   sfc_debug:sfdb_coverage.obj
 0001:002acee0       sf_debug_cc_set_transition_weights 00000001802adee0 f   sfc_debug:sfdb_coverage.obj
 0001:002ad1b0       sf_debug_cc_set_state_weights 00000001802ae1b0 f   sfc_debug:sfdb_coverage.obj
 0001:002ad490       sf_debug_cc_mark_transition_guard 00000001802ae490 f   sfc_debug:sfdb_coverage.obj
 0001:002ad5b0       sf_debug_cc_mark_transition_trigger 00000001802ae5b0 f   sfc_debug:sfdb_coverage.obj
 0001:002ad6d0       sf_debug_cc_mark_transition_decision 00000001802ae6d0 f   sfc_debug:sfdb_coverage.obj
 0001:002ad740       sf_debug_cc_mark_transition_condition_action 00000001802ae740 f   sfc_debug:sfdb_coverage.obj
 0001:002ad810       sf_debug_cc_mark_transition_transition_action 00000001802ae810 f   sfc_debug:sfdb_coverage.obj
 0001:002ad8e0       sf_debug_cc_mark_state_entry 00000001802ae8e0 f   sfc_debug:sfdb_coverage.obj
 0001:002ad9b0       sf_debug_cc_mark_state_during 00000001802ae9b0 f   sfc_debug:sfdb_coverage.obj
 0001:002ada80       sf_debug_cc_mark_state_exit 00000001802aea80 f   sfc_debug:sfdb_coverage.obj
 0001:002ae340       sf_debug_cc_get_coverage   00000001802af340 f   sfc_debug:sfdb_coverage.obj
 0001:002ae8d0       sf_debug_bm_clear_script_breakpoints 00000001802af8d0 f   sfc_debug:sfdb_breakpoints.obj
 0001:002ae900       sf_debug_bm_set_script_breakpoint 00000001802af900 f   sfc_debug:sfdb_breakpoints.obj
 0001:002ae980       sf_debug_bm_clear_single_script_breakpoint 00000001802af980 f   sfc_debug:sfdb_breakpoints.obj
 0001:002aea00       sf_debug_bm_query_script_breakpoint 00000001802afa00 f   sfc_debug:sfdb_breakpoints.obj
 0001:002aea50       sf_debug_bm_initialize_scripts 00000001802afa50 f   sfc_debug:sfdb_breakpoints.obj
 0001:002af170       sf_debug_bm_terminate      00000001802b0170 f   sfc_debug:sfdb_breakpoints.obj
 0001:002af470       sf_debug_bm_remove_all_breakpoints_in_machine 00000001802b0470 f   sfc_debug:sfdb_breakpoints.obj
 0001:002af4e0       sf_debug_bm_remove_all_breakpoints_in_chart 00000001802b04e0 f   sfc_debug:sfdb_breakpoints.obj
 0001:002af630       sf_debug_bm_initialize_global_breakpoints 00000001802b0630 f   sfc_debug:sfdb_breakpoints.obj
 0001:002af7b0       sf_debug_bm_set_breakpoint 00000001802b07b0 f   sfc_debug:sfdb_breakpoints.obj
 0001:002afdb0       sf_debug_bm_set_eml_breakpoint 00000001802b0db0 f   sfc_debug:sfdb_breakpoints.obj
 0001:002afe50       sf_debug_bm_initialize_machine_breakpoint_map 00000001802b0e50 f   sfc_debug:sfdb_breakpoints.obj
 0001:002b0340       sf_debug_bm_is_a_breakpoint 00000001802b1340 f   sfc_debug:sfdb_breakpoints.obj
 0001:002b0860       sf_debug_bm_get_all_breakpoints_in_machine 00000001802b1860 f   sfc_debug:sfdb_breakpoints.obj
 0001:002b0b60       sf_debug_bm_get_all_breakpoints_in_chart 00000001802b1b60 f   sfc_debug:sfdb_breakpoints.obj
 0001:002b1810       sf_debug_bm_initialize_machine 00000001802b2810 f   sfc_debug:sfdb_breakpoints.obj
 0001:002b18e0       sf_debug_bm_initialize_chart 00000001802b28e0 f   sfc_debug:sfdb_breakpoints.obj
 0001:002b1e20       sf_debug_sc_terminate      00000001802b2e20 f   sfc_debug:sfdb_state_consistency.obj
 0001:002b2150       sf_debug_sc_is_chart_consistent 00000001802b3150 f   sfc_debug:sfdb_state_consistency.obj
 0001:002b23f0       sf_debug_sc_get_consistency_error_info 00000001802b33f0 f   sfc_debug:sfdb_state_consistency.obj
 0001:002b2820       sf_debug_tm_terminate      00000001802b3820 f   sfc_debug:sfdb_call_stack.obj
 0001:002b28e0       sf_debug_tm_push_chart_instance 00000001802b38e0 f   sfc_debug:sfdb_call_stack.obj
 0001:002b2a40       sf_debug_tm_pop_chart_instance 00000001802b3a40 f   sfc_debug:sfdb_call_stack.obj
 0001:002b2aa0       sf_debug_tm_push_trace_node 00000001802b3aa0 f   sfc_debug:sfdb_call_stack.obj
 0001:002b2c30       sf_debug_tm_pop_trace_node 00000001802b3c30 f   sfc_debug:sfdb_call_stack.obj
 0001:002b2cb0       sf_debug_tm_get_current_global_trace_index 00000001802b3cb0 f   sfc_debug:sfdb_call_stack.obj
 0001:002b2cc0       sf_debug_tm_get_current_local_trace_index 00000001802b3cc0 f   sfc_debug:sfdb_call_stack.obj
 0001:002b2cf0       sf_debug_tm_set_cycle_detected_flag 00000001802b3cf0 f   sfc_debug:sfdb_call_stack.obj
 0001:002b2d30       sf_debug_tm_set_cycle_started_flag 00000001802b3d30 f   sfc_debug:sfdb_call_stack.obj
 0001:002b2d70       sf_debug_tm_get_chart_number_from_stack 00000001802b3d70 f   sfc_debug:sfdb_call_stack.obj
 0001:002b2f50       sf_debug_tm_browse_trace   00000001802b3f50 f   sfc_debug:sfdb_call_stack.obj
 0001:002b3280       sf_debug_cd_initialize_instance 00000001802b4280 f   sfc_debug:sfdb_cycle_detection.obj
 0001:002b3530       sf_debug_cd_mark_processed_transition_in_instance 00000001802b4530 f   sfc_debug:sfdb_cycle_detection.obj
 0001:002b35d0       sf_debug_cd_checksum_push  00000001802b45d0 f   sfc_debug:sfdb_cycle_detection.obj
 0001:002b3890       sf_debug_cd_checksum_pop   00000001802b4890 f   sfc_debug:sfdb_cycle_detection.obj
 0001:002b3900       sf_debug_cd_turn_off_cycle_detection 00000001802b4900 f   sfc_debug:sfdb_cycle_detection.obj
 0001:002b3950       sf_debug_cd_terminate      00000001802b4950 f   sfc_debug:sfdb_cycle_detection.obj
 0001:002b3b90       md5_initialize_state       00000001802b4b90 f   sfc_debug:ckmd5.obj
 0001:002b4710       md5_update_state           00000001802b5710 f   sfc_debug:ckmd5.obj
 0001:002b47f0       md5_get_hash               00000001802b57f0 f   sfc_debug:ckmd5.obj
 0001:002b4820       md5_get_hash_for_a_single_string 00000001802b5820 f   sfc_debug:ckmd5.obj
 0001:002b497a       mxGetPr                    00000001802b597a f   libmx:libmx.dll
 0001:002b4980       mxCreateDoubleScalar       00000001802b5980 f   libmx:libmx.dll
 0001:002b4986       mxSetField_730             00000001802b5986 f   libmx:libmx.dll
 0001:002b498c       mxCreateDoubleMatrix_730   00000001802b598c f   libmx:libmx.dll
 0001:002b4992       mxCreateStructMatrix_730   00000001802b5992 f   libmx:libmx.dll
 0001:002b4998       mxDestroyArray             00000001802b5998 f   libmx:libmx.dll
 0001:002b499e       mxCreateString             00000001802b599e f   libmx:libmx.dll
 0001:002b49a4       mxDuplicateArray           00000001802b59a4 f   libmx:libmx.dll
 0001:002b49aa       mxGetString_730            00000001802b59aa f   libmx:libmx.dll
 0001:002b49b0       mxIsChar                   00000001802b59b0 f   libmx:libmx.dll
 0001:002b49b6       mxGetClassID               00000001802b59b6 f   libmx:libmx.dll
 0001:002b49bc       mxIsNumeric                00000001802b59bc f   libmx:libmx.dll
 0001:002b49c2       mxIsComplex                00000001802b59c2 f   libmx:libmx.dll
 0001:002b49c8       mxGetN                     00000001802b59c8 f   libmx:libmx.dll
 0001:002b49ce       mxGetM                     00000001802b59ce f   libmx:libmx.dll
 0001:002b49d4       mxCalloc                   00000001802b59d4 f   libmx:libmx.dll
 0001:002b49da       mxGetScalar                00000001802b59da f   libmx:libmx.dll
 0001:002b49e0       mxIsLogical                00000001802b59e0 f   libmx:libmx.dll
 0001:002b49e6       mxCreateDoubleMatrix_700   00000001802b59e6 f   libmx:libmx.dll
 0001:002b49ec       mxFree                     00000001802b59ec f   libmx:libmx.dll
 0001:002b49f2       mxArrayToString            00000001802b59f2 f   libmx:libmx.dll
 0001:002b49f8       mxCreateCellMatrix_700     00000001802b59f8 f   libmx:libmx.dll
 0001:002b49fe       mxSetCell_700              00000001802b59fe f   libmx:libmx.dll
 0001:002b4a04       mxGetCell_700              00000001802b5a04 f   libmx:libmx.dll
 0001:002b4a0a       mxGetClassName             00000001802b5a0a f   libmx:libmx.dll
 0001:002b4a10       mxSetField_700             00000001802b5a10 f   libmx:libmx.dll
 0001:002b4a16       mxAddField                 00000001802b5a16 f   libmx:libmx.dll
 0001:002b4a1c       mxGetField_700             00000001802b5a1c f   libmx:libmx.dll
 0001:002b4a22       mxGetNumberOfElements      00000001802b5a22 f   libmx:libmx.dll
 0001:002b4a28       mxIsStruct                 00000001802b5a28 f   libmx:libmx.dll
 0001:002b4a2e       mxIsClass                  00000001802b5a2e f   libmx:libmx.dll
 0001:002b4a34       mxGetLogicals              00000001802b5a34 f   libmx:libmx.dll
 0001:002b4a3a       mxIsSparse                 00000001802b5a3a f   libmx:libmx.dll
 0001:002b4a40       mxSetFieldByNumber_700     00000001802b5a40 f   libmx:libmx.dll
 0001:002b4a46       mxGetFieldByNumber_700     00000001802b5a46 f   libmx:libmx.dll
 0001:002b4a4c       mxGetFieldNameByNumber     00000001802b5a4c f   libmx:libmx.dll
 0001:002b4a52       mxGetNumberOfFields        00000001802b5a52 f   libmx:libmx.dll
 0001:002b4a58       mxCreateStructMatrix_700   00000001802b5a58 f   libmx:libmx.dll
 0001:002b4a5e       mxGetFieldNumber           00000001802b5a5e f   libmx:libmx.dll
 0001:002b4a64       mxIsNaN                    00000001802b5a64 f   libmx:libmx.dll
 0001:002b4a6a       mxIsEmpty                  00000001802b5a6a f   libmx:libmx.dll
 0001:002b4a70       mxGetData                  00000001802b5a70 f   libmx:libmx.dll
 0001:002b4a76       mxGetImagData              00000001802b5a76 f   libmx:libmx.dll
 0001:002b4a7c       mxArrayClassIDName         00000001802b5a7c f   libmx:libmx.dll
 0001:002b4a82       mxCreateNumericMatrix_700  00000001802b5a82 f   libmx:libmx.dll
 0001:002b4a88       mxCreateStructArray_700    00000001802b5a88 f   libmx:libmx.dll
 0001:002b4a8e       mxCalcSingleSubscript_700  00000001802b5a8e f   libmx:libmx.dll
 0001:002b4a94       mxGetDimensions_700        00000001802b5a94 f   libmx:libmx.dll
 0001:002b4a9a       mxGetNumberOfDimensions_700 00000001802b5a9a f   libmx:libmx.dll
 0001:002b4aa0       mxCreateNumericArray_700   00000001802b5aa0 f   libmx:libmx.dll
 0001:002b4aa6       mxGetElementSize           00000001802b5aa6 f   libmx:libmx.dll
 0001:002b4aac       mxCreateStringFromNChars_700 00000001802b5aac f   libmx:libmx.dll
 0001:002b4ab2       mxGetString_700            00000001802b5ab2 f   libmx:libmx.dll
 0001:002b4ab8       mxIsLogicalScalarTrue      00000001802b5ab8 f   libmx:libmx.dll
 0001:002b4abe       mxCreateLogicalScalar      00000001802b5abe f   libmx:libmx.dll
 0001:002b4ac4       mexUnlock                  00000001802b5ac4 f   libmex:libmex.dll
 0001:002b4aca       mexIsLocked                00000001802b5aca f   libmex:libmex.dll
 0001:002b4ad0       mexWarnMsgTxt              00000001802b5ad0 f   libmex:libmex.dll
 0001:002b4ad6       mexCallMATLAB              00000001802b5ad6 f   libmex:libmex.dll
 0001:002b4adc       mexErrMsgTxt               00000001802b5adc f   libmex:libmex.dll
 0001:002b4ae2       mexSetTrapFlag             00000001802b5ae2 f   libmex:libmex.dll
 0001:002b4ae8       mexMakeArrayPersistent     00000001802b5ae8 f   libmex:libmex.dll
 0001:002b4aee       mexPutVariable             00000001802b5aee f   libmex:libmex.dll
 0001:002b4af4       mexGetVariable             00000001802b5af4 f   libmex:libmex.dll
 0001:002b4afa       mexLock                    00000001802b5afa f   libmex:libmex.dll
 0001:002b4b00       mexMakeMemoryPersistent    00000001802b5b00 f   libmex:libmex.dll
 0001:002b4b06       mexFunctionName            00000001802b5b06 f   libmex:libmex.dll
 0001:002b4b0c       ssRegisterDataTypeFxpFSlopeFixExpBias 00000001802b5b0c f   libfixedpoint:libfixedpoint.dll
 0001:002b4b12       utVSNprintf                00000001802b5b12 f   libut:libut.dll
 0001:002b4b18       utCPUtime                  00000001802b5b18 f   libut:libut.dll
 0001:002b4b1e       utFree                     00000001802b5b1e f   libut:libut.dll
 0001:002b4b24       utMalloc                   00000001802b5b24 f   libut:libut.dll
 0001:002b4b2a       muDoubleScalarSin          00000001802b5b2a f   libmwmathutil:libmwmathutil.dll
 0001:002b4b30       muDoubleScalarCos          00000001802b5b30 f   libmwmathutil:libmwmathutil.dll
 0001:002b4b36       muDoubleScalarAtan2        00000001802b5b36 f   libmwmathutil:libmwmathutil.dll
 0001:002b4b3c       muDoubleScalarAcos         00000001802b5b3c f   libmwmathutil:libmwmathutil.dll
 0001:002b4b42       muDoubleScalarPower        00000001802b5b42 f   libmwmathutil:libmwmathutil.dll
 0001:002b4b48       muDoubleScalarFloor        00000001802b5b48 f   libmwmathutil:libmwmathutil.dll
 0001:002b4b4e       muDoubleScalarSqrt         00000001802b5b4e f   libmwmathutil:libmwmathutil.dll
 0001:002b4b54       muDoubleScalarAbs          00000001802b5b54 f   libmwmathutil:libmwmathutil.dll
 0001:002b4b5a       emlrtCheckBuiltInR2009a    00000001802b5b5a f   libemlrt:libemlrt.dll
 0001:002b4b60       emlrtCheckVsBuiltInR2009a  00000001802b5b60 f   libemlrt:libemlrt.dll
 0001:002b4b66       emlrtCheckEnumR2009a       00000001802b5b66 f   libemlrt:libemlrt.dll
 0001:002b4b6c       emlrtCreateEnumR2010a      00000001802b5b6c f   libemlrt:libemlrt.dll
 0001:002b4b72       emlrtGetEnumElementR2009a  00000001802b5b72 f   libemlrt:libemlrt.dll
 0001:002b4b78       emlrtImportVsFiArrayR2009b 00000001802b5b78 f   libemlrt:libemlrt.dll
 0001:002b4b7e       emlrtGetEnumUnderlyingArrayR2009a 00000001802b5b7e f   libemlrt:libemlrt.dll
 0001:002b4b84       emlrtIsEnumR2009a          00000001802b5b84 f   libemlrt:libemlrt.dll
 0001:002b4b8a       idamax32                   00000001802b5b8a f   libmwblascompat32:libmwblascompat32.dll
 0001:002b4b90       dswap32                    00000001802b5b90 f   libmwblascompat32:libmwblascompat32.dll
 0001:002b4b96       dger32                     00000001802b5b96 f   libmwblascompat32:libmwblascompat32.dll
 0001:002b4b9c       dtrsm32                    00000001802b5b9c f   libmwblascompat32:libmwblascompat32.dll
 0001:002b4ba2       ddot32                     00000001802b5ba2 f   libmwblascompat32:libmwblascompat32.dll
 0001:002b4ba8       dnrm232                    00000001802b5ba8 f   libmwblascompat32:libmwblascompat32.dll
 0001:002b4bae       strlen                     00000001802b5bae f   MSVCRT:MSVCR90.dll
 0001:002b4bc0       memset                     00000001802b5bc0 f   MSVCRT:MSVCR90.dll
 0001:002b4bc6       malloc                     00000001802b5bc6 f   MSVCRT:MSVCR90.dll
 0001:002b4bcc       __GSHandlerCheckCommon     00000001802b5bcc f   MSVCRT:gshandler.obj
 0001:002b4c30       __GSHandlerCheck           00000001802b5c30 f   MSVCRT:gshandler.obj
 0001:002b4c60       __security_check_cookie    00000001802b5c60 f   MSVCRT:amdsecgs.obj
 0001:002b4c80       free                       00000001802b5c80 f   MSVCRT:MSVCR90.dll
 0001:002b4c86       strcmp                     00000001802b5c86 f   MSVCRT:MSVCR90.dll
 0001:002b4c8c       sprintf                    00000001802b5c8c f   MSVCRT:MSVCR90.dll
 0001:002b4c92       strcat                     00000001802b5c92 f   MSVCRT:MSVCR90.dll
 0001:002b4c98       memcpy                     00000001802b5c98 f   MSVCRT:MSVCR90.dll
 0001:002b4ca0       NtCurrentTeb               00000001802b5ca0 f i MSVCRT:crtdll.obj
 0001:002b4d0c       _CRT_INIT                  00000001802b5d0c f   MSVCRT:crtdll.obj
 0001:002b50a0       _DllMainCRTStartup         00000001802b60a0 f   MSVCRT:crtdll.obj
 0001:002b50de       strncpy                    00000001802b60de f   MSVCRT:MSVCR90.dll
 0001:002b50e4       longjmp                    00000001802b60e4 f   MSVCRT:MSVCR90.dll
 0001:002b50ea       strncmp                    00000001802b60ea f   MSVCRT:MSVCR90.dll
 0001:002b50f0       ceil                       00000001802b60f0 f   MSVCRT:MSVCR90.dll
 0001:002b50f6       strrchr                    00000001802b60f6 f   MSVCRT:MSVCR90.dll
 0001:002b50fc       _setjmp                    00000001802b60fc f   MSVCRT:MSVCR90.dll
 0001:002b5102       calloc                     00000001802b6102 f   MSVCRT:MSVCR90.dll
 0001:002b5108       realloc                    00000001802b6108 f   MSVCRT:MSVCR90.dll
 0001:002b510e       ldexp                      00000001802b610e f   MSVCRT:MSVCR90.dll
 0001:002b5114       __report_gsfailure         00000001802b6114 f   MSVCRT:gs_report.obj
 0001:002b5260       __clean_type_info_names    00000001802b6260 f   MSVCRT:tncleanup.obj
 0001:002b526c       _onexit                    00000001802b626c f   MSVCRT:atonexit.obj
 0001:002b531c       atexit                     00000001802b631c f   MSVCRT:atonexit.obj
 0001:002b5334       _RTC_Initialize            00000001802b6334 f   MSVCRT:_initsect_.obj
 0001:002b536c       _RTC_Terminate             00000001802b636c f   MSVCRT:_initsect_.obj
 0001:002b53a4       _encode_pointer            00000001802b63a4 f   MSVCRT:MSVCR90.dll
 0001:002b53aa       _malloc_crt                00000001802b63aa f   MSVCRT:MSVCR90.dll
 0001:002b53b0       _ValidateImageBase         00000001802b63b0 f   MSVCRT:pesect.obj
 0001:002b53e0       _FindPESection             00000001802b63e0 f   MSVCRT:pesect.obj
 0001:002b5430       _IsNonwritableInCurrentImage 00000001802b6430 f   MSVCRT:pesect.obj
 0001:002b5472       _initterm                  00000001802b6472 f   MSVCRT:MSVCR90.dll
 0001:002b5478       _initterm_e                00000001802b6478 f   MSVCRT:MSVCR90.dll
 0001:002b547e       _encoded_null              00000001802b647e f   MSVCRT:MSVCR90.dll
 0001:002b5484       _decode_pointer            00000001802b6484 f   MSVCRT:MSVCR90.dll
 0001:002b548a       _amsg_exit                 00000001802b648a f   MSVCRT:MSVCR90.dll
 0001:002b5490       __C_specific_handler       00000001802b6490 f   MSVCRT:MSVCR90.dll
 0001:002b5496       __CppXcptFilter            00000001802b6496 f   MSVCRT:MSVCR90.dll
 0001:002b549c       DllMain                    00000001802b649c f   MSVCRT:dllmain.obj
 0001:002b54c0       __security_init_cookie     00000001802b64c0 f   MSVCRT:gs_support.obj
 0001:002b5574       __crt_debugger_hook        00000001802b6574 f   MSVCRT:MSVCR90.dll
 0001:002b557a       __clean_type_info_names_internal 00000001802b657a f   MSVCRT:MSVCR90.dll
 0001:002b5580       _unlock                    00000001802b6580 f   MSVCRT:MSVCR90.dll
 0001:002b5586       __dllonexit                00000001802b6586 f   MSVCRT:MSVCR90.dll
 0001:002b558c       _lock                      00000001802b658c f   MSVCRT:MSVCR90.dll
 0001:002b5592       Sleep                      00000001802b6592 f   kernel32:KERNEL32.dll
 0001:002b5598       TerminateProcess           00000001802b6598 f   kernel32:KERNEL32.dll
 0001:002b559e       GetCurrentProcess          00000001802b659e f   kernel32:KERNEL32.dll
 0001:002b55a4       UnhandledExceptionFilter   00000001802b65a4 f   kernel32:KERNEL32.dll
 0001:002b55aa       SetUnhandledExceptionFilter 00000001802b65aa f   kernel32:KERNEL32.dll
 0001:002b55b0       IsDebuggerPresent          00000001802b65b0 f   kernel32:KERNEL32.dll
 0001:002b55b6       RtlVirtualUnwind           00000001802b65b6 f   kernel32:KERNEL32.dll
 0001:002b55bc       RtlLookupFunctionEntry     00000001802b65bc f   kernel32:KERNEL32.dll
 0001:002b55c2       RtlCaptureContext          00000001802b65c2 f   kernel32:KERNEL32.dll
 0001:002b55c8       DisableThreadLibraryCalls  00000001802b65c8 f   kernel32:KERNEL32.dll
 0001:002b55ce       QueryPerformanceCounter    00000001802b65ce f   kernel32:KERNEL32.dll
 0001:002b55d4       GetTickCount               00000001802b65d4 f   kernel32:KERNEL32.dll
 0001:002b55da       GetCurrentThreadId         00000001802b65da f   kernel32:KERNEL32.dll
 0001:002b55e0       GetCurrentProcessId        00000001802b65e0 f   kernel32:KERNEL32.dll
 0001:002b55e6       GetSystemTimeAsFileTime    00000001802b65e6 f   kernel32:KERNEL32.dll
 0001:002b5600       __chkstk                   00000001802b6600 f   MSVCRT:chkstk.obj
 0001:002b5600       _alloca_probe              00000001802b6600     MSVCRT:chkstk.obj
 0002:00000000       __imp_DisableThreadLibraryCalls 00000001802b7000     kernel32:KERNEL32.dll
 0002:00000008       __imp_RtlCaptureContext    00000001802b7008     kernel32:KERNEL32.dll
 0002:00000010       __imp_RtlLookupFunctionEntry 00000001802b7010     kernel32:KERNEL32.dll
 0002:00000018       __imp_RtlVirtualUnwind     00000001802b7018     kernel32:KERNEL32.dll
 0002:00000020       __imp_IsDebuggerPresent    00000001802b7020     kernel32:KERNEL32.dll
 0002:00000028       __imp_SetUnhandledExceptionFilter 00000001802b7028     kernel32:KERNEL32.dll
 0002:00000030       __imp_UnhandledExceptionFilter 00000001802b7030     kernel32:KERNEL32.dll
 0002:00000038       __imp_GetCurrentProcess    00000001802b7038     kernel32:KERNEL32.dll
 0002:00000040       __imp_TerminateProcess     00000001802b7040     kernel32:KERNEL32.dll
 0002:00000048       __imp_Sleep                00000001802b7048     kernel32:KERNEL32.dll
 0002:00000050       __imp_GetTickCount         00000001802b7050     kernel32:KERNEL32.dll
 0002:00000058       __imp_GetCurrentThreadId   00000001802b7058     kernel32:KERNEL32.dll
 0002:00000060       __imp_GetCurrentProcessId  00000001802b7060     kernel32:KERNEL32.dll
 0002:00000068       __imp_GetSystemTimeAsFileTime 00000001802b7068     kernel32:KERNEL32.dll
 0002:00000070       __imp_QueryPerformanceCounter 00000001802b7070     kernel32:KERNEL32.dll
 0002:00000078       \177KERNEL32_NULL_THUNK_DATA 00000001802b7078     kernel32:KERNEL32.dll
 0002:00000080       __imp__onexit              00000001802b7080     MSVCRT:MSVCR90.dll
 0002:00000088       __imp__lock                00000001802b7088     MSVCRT:MSVCR90.dll
 0002:00000090       __imp___dllonexit          00000001802b7090     MSVCRT:MSVCR90.dll
 0002:00000098       __imp__unlock              00000001802b7098     MSVCRT:MSVCR90.dll
 0002:000000a0       __imp___clean_type_info_names_internal 00000001802b70a0     MSVCRT:MSVCR90.dll
 0002:000000a8       __imp___crt_debugger_hook  00000001802b70a8     MSVCRT:MSVCR90.dll
 0002:000000b0       __imp___CppXcptFilter      00000001802b70b0     MSVCRT:MSVCR90.dll
 0002:000000b8       __imp___C_specific_handler 00000001802b70b8     MSVCRT:MSVCR90.dll
 0002:000000c0       __imp__amsg_exit           00000001802b70c0     MSVCRT:MSVCR90.dll
 0002:000000c8       __imp__decode_pointer      00000001802b70c8     MSVCRT:MSVCR90.dll
 0002:000000d0       __imp__encoded_null        00000001802b70d0     MSVCRT:MSVCR90.dll
 0002:000000d8       __imp__initterm_e          00000001802b70d8     MSVCRT:MSVCR90.dll
 0002:000000e0       __imp__initterm            00000001802b70e0     MSVCRT:MSVCR90.dll
 0002:000000e8       __imp__malloc_crt          00000001802b70e8     MSVCRT:MSVCR90.dll
 0002:000000f0       __imp__encode_pointer      00000001802b70f0     MSVCRT:MSVCR90.dll
 0002:000000f8       __imp_ldexp                00000001802b70f8     MSVCRT:MSVCR90.dll
 0002:00000100       __imp_realloc              00000001802b7100     MSVCRT:MSVCR90.dll
 0002:00000108       __imp_calloc               00000001802b7108     MSVCRT:MSVCR90.dll
 0002:00000110       __imp__setjmp              00000001802b7110     MSVCRT:MSVCR90.dll
 0002:00000118       __imp_strrchr              00000001802b7118     MSVCRT:MSVCR90.dll
 0002:00000120       __imp_ceil                 00000001802b7120     MSVCRT:MSVCR90.dll
 0002:00000128       __imp_strncmp              00000001802b7128     MSVCRT:MSVCR90.dll
 0002:00000130       __imp_longjmp              00000001802b7130     MSVCRT:MSVCR90.dll
 0002:00000138       __imp_strncpy              00000001802b7138     MSVCRT:MSVCR90.dll
 0002:00000140       __imp_memcpy               00000001802b7140     MSVCRT:MSVCR90.dll
 0002:00000148       __imp_strcat               00000001802b7148     MSVCRT:MSVCR90.dll
 0002:00000150       __imp_sprintf              00000001802b7150     MSVCRT:MSVCR90.dll
 0002:00000158       __imp_strcmp               00000001802b7158     MSVCRT:MSVCR90.dll
 0002:00000160       __imp_free                 00000001802b7160     MSVCRT:MSVCR90.dll
 0002:00000168       __imp_malloc               00000001802b7168     MSVCRT:MSVCR90.dll
 0002:00000170       __imp_memset               00000001802b7170     MSVCRT:MSVCR90.dll
 0002:00000178       __imp_strlen               00000001802b7178     MSVCRT:MSVCR90.dll
 0002:00000180       \177MSVCR90_NULL_THUNK_DATA 00000001802b7180     MSVCRT:MSVCR90.dll
 0002:00000188       __imp_emlrtCheckEnumR2009a 00000001802b7188     libemlrt:libemlrt.dll
 0002:00000190       __imp_emlrtCheckVsBuiltInR2009a 00000001802b7190     libemlrt:libemlrt.dll
 0002:00000198       __imp_emlrtCheckBuiltInR2009a 00000001802b7198     libemlrt:libemlrt.dll
 0002:000001a0       __imp_emlrtCreateEnumR2010a 00000001802b71a0     libemlrt:libemlrt.dll
 0002:000001a8       __imp_emlrtGetEnumElementR2009a 00000001802b71a8     libemlrt:libemlrt.dll
 0002:000001b0       __imp_emlrtImportVsFiArrayR2009b 00000001802b71b0     libemlrt:libemlrt.dll
 0002:000001b8       __imp_emlrtGetEnumUnderlyingArrayR2009a 00000001802b71b8     libemlrt:libemlrt.dll
 0002:000001c0       __imp_emlrtIsEnumR2009a    00000001802b71c0     libemlrt:libemlrt.dll
 0002:000001c8       \177libemlrt_NULL_THUNK_DATA 00000001802b71c8     libemlrt:libemlrt.dll
 0002:000001d0       __imp_ssRegisterDataTypeFxpFSlopeFixExpBias 00000001802b71d0     libfixedpoint:libfixedpoint.dll
 0002:000001d8       \177libfixedpoint_NULL_THUNK_DATA 00000001802b71d8     libfixedpoint:libfixedpoint.dll
 0002:000001e0       __imp_mexErrMsgTxt         00000001802b71e0     libmex:libmex.dll
 0002:000001e8       __imp_mexSetTrapFlag       00000001802b71e8     libmex:libmex.dll
 0002:000001f0       __imp_mexMakeArrayPersistent 00000001802b71f0     libmex:libmex.dll
 0002:000001f8       __imp_mexPutVariable       00000001802b71f8     libmex:libmex.dll
 0002:00000200       __imp_mexCallMATLAB        00000001802b7200     libmex:libmex.dll
 0002:00000208       __imp_mexLock              00000001802b7208     libmex:libmex.dll
 0002:00000210       __imp_mexMakeMemoryPersistent 00000001802b7210     libmex:libmex.dll
 0002:00000218       __imp_mexFunctionName      00000001802b7218     libmex:libmex.dll
 0002:00000220       __imp_mexGetVariable       00000001802b7220     libmex:libmex.dll
 0002:00000228       __imp_mexWarnMsgTxt        00000001802b7228     libmex:libmex.dll
 0002:00000230       __imp_mexIsLocked          00000001802b7230     libmex:libmex.dll
 0002:00000238       __imp_mexUnlock            00000001802b7238     libmex:libmex.dll
 0002:00000240       \177libmex_NULL_THUNK_DATA 00000001802b7240     libmex:libmex.dll
 0002:00000248       __imp_idamax32             00000001802b7248     libmwblascompat32:libmwblascompat32.dll
 0002:00000250       __imp_dswap32              00000001802b7250     libmwblascompat32:libmwblascompat32.dll
 0002:00000258       __imp_dger32               00000001802b7258     libmwblascompat32:libmwblascompat32.dll
 0002:00000260       __imp_dnrm232              00000001802b7260     libmwblascompat32:libmwblascompat32.dll
 0002:00000268       __imp_ddot32               00000001802b7268     libmwblascompat32:libmwblascompat32.dll
 0002:00000270       __imp_dtrsm32              00000001802b7270     libmwblascompat32:libmwblascompat32.dll
 0002:00000278       \177libmwblascompat32_NULL_THUNK_DATA 00000001802b7278     libmwblascompat32:libmwblascompat32.dll
 0002:00000280       __imp_muDoubleScalarPower  00000001802b7280     libmwmathutil:libmwmathutil.dll
 0002:00000288       __imp_muDoubleScalarFloor  00000001802b7288     libmwmathutil:libmwmathutil.dll
 0002:00000290       __imp_muDoubleScalarSqrt   00000001802b7290     libmwmathutil:libmwmathutil.dll
 0002:00000298       __imp_muDoubleScalarAbs    00000001802b7298     libmwmathutil:libmwmathutil.dll
 0002:000002a0       __imp_muDoubleScalarAtan2  00000001802b72a0     libmwmathutil:libmwmathutil.dll
 0002:000002a8       __imp_muDoubleScalarCos    00000001802b72a8     libmwmathutil:libmwmathutil.dll
 0002:000002b0       __imp_muDoubleScalarSin    00000001802b72b0     libmwmathutil:libmwmathutil.dll
 0002:000002b8       __imp_muDoubleScalarAcos   00000001802b72b8     libmwmathutil:libmwmathutil.dll
 0002:000002c0       \177libmwmathutil_NULL_THUNK_DATA 00000001802b72c0     libmwmathutil:libmwmathutil.dll
 0002:000002c8       __imp_mxGetPr              00000001802b72c8     libmx:libmx.dll
 0002:000002d0       __imp_mxIsNumeric          00000001802b72d0     libmx:libmx.dll
 0002:000002d8       __imp_mxIsComplex          00000001802b72d8     libmx:libmx.dll
 0002:000002e0       __imp_mxGetN               00000001802b72e0     libmx:libmx.dll
 0002:000002e8       __imp_mxGetM               00000001802b72e8     libmx:libmx.dll
 0002:000002f0       __imp_mxCreateLogicalScalar 00000001802b72f0     libmx:libmx.dll
 0002:000002f8       __imp_mxIsLogicalScalarTrue 00000001802b72f8     libmx:libmx.dll
 0002:00000300       __imp_mxGetString_700      00000001802b7300     libmx:libmx.dll
 0002:00000308       __imp_mxCreateStringFromNChars_700 00000001802b7308     libmx:libmx.dll
 0002:00000310       __imp_mxGetElementSize     00000001802b7310     libmx:libmx.dll
 0002:00000318       __imp_mxCreateNumericArray_700 00000001802b7318     libmx:libmx.dll
 0002:00000320       __imp_mxGetNumberOfDimensions_700 00000001802b7320     libmx:libmx.dll
 0002:00000328       __imp_mxGetDimensions_700  00000001802b7328     libmx:libmx.dll
 0002:00000330       __imp_mxCalcSingleSubscript_700 00000001802b7330     libmx:libmx.dll
 0002:00000338       __imp_mxCreateStructArray_700 00000001802b7338     libmx:libmx.dll
 0002:00000340       __imp_mxCreateNumericMatrix_700 00000001802b7340     libmx:libmx.dll
 0002:00000348       __imp_mxArrayClassIDName   00000001802b7348     libmx:libmx.dll
 0002:00000350       __imp_mxGetImagData        00000001802b7350     libmx:libmx.dll
 0002:00000358       __imp_mxGetData            00000001802b7358     libmx:libmx.dll
 0002:00000360       __imp_mxIsEmpty            00000001802b7360     libmx:libmx.dll
 0002:00000368       __imp_mxIsNaN              00000001802b7368     libmx:libmx.dll
 0002:00000370       __imp_mxGetFieldNumber     00000001802b7370     libmx:libmx.dll
 0002:00000378       __imp_mxCreateStructMatrix_700 00000001802b7378     libmx:libmx.dll
 0002:00000380       __imp_mxGetNumberOfFields  00000001802b7380     libmx:libmx.dll
 0002:00000388       __imp_mxGetFieldNameByNumber 00000001802b7388     libmx:libmx.dll
 0002:00000390       __imp_mxGetFieldByNumber_700 00000001802b7390     libmx:libmx.dll
 0002:00000398       __imp_mxSetFieldByNumber_700 00000001802b7398     libmx:libmx.dll
 0002:000003a0       __imp_mxIsSparse           00000001802b73a0     libmx:libmx.dll
 0002:000003a8       __imp_mxGetLogicals        00000001802b73a8     libmx:libmx.dll
 0002:000003b0       __imp_mxIsClass            00000001802b73b0     libmx:libmx.dll
 0002:000003b8       __imp_mxIsStruct           00000001802b73b8     libmx:libmx.dll
 0002:000003c0       __imp_mxGetNumberOfElements 00000001802b73c0     libmx:libmx.dll
 0002:000003c8       __imp_mxGetField_700       00000001802b73c8     libmx:libmx.dll
 0002:000003d0       __imp_mxAddField           00000001802b73d0     libmx:libmx.dll
 0002:000003d8       __imp_mxSetField_700       00000001802b73d8     libmx:libmx.dll
 0002:000003e0       __imp_mxGetClassName       00000001802b73e0     libmx:libmx.dll
 0002:000003e8       __imp_mxGetCell_700        00000001802b73e8     libmx:libmx.dll
 0002:000003f0       __imp_mxSetCell_700        00000001802b73f0     libmx:libmx.dll
 0002:000003f8       __imp_mxCreateCellMatrix_700 00000001802b73f8     libmx:libmx.dll
 0002:00000400       __imp_mxArrayToString      00000001802b7400     libmx:libmx.dll
 0002:00000408       __imp_mxFree               00000001802b7408     libmx:libmx.dll
 0002:00000410       __imp_mxCreateDoubleMatrix_700 00000001802b7410     libmx:libmx.dll
 0002:00000418       __imp_mxIsLogical          00000001802b7418     libmx:libmx.dll
 0002:00000420       __imp_mxGetScalar          00000001802b7420     libmx:libmx.dll
 0002:00000428       __imp_mxGetClassID         00000001802b7428     libmx:libmx.dll
 0002:00000430       __imp_mxIsChar             00000001802b7430     libmx:libmx.dll
 0002:00000438       __imp_mxGetString_730      00000001802b7438     libmx:libmx.dll
 0002:00000440       __imp_mxDuplicateArray     00000001802b7440     libmx:libmx.dll
 0002:00000448       __imp_mxCreateString       00000001802b7448     libmx:libmx.dll
 0002:00000450       __imp_mxDestroyArray       00000001802b7450     libmx:libmx.dll
 0002:00000458       __imp_mxCreateStructMatrix_730 00000001802b7458     libmx:libmx.dll
 0002:00000460       __imp_mxCreateDoubleMatrix_730 00000001802b7460     libmx:libmx.dll
 0002:00000468       __imp_mxSetField_730       00000001802b7468     libmx:libmx.dll
 0002:00000470       __imp_mxCreateDoubleScalar 00000001802b7470     libmx:libmx.dll
 0002:00000478       __imp_mxCalloc             00000001802b7478     libmx:libmx.dll
 0002:00000480       \177libmx_NULL_THUNK_DATA  00000001802b7480     libmx:libmx.dll
 0002:00000488       __imp_utFree               00000001802b7488     libut:libut.dll
 0002:00000490       __imp_utCPUtime            00000001802b7490     libut:libut.dll
 0002:00000498       __imp_utVSNprintf          00000001802b7498     libut:libut.dll
 0002:000004a0       __imp_utMalloc             00000001802b74a0     libut:libut.dll
 0002:000004a8       \177libut_NULL_THUNK_DATA  00000001802b74a8     libut:libut.dll
 0002:000004b0       __xc_a                     00000001802b74b0     MSVCRT:cinitexe.obj
 0002:000004b8       __xc_z                     00000001802b74b8     MSVCRT:cinitexe.obj
 0002:000004c0       __xi_a                     00000001802b74c0     MSVCRT:cinitexe.obj
 0002:000004d0       __xi_z                     00000001802b74d0     MSVCRT:cinitexe.obj
 0002:000004e0       __real@41e16779c1a00000    00000001802b74e0     c1_DynJointVerify.obj
 0002:000004e8       __real@41e592245e000000    00000001802b74e8     c1_DynJointVerify.obj
 0002:000004f0       __real@41ef5366e9800000    00000001802b74f0     c1_DynJointVerify.obj
 0002:000004f8       __real@41e8535f4d400000    00000001802b74f8     c1_DynJointVerify.obj
 0002:00000500       __real@4022000000000000    00000001802b7500     c1_DynJointVerify.obj
 0002:00000508       __real@4018000000000000    00000001802b7508     c1_DynJointVerify.obj
 0002:00000510       __real@4024000000000000    00000001802b7510     c1_DynJointVerify.obj
 0002:00000518       __real@3ff0000000000000    00000001802b7518     c1_DynJointVerify.obj
 0002:00000520       __real@4008000000000000    00000001802b7520     c1_DynJointVerify.obj
 0002:00000528       __real@41ed028e58200000    00000001802b7528     c1_DynJointVerify.obj
 0002:00000530       __real@41e8888b3a000000    00000001802b7530     c1_DynJointVerify.obj
 0002:00000538       __real@41efb1be6da00000    00000001802b7538     c1_DynJointVerify.obj
 0002:00000540       __real@41eb6f1987200000    00000001802b7540     c1_DynJointVerify.obj
 0002:00000548       __real@0000000000000000    00000001802b7548     c1_DynJointVerify.obj
 0002:00000550       __real@8000000000000000    00000001802b7550     c1_DynJointVerify.obj
 0002:00000558       __real@4000000000000000    00000001802b7558     c1_DynJointVerify.obj
 0002:00000560       __real@c000000000000000    00000001802b7560     c1_DynJointVerify.obj
 0002:00000568       __real@bff0000000000000    00000001802b7568     c1_DynJointVerify.obj
 0002:00000570       __real@41d37cb884000000    00000001802b7570     c2_DynJointVerify.obj
 0002:00000578       __real@41e4cb5653600000    00000001802b7578     c2_DynJointVerify.obj
 0002:00000580       __real@41da841562400000    00000001802b7580     c2_DynJointVerify.obj
 0002:00000588       __real@41790e4a20000000    00000001802b7588     c2_DynJointVerify.obj
 0002:00000590       __real@41d2cbb35b400000    00000001802b7590     c2_DynJointVerify.obj
 0002:00000598       __real@41e52354b4200000    00000001802b7598     c2_DynJointVerify.obj
 0002:000005a0       __real@41ed0e34aa000000    00000001802b75a0     c2_DynJointVerify.obj
 0002:000005a8       __real@41ead56a87a00000    00000001802b75a8     c2_DynJointVerify.obj
 0002:000005b0       __real@4061800000000000    00000001802b75b0     c2_DynJointVerify.obj
 0002:000005b8       __real@c061800000000000    00000001802b75b8     c2_DynJointVerify.obj
 0002:000005c0       __real@4066800000000000    00000001802b75c0     c2_DynJointVerify.obj
 0002:000005c8       __real@c066800000000000    00000001802b75c8     c2_DynJointVerify.obj
 0002:000005d0       __real@4056800000000000    00000001802b75d0     c2_DynJointVerify.obj
 0002:000005d8       __real@c06a400000000000    00000001802b75d8     c2_DynJointVerify.obj
 0002:000005e0       __real@404e000000000000    00000001802b75e0     c2_DynJointVerify.obj
 0002:000005e8       __real@c062c00000000000    00000001802b75e8     c2_DynJointVerify.obj
 0002:000005f0       __real@4064a00000000000    00000001802b75f0     c2_DynJointVerify.obj
 0002:000005f8       __real@c064a00000000000    00000001802b75f8     c2_DynJointVerify.obj
 0002:00000600       __real@400921fb54442d18    00000001802b7600     c2_DynJointVerify.obj
 0002:00000608       __real@c014000000000000    00000001802b7608     c2_DynJointVerify.obj
 0002:00000610       __real@4010000000000000    00000001802b7610     c2_DynJointVerify.obj
 0002:00000618       __real@41d2fb18db400000    00000001802b7618     c3_DynJointVerify.obj
 0002:00000620       __real@41e2bd27abc00000    00000001802b7620     c3_DynJointVerify.obj
 0002:00000628       __real@41e539ddfc200000    00000001802b7628     c3_DynJointVerify.obj
 0002:00000630       __real@41e8c166cae00000    00000001802b7630     c3_DynJointVerify.obj
 0002:00000638       __real@4032000000000000    00000001802b7638     c3_DynJointVerify.obj
 0002:00000640       __real@41eb830dd7600000    00000001802b7640     c3_DynJointVerify.obj
 0002:00000648       __real@41e8f72e38400000    00000001802b7648     c3_DynJointVerify.obj
 0002:00000650       __real@41e50822ee400000    00000001802b7650     c3_DynJointVerify.obj
 0002:00000658       __real@41d96c046b400000    00000001802b7658     c3_DynJointVerify.obj
 0002:00000660       __real@4026000000000000    00000001802b7660     c3_DynJointVerify.obj
 0002:00000668       __real@3fe3333333333333    00000001802b7668     c3_DynJointVerify.obj
 0002:00000670       __real@4014f5c28f5c28f6    00000001802b7670     c3_DynJointVerify.obj
 0002:00000678       __real@403875c28f5c28f6    00000001802b7678     c3_DynJointVerify.obj
 0002:00000680       __real@4058beb851eb851f    00000001802b7680     c3_DynJointVerify.obj
 0002:00000688       __real@404fdeb851eb851f    00000001802b7688     c3_DynJointVerify.obj
 0002:00000690       __real@406549eb851eb852    00000001802b7690     c3_DynJointVerify.obj
 0002:00000698       __real@3ff9b22d0e560419    00000001802b7698     c3_DynJointVerify.obj
 0002:000006a0       __real@3ff84e3bcd35a858    00000001802b76a0     c3_DynJointVerify.obj
 0002:000006a8       __real@3feeff972474538f    00000001802b76a8     c3_DynJointVerify.obj
 0002:000006b0       __real@3fde17c1bda5119d    00000001802b76b0     c3_DynJointVerify.obj
 0002:000006b8       __real@3f926e978d4fdf3b    00000001802b76b8     c3_DynJointVerify.obj
 0002:000006c0       __real@bf86872b020c49ba    00000001802b76c0     c3_DynJointVerify.obj
 0002:000006c8       __real@bfa04816f0068db9    00000001802b76c8     c3_DynJointVerify.obj
 0002:000006d0       __real@3fc6594af4f0d845    00000001802b76d0     c3_DynJointVerify.obj
 0002:000006d8       __real@bfab089a02752546    00000001802b76d8     c3_DynJointVerify.obj
 0002:000006e0       __real@3ff547ae147ae148    00000001802b76e0     c3_DynJointVerify.obj
 0002:000006e8       __real@3ff3d9e83e425aee    00000001802b76e8     c3_DynJointVerify.obj
 0002:000006f0       __real@3fea624dd2f1a9fc    00000001802b76f0     c3_DynJointVerify.obj
 0002:000006f8       __real@3fc41205bc01a36e    00000001802b76f8     c3_DynJointVerify.obj
 0002:00000700       __real@3fc353f7ced91687    00000001802b7700     c3_DynJointVerify.obj
 0002:00000708       __real@3fa4d6a161e4f766    00000001802b7708     c3_DynJointVerify.obj
 0002:00000710       __real@4034000000000000    00000001802b7710     c3_DynJointVerify.obj
 0002:00000718       __real@4063400000000000    00000001802b7718     c3_DynJointVerify.obj
 0002:00000720       __real@408fc00000000000    00000001802b7720     c3_DynJointVerify.obj
 0002:00000728       __real@4065400000000000    00000001802b7728     c3_DynJointVerify.obj
 0002:00000730       __real@408b300000000000    00000001802b7730     c3_DynJointVerify.obj
 0002:00000738       __real@4062c00000000000    00000001802b7738     c3_DynJointVerify.obj
 0002:00000740       __real@4081b00000000000    00000001802b7740     c3_DynJointVerify.obj
 0002:00000748       __real@41e9442a3d000000    00000001802b7748     c4_DynJointVerify.obj
 0002:00000750       __real@41d7f03a0e000000    00000001802b7750     c4_DynJointVerify.obj
 0002:00000758       __real@41e0d544b2a00000    00000001802b7758     c4_DynJointVerify.obj
 0002:00000760       __real@41d9e02dde800000    00000001802b7760     c4_DynJointVerify.obj
 0002:00000768       __real@41e10937fc200000    00000001802b7768     c4_DynJointVerify.obj
 0002:00000770       __real@41e7cdee31c00000    00000001802b7770     c4_DynJointVerify.obj
 0002:00000778       __real@41c7a68cb6800000    00000001802b7778     c4_DynJointVerify.obj
 0002:00000780       __real@41c0037dcc000000    00000001802b7780     c4_DynJointVerify.obj
 0002:00000788       __real@3fe0000000000000    00000001802b7788     c4_DynJointVerify.obj
 0002:00000790       __real@4028000000000000    00000001802b7790     c4_DynJointVerify.obj
 0002:00000798       __real@41e5633853400000    00000001802b7798     c5_DynJointVerify.obj
 0002:000007a0       __real@41c528e3d0000000    00000001802b77a0     c5_DynJointVerify.obj
 0002:000007a8       __real@41e7f1ecb0800000    00000001802b77a8     c5_DynJointVerify.obj
 0002:000007b0       __real@41c1bcc561800000    00000001802b77b0     c5_DynJointVerify.obj
 0002:000007b8       __real@41ef709ac2e00000    00000001802b77b8     c5_DynJointVerify.obj
 0002:000007c0       __real@41bac65517000000    00000001802b77c0     c5_DynJointVerify.obj
 0002:000007c8       __real@41d0b4811fc00000    00000001802b77c8     c5_DynJointVerify.obj
 0002:000007d0       __real@41eb2b69c1800000    00000001802b77d0     c5_DynJointVerify.obj
 0002:000007d8       __real@4014000000000000    00000001802b77d8     c5_DynJointVerify.obj
 0002:000007e0       __real@419f79a7d4000000    00000001802b77e0     c6_DynJointVerify.obj
 0002:000007e8       __real@41e51e8293c00000    00000001802b77e8     c6_DynJointVerify.obj
 0002:000007f0       __real@41cd6f9948000000    00000001802b77f0     c6_DynJointVerify.obj
 0002:000007f8       __real@41e6b81ebbc00000    00000001802b77f8     c6_DynJointVerify.obj
 0002:00000800       __real@41ecfbce67400000    00000001802b7800     c6_DynJointVerify.obj
 0002:00000808       __real@41cdeda726000000    00000001802b7808     c6_DynJointVerify.obj
 0002:00000810       __real@41e1941026a00000    00000001802b7810     c6_DynJointVerify.obj
 0002:00000818       __real@41eb2525f4a00000    00000001802b7818     c6_DynJointVerify.obj
 0002:00000820       __real@41d604e3f6000000    00000001802b7820     c7_DynJointVerify.obj
 0002:00000828       __real@41efc7a8a4400000    00000001802b7828     c7_DynJointVerify.obj
 0002:00000830       __real@41ecf543cf200000    00000001802b7830     c7_DynJointVerify.obj
 0002:00000838       __real@41d4639f7c000000    00000001802b7838     c7_DynJointVerify.obj
 0002:00000840       __real@418fabaa10000000    00000001802b7840     c7_DynJointVerify.obj
 0002:00000848       __real@41d4ef6042000000    00000001802b7848     c7_DynJointVerify.obj
 0002:00000850       __real@41d9b32313c00000    00000001802b7850     c7_DynJointVerify.obj
 0002:00000858       __real@41ecb8dc91a00000    00000001802b7858     c7_DynJointVerify.obj
 0002:00000860       __real@41e92fd6c8a00000    00000001802b7860     c16_DynJointVerify.obj
 0002:00000868       __real@41dd0f4ecc400000    00000001802b7868     c16_DynJointVerify.obj
 0002:00000870       __real@41d8eca17f800000    00000001802b7870     c16_DynJointVerify.obj
 0002:00000878       __real@41d741d033000000    00000001802b7878     c16_DynJointVerify.obj
 0002:00000880       __real@4020000000000000    00000001802b7880     c16_DynJointVerify.obj
 0002:00000888       __real@41ddbb380d400000    00000001802b7888     c16_DynJointVerify.obj
 0002:00000890       __real@41cef278f5800000    00000001802b7890     c16_DynJointVerify.obj
 0002:00000898       __real@41e48166e3400000    00000001802b7898     c16_DynJointVerify.obj
 0002:000008a0       __real@41d6bdaca3800000    00000001802b78a0     c16_DynJointVerify.obj
 0002:000008a8       __real@3fc645a1cac08312    00000001802b78a8     c16_DynJointVerify.obj
 0002:000008b0       __real@3ff04189374bc6a8    00000001802b78b0     c16_DynJointVerify.obj
 0002:000008b8       __real@3fc5c28f5c28f5c3    00000001802b78b8     c16_DynJointVerify.obj
 0002:000008c0       __real@3febd70a3d70a3d7    00000001802b78c0     c16_DynJointVerify.obj
 0002:000008c8       __real@3fc3333333333333    00000001802b78c8     c16_DynJointVerify.obj
 0002:000008d0       __real@3fd3333333333333    00000001802b78d0     c16_DynJointVerify.obj
 0002:000008d8       __real@3fd10624dd2f1aa0    00000001802b78d8     c16_DynJointVerify.obj
 0002:000008e0       __real@41d4e39400400000    00000001802b78e0     c17_DynJointVerify.obj
 0002:000008e8       __real@41efeb3c65200000    00000001802b78e8     c17_DynJointVerify.obj
 0002:000008f0       __real@41ea5e5aea400000    00000001802b78f0     c17_DynJointVerify.obj
 0002:000008f8       __real@41ef8ae126c00000    00000001802b78f8     c17_DynJointVerify.obj
 0002:00000900       __real@41efa665f3c00000    00000001802b7900     c17_DynJointVerify.obj
 0002:00000908       __real@41d1e2f91c000000    00000001802b7908     c17_DynJointVerify.obj
 0002:00000910       __real@41e780128c000000    00000001802b7910     c17_DynJointVerify.obj
 0002:00000918       __real@4195068fbc000000    00000001802b7918     c17_DynJointVerify.obj
 0002:00000920       __real@41d4f543c3000000    00000001802b7920     c20_DynJointVerify.obj
 0002:00000928       __real@41b6a6588b000000    00000001802b7928     c20_DynJointVerify.obj
 0002:00000930       __real@41edb81f28e00000    00000001802b7930     c20_DynJointVerify.obj
 0002:00000938       __real@41d32c7252000000    00000001802b7938     c20_DynJointVerify.obj
 0002:00000940       __real@41b90789f5000000    00000001802b7940     c20_DynJointVerify.obj
 0002:00000948       __real@41d5f9ea62c00000    00000001802b7948     c20_DynJointVerify.obj
 0002:00000950       __real@41ed43a3e3200000    00000001802b7950     c20_DynJointVerify.obj
 0002:00000958       __real@41d9fd141b800000    00000001802b7958     c20_DynJointVerify.obj
 0002:00000960       __real@41edd937ebc00000    00000001802b7960     c21_DynJointVerify.obj
 0002:00000968       __real@41e69bc7d3a00000    00000001802b7968     c21_DynJointVerify.obj
 0002:00000970       __real@41ed6a3dd1600000    00000001802b7970     c21_DynJointVerify.obj
 0002:00000978       __real@41b4b63142000000    00000001802b7978     c21_DynJointVerify.obj
 0002:00000980       __real@4042000000000000    00000001802b7980     c21_DynJointVerify.obj
 0002:00000988       __real@41e91b4aa5e00000    00000001802b7988     c21_DynJointVerify.obj
 0002:00000990       __real@41efe38371200000    00000001802b7990     c21_DynJointVerify.obj
 0002:00000998       __real@41e81b3d90000000    00000001802b7998     c21_DynJointVerify.obj
 0002:000009a0       __real@41e8387bc3e00000    00000001802b79a0     c21_DynJointVerify.obj
 0002:000009b0       DYNAMIC_DIMENSION_DEF      00000001802b79b0     DynJointVerify_sfun_registry.obj
 0002:000009d0       _ssBadLevel2InputAccessMsg 00000001802b79d0     DynJointVerify_sfun_registry.obj
 0002:00000b60       _ssBadLevel2DirectFeedMsg  00000001802b7b60     DynJointVerify_sfun_registry.obj
 0002:00000ca0       _ssBadLevel2DirectFeedSolutionMsg 00000001802b7ca0     DynJointVerify_sfun_registry.obj
 0002:00000d10       _ssBadLevel2ZeroDirectFeedMsg 00000001802b7d10     DynJointVerify_sfun_registry.obj
 0002:00000e50       _ssBadLevel2ZeroDirectFeedMsg2 00000001802b7e50     DynJointVerify_sfun_registry.obj
 0002:00000f38       __real@41602cbca0000000    00000001802b7f38     DynJointVerify_sfun_registry.obj
 0002:00000f40       __real@41e7828c14e00000    00000001802b7f40     DynJointVerify_sfun.obj
 0002:00000f48       __real@41ef7d9d6cc00000    00000001802b7f48     DynJointVerify_sfun.obj
 0002:00000f50       __real@41b8e087d4000000    00000001802b7f50     DynJointVerify_sfun.obj
 0002:00000f58       __real@41ccdd0127800000    00000001802b7f58     DynJointVerify_sfun.obj
 0002:00000f60       __real@41dc1302e4800000    00000001802b7f60     DynJointVerify_sfun.obj
 0002:00000f68       __real@41c3a4f933800000    00000001802b7f68     DynJointVerify_sfun.obj
 0002:00000f70       __real@41dbc271a2800000    00000001802b7f70     DynJointVerify_sfun.obj
 0002:00000f78       __real@41e7aa6d3b400000    00000001802b7f78     DynJointVerify_sfun.obj
 0002:00000f80       __real@41c01f9b19800000    00000001802b7f80     DynJointVerify_sfun.obj
 0002:00000f88       __real@41edba1309200000    00000001802b7f88     DynJointVerify_sfun.obj
 0002:00000f90       __real@41e3c62999600000    00000001802b7f90     DynJointVerify_sfun.obj
 0002:00000f98       __real@41dc2d4d66c00000    00000001802b7f98     DynJointVerify_sfun.obj
 0002:00000fa0       __real@41ec6e43f1000000    00000001802b7fa0     DynJointVerify_sfun.obj
 0002:00000fa8       __real@41cd2b3e95800000    00000001802b7fa8     DynJointVerify_sfun.obj
 0002:00000fb0       __real@41afcf2812000000    00000001802b7fb0     DynJointVerify_sfun.obj
 0002:00000fb8       __real@41d4bfff69800000    00000001802b7fb8     DynJointVerify_sfun.obj
 0002:00000fc0       ??_C@_00CNPNBAHC@?$AA@     00000001802b7fc0     sfc_mex:sfc_mex.obj
 0002:00000fc4       ??_C@_05DGLCPCBN@?$CFsx?$CFd?$AA@ 00000001802b7fc4     sfc_mex:sfc_mex.obj
 0002:00000fcc       ??_C@_02DPKJAMEF@?$CFd?$AA@ 00000001802b7fcc     sfc_mex:sfc_mex.obj
 0002:00000fd0       ??_C@_0CC@DJOAOECF@Unknown?5MATLAB?5error?5encountered@ 00000001802b7fd0     sfc_mex:sfc_mex.obj
 0002:00000ff8       ??_C@_0CJ@DAIIKGLI@?$CFs?5in?5?$CFs?5should?5never?5be?5called?5@ 00000001802b7ff8     sfc_mex:sfc_mex.obj
 0002:00001028       ??_C@_0CE@ICKLNELB@Error?5calling?5MATLAB?5function?5?8?$CF@ 00000001802b8028     sfc_mex:sfc_mex.obj
 0002:0000104c       ??_C@_02DKCKIIND@?$CFs?$AA@ 00000001802b804c     sfc_mex:sfc_mex.obj
 0002:00001050       ??_C@_07PHDIELCI@lasterr?$AA@ 00000001802b8050     sfc_mex:sfc_mex.obj
 0002:00001058       ??_C@_09HKCBALOK@embedded?4?$AA@ 00000001802b8058     sfc_mex:sfc_mex.obj
 0002:00001064       ??_C@_06BNJCAIGJ@double?$AA@ 00000001802b8064     sfc_mex:sfc_mex.obj
 0002:0000106c       ??_C@_06EJFMBPJF@single?$AA@ 00000001802b806c     sfc_mex:sfc_mex.obj
 0002:00001074       ??_C@_04KBDJOJNB@?$FL?$CFd?$FN?$AA@ 00000001802b8074     sfc_mex:sfc_mex.obj
 0002:00001080       ??_C@_0CD@NFPEPNBJ@Cannot?5add?5field?5?$CFs?5to?5struct?5?$CFs@ 00000001802b8080     sfc_mex:sfc_mex.obj
 0002:000010a8       ??_C@_0CF@PLDCCEBG@Cannot?5get?5field?5?$CFs?5from?5struct?5@ 00000001802b80a8     sfc_mex:sfc_mex.obj
 0002:000010d0       ??_C@_0CO@MFJLJCHI@Struct?5array?5?8?$CFs?8?5does?5not?5have?5@ 00000001802b80d0     sfc_mex:sfc_mex.obj
 0002:00001100       ??_C@_0DF@IPGEGIDM@Object?5?8?$CFs?8?5is?5not?5a?5struct?3?5can@ 00000001802b8100     sfc_mex:sfc_mex.obj
 0002:00001138       ??_C@_0BL@KEKJNNL@MATLAB?5expression?5?8?$CFs?8?5?$CFs?4?$AA@ 00000001802b8138     sfc_mex:sfc_mex.obj
 0002:00001160       ??_C@_0GH@JOEOEBFA@Size?5mismatch?5for?5?8?$CFs?8?5on?5dimens@ 00000001802b8160     sfc_mex:sfc_mex.obj
 0002:000011c8       ??_C@_04IAGNFIBA@size?$AA@ 00000001802b81c8     sfc_mex:sfc_mex.obj
 0002:000011d0       ??_C@_0DN@DNLDLJNN@is?5not?5of?5the?5correct?5class?3?5exp@ 00000001802b81d0     sfc_mex:sfc_mex.obj
 0002:00001210       ??_C@_06POLMGHPK@isreal?$AA@ 00000001802b8210     sfc_mex:sfc_mex.obj
 0002:00001218       ??_C@_0CC@EDDDCJDC@is?5not?5of?5the?5correct?5complexnes@ 00000001802b8218     sfc_mex:sfc_mex.obj
 0002:00001240       ??_C@_0CB@POBCEEOP@is?5not?5of?5the?5correct?5sparseness@ 00000001802b8240     sfc_mex:sfc_mex.obj
 0002:00001268       ??_C@_0CC@JOFDGEBC@is?5not?5of?5the?5correct?5numerictyp@ 00000001802b8268     sfc_mex:sfc_mex.obj
 0002:00001290       ??_C@_07MIMONDDE@isequal?$AA@ 00000001802b8290     sfc_mex:sfc_mex.obj
 0002:00001298       ??_C@_0M@NAPEIPJI@numerictype?$AA@ 00000001802b8298     sfc_mex:sfc_mex.obj
 0002:000012a8       ??_C@_0BN@IMIABIKK@is?5not?5of?5the?5correct?5fimath?$AA@ 00000001802b82a8     sfc_mex:sfc_mex.obj
 0002:000012c8       ??_C@_06LJOKAFHF@fimath?$AA@ 00000001802b82c8     sfc_mex:sfc_mex.obj
 0002:000012d0       ??_C@_0EP@IAFBLFNF@Stateflow?5Internal?5Error?3?5?6Error@ 00000001802b82d0     sfc_mex:sfc_mex.obj
 0002:00001320       ??_C@_02GFKODMMF@sf?$AA@   00000001802b8320     sfc_mex:sfc_mex.obj
 0002:00001328       ??_C@_08MJJBNONC@mxDecode?$AA@ 00000001802b8328     sfc_mex:sfc_mex.obj
 0002:00001340       ??_C@_0GH@OOBFJADG@Simulation?5stopped?5due?5to?5out?5of@ 00000001802b8340     sfc_mex:sfc_mex.obj
 0002:000013b0       ??_C@_0HC@JODLBNFO@Simulation?5stopped?5due?5to?5size?5m@ 00000001802b83b0     sfc_mex:sfc_mex.obj
 0002:00001430       ??_C@_0HC@PPOAOPGB@Simulation?5stopped?5due?5to?5size?5m@ 00000001802b8430     sfc_mex:sfc_mex.obj
 0002:000014b0       ??_C@_0JM@OFMOAAGL@Simulation?5stopped?5due?5to?5size?5m@ 00000001802b84b0     sfc_mex:sfc_mex.obj
 0002:00001550       ??_C@_0KC@ODCGHMPH@Simulation?5stopped?5due?5to?5size?5o@ 00000001802b8550     sfc_mex:sfc_mex.obj
 0002:00001600       ??_C@_0GO@BKNPNGBP@Subscripted?5assignment?5dimension@ 00000001802b8600     sfc_mex:sfc_mex.obj
 0002:00001670       ??_C@_0BAO@DDKKHLGF@Matrix?$CImatrix?$CJ?5subscript?5turned?5@ 00000001802b8670     sfc_mex:sfc_mex.obj
 0002:00001780       ??_C@_0BAO@MGKOAKHL@Vector?$CIvector?$CJ?5subscript?5turned?5@ 00000001802b8780     sfc_mex:sfc_mex.obj
 0002:00001890       ??_C@_0FC@HJKNPCCF@Negative?5value?5detected?4?5Enable?5@ 00000001802b8890     sfc_mex:sfc_mex.obj
 0002:000018e8       ??_C@_0DK@JJKHINMK@Overflow?5detected?4?5Enable?5debugg@ 00000001802b88e8     sfc_mex:sfc_mex.obj
 0002:00001930       ??_C@_0EA@POIJMBCP@Divide?5by?5zero?5detected?4?5Enable?5@ 00000001802b8930     sfc_mex:sfc_mex.obj
 0002:00001970       ??_C@_0EK@CFEMECLL@Nonconforming?5enum?5value?5detecte@ 00000001802b8970     sfc_mex:sfc_mex.obj
 0002:000019c0       ??_C@_0EF@IGDCPBDD@Size?5mismatch?5for?5MATLAB?5express@ 00000001802b89c0     sfc_mex:sfc_mex.obj
 0002:00001a08       ??_C@_07JFPGMOK@fprintf?$AA@ 00000001802b8a08     sfc_mex:sfc_mex.obj
 0002:00001a10       ??_C@_0FE@EHCFPDEG@In?5MATLAB?5expression?5?8?$CFs?8?0?5field@ 00000001802b8a10     sfc_mex:sfc_mex.obj
 0002:00001a68       ??_C@_0DE@IJIFCHLH@In?5MATLAB?5expression?5?8?$CFs?8?0?5field@ 00000001802b8a68     sfc_mex:sfc_mex.obj
 0002:00001aa0       ??_C@_0FK@JKPMKGDE@MATLAB?5expression?5?8?$CFs?8?5does?5not?5@ 00000001802b8aa0     sfc_mex:sfc_mex.obj
 0002:00001afc       ??_C@_06PBJBIPGK@struct?$AA@ 00000001802b8afc     sfc_mex:sfc_mex.obj
 0002:00001b08       ??_C@_0O@NFNPPCGN@isfimathlocal?$AA@ 00000001802b8b08     sfc_mex:sfc_mex.obj
 0002:00001b18       ??_C@_0M@MLCGNPLD@embedded?4fi?$AA@ 00000001802b8b18     sfc_mex:sfc_mex.obj
 0002:00001b28       ??_C@_0M@EGMNDJHO@?$CFs?5?$DN?5?$CF?415g?6?$AA@ 00000001802b8b28     sfc_mex:sfc_mex.obj
 0002:00001b34       ??_C@_03OFAPEBGM@?$CFs?6?$AA@ 00000001802b8b34     sfc_mex:sfc_mex.obj
 0002:00001b38       ??_C@_0CL@LLBJDFID@failed?5sf_assertion?5in?5?$CFs?5at?5lin@ 00000001802b8b38     sfc_mex:sfc_mex.obj
 0002:00001b70       ??_C@_0EJ@MIHEOKKA@?8?$CFs?8?3?5Array?5with?5number?5of?5dimen@ 00000001802b8b70     sfc_mex:sfc_mex.obj
 0002:00001bc0       ??_C@_09JCLLFAHO@sfc_mex?4c?$AA@ 00000001802b8bc0     sfc_mex:sfc_mex.obj
 0002:00001bd0       ??_C@_0O@FCFMOEOA@aNumDims?5?$DO?$DN?50?$AA@ 00000001802b8bd0     sfc_mex:sfc_mex.obj
 0002:00001be0       ??_C@_0CK@KDIMGCCA@?8?$CFs?8?3?5Sparse?5matrices?5are?5not?5su@ 00000001802b8be0     sfc_mex:sfc_mex.obj
 0002:00001c10       ??_C@_0CI@KBLJAMNB@MATLAB?5expression?5?8?$CFs?8?5is?5not?5nu@ 00000001802b8c10     sfc_mex:sfc_mex.obj
 0002:00001c38       ??_C@_0P@LCMMCGDM@aSrcMx?5?$CB?$DN?5NULL?$AA@ 00000001802b8c38     sfc_mex:sfc_mex.obj
 0002:00001c50       ??_C@_0EI@HJNNACGI@Eval?5of?5MATLAB?5expression?5?8?$CFs?8?5i@ 00000001802b8c50     sfc_mex:sfc_mex.obj
 0002:00001c98       ??_C@_0DM@BJICAGGK@Stateflow?5currently?5only?5support@ 00000001802b8c98     sfc_mex:sfc_mex.obj
 0002:00001cd4       ??_C@_05LAPONLG@false?$AA@ 00000001802b8cd4     sfc_mex:sfc_mex.obj
 0002:00001cdc       ??_C@_03LHCJEHON@nan?$AA@  00000001802b8cdc     sfc_mex:sfc_mex.obj
 0002:00001ce0       ??_C@_04BHIIPFEC@base?$AA@ 00000001802b8ce0     sfc_mex:sfc_mex.obj
 0002:00001ce8       ??_C@_06PLMANNP@evalin?$AA@ 00000001802b8ce8     sfc_mex:sfc_mex.obj
 0002:00001cf0       ??_C@_06GFECGKEO@caller?$AA@ 00000001802b8cf0     sfc_mex:sfc_mex.obj
 0002:00001cf8       ??_C@_0CM@LOMLNLMC@Invalid?5workspace?5type?5for?5sf_ma@ 00000001802b8cf8     sfc_mex:sfc_mex.obj
 0002:00001d24       ??_C@_01GBGANLPD@0?$AA@    00000001802b8d24     sfc_mex:sfc_mex.obj
 0002:00001d28       ??_C@_06FJKEMHGD@global?$AA@ 00000001802b8d28     sfc_mex:sfc_mex.obj
 0002:00001d30       ??_C@_08KHPDDPHG@getfield?$AA@ 00000001802b8d30     sfc_mex:sfc_mex.obj
 0002:00001d3c       ??_C@_05LPIJGKJ@Value?$AA@ 00000001802b8d3c     sfc_mex:sfc_mex.obj
 0002:00001d48       ??_C@_0BH@HNIMIIFD@Unknown?5workspace?5type?$AA@ 00000001802b8d48     sfc_mex:sfc_mex.obj
 0002:00001d60       ??_C@_0DA@IPMLFPJI@MATLAB?5expression?5?8?$CFs?8?5could?5not@ 00000001802b8d60     sfc_mex:sfc_mex.obj
 0002:00001d90       ??_C@_0EB@HHPLBHBA@Parameter?5value?5out?5of?5bounds?4?5?$CF@ 00000001802b8d90     sfc_mex:sfc_mex.obj
 0002:00001dd8       ??_C@_0CB@DBMOOMDL@Unsupported?5class?5type?5?$CFs?5for?5?$CFs@ 00000001802b8dd8     sfc_mex:sfc_mex.obj
 0002:00001e00       ??_C@_0BI@OPNKAIOC@mxIsComplex?$CImxArrayPtr?$CJ?$AA@ 00000001802b8e00     sfc_mex:sfc_mex.obj
 0002:00001e20       ??_C@_0GA@OFLPCMBM@Stateflow?5Runtime?5Warning?3?5Loss?5@ 00000001802b8e20     sfc_mex:sfc_mex.obj
 0002:00001e80       __real@3810000000000000    00000001802b8e80     sfc_mex:sfc_mex.obj
 0002:00001e88       __real@47efffffe0000000    00000001802b8e88     sfc_mex:sfc_mex.obj
 0002:00001e90       __real@c060000000000000    00000001802b8e90     sfc_mex:sfc_mex.obj
 0002:00001e98       __real@405fc00000000000    00000001802b8e98     sfc_mex:sfc_mex.obj
 0002:00001ea0       __real@406fe00000000000    00000001802b8ea0     sfc_mex:sfc_mex.obj
 0002:00001ea8       __real@c0e0000000000000    00000001802b8ea8     sfc_mex:sfc_mex.obj
 0002:00001eb0       __real@40dfffc000000000    00000001802b8eb0     sfc_mex:sfc_mex.obj
 0002:00001eb8       __real@40efffe000000000    00000001802b8eb8     sfc_mex:sfc_mex.obj
 0002:00001ec0       __real@c1e0000000000000    00000001802b8ec0     sfc_mex:sfc_mex.obj
 0002:00001ec8       __real@41dfffffffc00000    00000001802b8ec8     sfc_mex:sfc_mex.obj
 0002:00001ed0       __real@41efffffffe00000    00000001802b8ed0     sfc_mex:sfc_mex.obj
 0002:00001ed8       ??_C@_0DE@FBNIEGAO@Class?5of?5MATLAB?5expression?5?8?$CFs?8?5@ 00000001802b8ed8     sfc_mex:sfc_mex.obj
 0002:00001f0c       ??_C@_03BBKEAIF@?$DP?$DP?$DP?$AA@ 00000001802b8f0c     sfc_mex:sfc_mex.obj
 0002:00001f10       ??_C@_0DC@ECODOMID@Assignment?5of?5complex?5data?5?$CFs?5to@ 00000001802b8f10     sfc_mex:sfc_mex.obj
 0002:00001f48       ??_C@_0CF@NHFFCIEB@MATLAB?5function?5?8?$CFs?8?5returned?5NU@ 00000001802b8f48     sfc_mex:sfc_mex.obj
 0002:00001f70       ??_C@_0GP@JPKMBIEI@Array?5bounds?5error?5in?5MATLAB?5exp@ 00000001802b8f70     sfc_mex:sfc_mex.obj
 0002:00001fe0       ??_C@_0P@FLJFOPHI@pIndex?$FLi?$FN?5?$DO?$DN?50?$AA@ 00000001802b8fe0     sfc_mex:sfc_mex.obj
 0002:00001ff0       ??_C@_0DI@IGEABFHB@MATLAB?5expression?5?8?$CFs?8?5has?5?$CFd?5di@ 00000001802b8ff0     sfc_mex:sfc_mex.obj
 0002:00002028       ??_C@_0L@EFLJKPA@mxArrayPtr?$AA@ 00000001802b9028     sfc_mex:sfc_mex.obj
 0002:00002038       ??_C@_0CK@FHKKOEPH@numDims?5?$DO?$DN?50?5?$CG?$CG?5numDims?5?$DM?$DN?5MAX_D@ 00000001802b9038     sfc_mex:sfc_mex.obj
 0002:00002070       ??_C@_0EM@MPIDLJBF@MATLAB?5expression?5?8?$CFs?8?5subscript@ 00000001802b9070     sfc_mex:sfc_mex.obj
 0002:000020bc       ??_C@_04IGKKBJEE@?$DN?$CFg?$DL?$AA@ 00000001802b90bc     sfc_mex:sfc_mex.obj
 0002:000020c4       ??_C@_01PKGAHCOL@?$CJ?$AA@ 00000001802b90c4     sfc_mex:sfc_mex.obj
 0002:000020c8       ??_C@_03LEIBKMN@?0?$CFd?$AA@ 00000001802b90c8     sfc_mex:sfc_mex.obj
 0002:000020cc       ??_C@_03IECKINJK@?$CI?$CFd?$AA@ 00000001802b90cc     sfc_mex:sfc_mex.obj
 0002:000020d0       ??_C@_0FB@HKJNNBFK@Stateflow?5ml?5type?5data?5?8?$CFs?8?5subs@ 00000001802b90d0     sfc_mex:sfc_mex.obj
 0002:00002128       ??_C@_0CN@HPHHCDPK@Stateflow?5ml?5type?5data?5?8?$CFs?8?5is?5n@ 00000001802b9128     sfc_mex:sfc_mex.obj
 0002:00002158       ??_C@_0CG@JIOBALFE@Stateflow?5ml?5type?5data?5?8?$CFs?8?5is?5e@ 00000001802b9158     sfc_mex:sfc_mex.obj
 0002:00002180       ??_C@_0BD@GAHDCPBG@mxArrayPtr?5?$CB?$DN?5NULL?$AA@ 00000001802b9180     sfc_mex:sfc_mex.obj
 0002:00002198       ??_C@_0CF@HCINMAFF@result?5?$DN?5mxCreateDoubleScalar?$CIva@ 00000001802b9198     sfc_mex:sfc_mex.obj
 0002:000021c0       ??_C@_0BF@GAJKLFOH@fixpt_lower_mx_array?$AA@ 00000001802b91c0     sfc_mex:sfc_mex.obj
 0002:000021d8       ??_C@_02FINOOIBE@Cg?$AA@   00000001802b91d8     sfc_mex:sfc_mex.obj
 0002:000021e0       ??_C@_09GIFEIFFL@sfprivate?$AA@ 00000001802b91e0     sfc_mex:sfc_sf.obj
 0002:000021f0       ??_C@_0CC@JDELABLI@get_machine_and_chart_file_numbe@ 00000001802b91f0     sfc_mex:sfc_sf.obj
 0002:00002218       ??_C@_0BO@JCKKMPIB@get_sfun_block_specialization?$AA@ 00000001802b9218     sfc_mex:sfc_sf.obj
 0002:00002240       ??_C@_0FP@OGBKADON@The?5chart?5name?5?4?4?4?$CFs?5is?5not?5pres@ 00000001802b9240     sfc_mex:sfc_sf.obj
 0002:000022a0       ??_C@_0FM@KEMGDKHM@The?5chart?5name?5?$CFs?5is?5not?5present@ 00000001802b92a0     sfc_mex:sfc_sf.obj
 0002:00002300       ??_C@_0BD@NMFAPBEK@mdlInitializeSizes?$AA@ 00000001802b9300     sfc_mex:sfc_sf.obj
 0002:00002314       ??_C@_06EJFCAODB@sfc_sf?$AA@ 00000001802b9314     sfc_mex:sfc_sf.obj
 0002:00002320       ??_C@_0BJ@PBIFPMMD@mdlInitializeSampleTimes?$AA@ 00000001802b9320     sfc_mex:sfc_sf.obj
 0002:00002340       ??_C@_0JD@GBCPGGD@Stateflow?5Internal?5Error?3?5?6rtw_o@ 00000001802b9340     sfc_mex:sfc_sf.obj
 0002:000023e0       ??_C@_0HB@BIMCDDAL@Stateflow?5Internal?5Error?3?5?6Error@ 00000001802b93e0     sfc_mex:sfc_sf.obj
 0002:00002458       ??_C@_0BG@PNKGMGHF@rtw_optimization_info?$AA@ 00000001802b9458     sfc_mex:sfc_sf.obj
 0002:00002470       ??_C@_07CFINJGKH@Private?$AA@ 00000001802b9470     sfc_mex:sfc_sf.obj
 0002:00002478       ??_C@_0BA@PHPHFLPF@chart_inlinable?$AA@ 00000001802b9478     sfc_mex:sfc_sf.obj
 0002:00002490       ??_C@_0MF@FGJMMBFO@Stateflow?5Internal?5Error?3?5?6Numbe@ 00000001802b9490     sfc_mex:sfc_sf.obj
 0002:00002558       ??_C@_0CA@GOKFFBBO@outputEventsWithMultipleCallers?$AA@ 00000001802b9558     sfc_mex:sfc_sf.obj
 0002:00002580       ??_C@_0LL@PAHBOILO@Stateflow?5Internal?5Error?3?5?6Numbe@ 00000001802b9580     sfc_mex:sfc_sf.obj
 0002:00002640       ??_C@_0BB@GEEDBOGK@reusable_outputs?$AA@ 00000001802b9640     sfc_mex:sfc_sf.obj
 0002:00002660       ??_C@_0II@FEBCOBGA@Stateflow?5Internal?5Error?3?5?6Numbe@ 00000001802b9660     sfc_mex:sfc_sf.obj
 0002:000026e8       ??_C@_0BG@HMMHPAKE@expressionable_inputs?$AA@ 00000001802b96e8     sfc_mex:sfc_sf.obj
 0002:00002700       ??_C@_01CELHOKLL@?$HN?$AA@ 00000001802b9700     sfc_mex:sfc_sf.obj
 0002:00002708       ??_C@_0BA@OMJBIEIL@SymbolMapping?5?$HL?$AA@ 00000001802b9708     sfc_mex:sfc_sf.obj
 0002:00002718       ??_C@_07MMIKLHCA@defines?$AA@ 00000001802b9718     sfc_mex:sfc_sf.obj
 0002:00002720       ??_C@_09CEAIPAHE@functions?$AA@ 00000001802b9720     sfc_mex:sfc_sf.obj
 0002:00002730       ??_C@_09PNCJPHGM@sfSymbols?$AA@ 00000001802b9730     sfc_mex:sfc_sf.obj
 0002:00002740       ??_C@_0BB@MBBOKNEL@listen_for_ctrlc?$AA@ 00000001802b9740     sfc_mex:sfc_sf.obj
 0002:00002754       ??_C@_03LOANPFAI@mex?$AA@  00000001802b9754     sfc_mex:sfc_sf.obj
 0002:00002758       ??_C@_07HLHKBCBI@sfdebug?$AA@ 00000001802b9758     sfc_mex:sfc_sf.obj
 0002:00002760       ??_C@_07MFNNEMOJ@drawnow?$AA@ 00000001802b9760     sfc_mex:sfc_sf.obj
 0002:00002768       ??_C@_0DG@OJBAPEMA@Internal?5Error?3?5paramsIndex?5?$DN?5?$CFd@ 00000001802b9768     sfc_mex:sfc_sf.obj
 0002:000027a0       ??_C@_0BAI@GPDPHGCD@Cannot?5broadcast?5function?5call?5o@ 00000001802b97a0     sfc_mex:sfc_sf.obj
 0002:000028b0       ??_C@_0BBC@NGKHEJAF@Cannot?5enable?1disable?5function?5c@ 00000001802b98b0     sfc_mex:sfc_sf.obj
 0002:000029c8       ??_C@_08HDNBGBNP@bitWidth?$AA@ 00000001802b99c8     sfc_mex:sfc_sf.obj
 0002:000029d8       ??_C@_0BG@MDDFDLDC@resolveToSignalObject?$AA@ 00000001802b99d8     sfc_mex:sfc_sf.obj
 0002:000029f0       ??_C@_07KHBFOCMF@varName?$AA@ 00000001802b99f0     sfc_mex:sfc_sf.obj
 0002:000029f8       ??_C@_09LHPHPAOE@isComplex?$AA@ 00000001802b99f8     sfc_mex:sfc_sf.obj
 0002:00002a08       ??_C@_0CM@OAMAJMIG@Failed?5to?5register?5type?5?8?$CFs?8?5wit@ 00000001802b9a08     sfc_mex:sfc_sf.obj
 0002:00002a38       ??_C@_08MLIGMCAH@typeSize?$AA@ 00000001802b9a38     sfc_mex:sfc_sf.obj
 0002:00002a44       ??_C@_04NBAGBPGE@bias?$AA@ 00000001802b9a44     sfc_mex:sfc_sf.obj
 0002:00002a50       ??_C@_08EGJNFMPO@exponent?$AA@ 00000001802b9a50     sfc_mex:sfc_sf.obj
 0002:00002a5c       ??_C@_05LAHHKLJI@slope?$AA@ 00000001802b9a5c     sfc_mex:sfc_sf.obj
 0002:00002a68       ??_C@_0L@EMMELFNN@wordLength?$AA@ 00000001802b9a68     sfc_mex:sfc_sf.obj
 0002:00002a78       ??_C@_08EJEJGLGA@isSigned?$AA@ 00000001802b9a78     sfc_mex:sfc_sf.obj
 0002:00002a84       ??_C@_05LFJLPLPG@fixpt?$AA@ 00000001802b9a84     sfc_mex:sfc_sf.obj
 0002:00002a90       ??_C@_07GOBOHMJA@boolean?$AA@ 00000001802b9a90     sfc_mex:sfc_sf.obj
 0002:00002a98       ??_C@_06PKDKHAMA@uint32?$AA@ 00000001802b9a98     sfc_mex:sfc_sf.obj
 0002:00002aa0       ??_C@_05GIMEPBJB@int32?$AA@ 00000001802b9aa0     sfc_mex:sfc_sf.obj
 0002:00002aa8       ??_C@_06JNNCGBKK@uint16?$AA@ 00000001802b9aa8     sfc_mex:sfc_sf.obj
 0002:00002ab0       ??_C@_05PCMOAPL@int16?$AA@ 00000001802b9ab0     sfc_mex:sfc_sf.obj
 0002:00002ab8       ??_C@_05BOGOCLFF@uint8?$AA@ 00000001802b9ab8     sfc_mex:sfc_sf.obj
 0002:00002ac0       ??_C@_04DCGBOBJJ@int8?$AA@ 00000001802b9ac0     sfc_mex:sfc_sf.obj
 0002:00002ac8       ??_C@_04GPMDFGEJ@type?$AA@ 00000001802b9ac8     sfc_mex:sfc_sf.obj
 0002:00002ad0       ??_C@_0O@EIPJLOAA@extModeUpload?$AA@ 00000001802b9ad0     sfc_mex:sfc_sf.obj
 0002:00002ae0       __real@43e0000000000000    00000001802b9ae0     sfc_mex:sfc_sf.obj
 0002:00002ae8       ??_C@_03PLHFFLIH@ptr?$AA@  00000001802b9ae8     sfc_mex:sfc_sf.obj
 0002:00002af0       ??_C@_0BC@HMCIKMPA@requiredStackSize?$AA@ 00000001802b9af0     sfc_mex:sfc_sf.obj
 0002:00002b08       ??_C@_0CB@OCGIMAKA@RegisterMachineParentedDataDwork@ 00000001802b9b08     sfc_mex:sfc_sf.obj
 0002:00002b30       ??_C@_0BD@LFPAKDFC@machineDataVarInfo?$AA@ 00000001802b9b30     sfc_mex:sfc_sf.obj
 0002:00002b48       ??_C@_09GAJBGLOB@dworkInfo?$AA@ 00000001802b9b48     sfc_mex:sfc_sf.obj
 0002:00002b58       sf_uint_bits_log2          00000001802b9b58     sfc_debug:sfcdebug.obj
 0002:00002b78       ??_C@_04GKMJMOBJ@disp?$AA@ 00000001802b9b78     sfc_debug:sfcdebug.obj
 0002:00002b80       ??_C@_0DJ@GEKCDEED@Runtime?5size?5mismatch?5for?5dimens@ 00000001802b9b80     sfc_debug:sfcdebug.obj
 0002:00002bc0       ??_C@_0N@IHFJDIPG@load_machine?$AA@ 00000001802b9bc0     sfc_debug:sfcdebug.obj
 0002:00002bd0       ??_C@_0P@NOFOFJMO@ScriptCacheGet?$AA@ 00000001802b9bd0     sfc_debug:sfcdebug.obj
 0002:00002be0       ??_C@_0BD@LPIHANBP@State?5Entry?5Action?$AA@ 00000001802b9be0     sfc_debug:sfcdebug.obj
 0002:00002bf8       ??_C@_0BE@EDAKPKIF@State?5During?5Action?$AA@ 00000001802b9bf8     sfc_debug:sfcdebug.obj
 0002:00002c10       ??_C@_0BC@FKIGLKJE@State?5Exit?5Action?$AA@ 00000001802b9c10     sfc_debug:sfcdebug.obj
 0002:00002c24       ??_C@_04CGFJFPFD@none?$AA@ 00000001802b9c24     sfc_debug:sfcdebug.obj
 0002:00002c30       ??_C@_0BD@JMJALEKH@Transition?5Trigger?$AA@ 00000001802b9c30     sfc_debug:sfcdebug.obj
 0002:00002c48       ??_C@_0BO@JIGLNAHF@Transition?5Guarding?5Condition?$AA@ 00000001802b9c48     sfc_debug:sfcdebug.obj
 0002:00002c68       ??_C@_0BB@ODEGBFLN@Condition?5Action?$AA@ 00000001802b9c68     sfc_debug:sfcdebug.obj
 0002:00002c80       ??_C@_0BC@EPJNNAPA@Transition?5Action?$AA@ 00000001802b9c80     sfc_debug:sfcdebug.obj
 0002:00002c98       ??_C@_0DI@JGHJOLLJ@INTERNAL?5ERROR?4?5Failed?5assertion@ 00000001802b9c98     sfc_debug:sfcdebug.obj
 0002:00002cd0       ??_C@_01EEMJAFIK@?6?$AA@   00000001802b9cd0     sfc_debug:sfcdebug.obj
 0002:00002cd8       ??_C@_0P@HHNBJNJA@context_string?$AA@ 00000001802b9cd8     sfc_debug:sfcdebug.obj
 0002:00002ce8       ??_C@_0DL@EPKGPGLC@?$CImachine?9?$DOdataCompInfo?4fixedPoin@ 00000001802b9ce8     sfc_debug:sfcdebug.obj
 0002:00002d28       ??_C@_0L@GJHMCDGO@sfcdebug?4c?$AA@ 00000001802b9d28     sfc_debug:sfcdebug.obj
 0002:00002d38       ??_C@_0DE@CBCLKIAM@?$CImachine?9?$DOdataCompInfo?4isComplex@ 00000001802b9d38     sfc_debug:sfcdebug.obj
 0002:00002d70       ??_C@_0DP@MDOJBFKE@?$CIinstance?9?$DOdataCompInfo?4fixedPoi@ 00000001802b9d70     sfc_debug:sfcdebug.obj
 0002:00002db0       ??_C@_0DM@KFHGIBMB@?$CIinstance?9?$DOdataCompInfo?4fixedPoi@ 00000001802b9db0     sfc_debug:sfcdebug.obj
 0002:00002df0       ??_C@_0DF@IIPJPBAH@?$CIinstance?9?$DOdataCompInfo?4isComple@ 00000001802b9df0     sfc_debug:sfcdebug.obj
 0002:00002e28       ??_C@_0DA@OMEPAHNH@?$CIchart?9?$DOdata?4outputDataFlags?$CJ?4le@ 00000001802b9e28     sfc_debug:sfcdebug.obj
 0002:00002e58       ??_C@_0CP@JPBDBJBK@?$CIchart?9?$DOdata?4inputDataFlags?$CJ?4len@ 00000001802b9e58     sfc_debug:sfcdebug.obj
 0002:00002e88       ??_C@_03KGJNKAJD@lic?$AA@  00000001802b9e88     sfc_debug:sfcdebug.obj
 0002:00002e8c       ??_C@_04PNMLDJAE@ense?$AA@ 00000001802b9e8c     sfc_debug:sfcdebug.obj
 0002:00002e98       ??_C@_0L@ONMHLBPB@?$CFs?$CFs?$CFslbox?$AA@ 00000001802b9e98     sfc_debug:sfcdebug.obj
 0002:00002ea4       ??_C@_04CLOJJEIM@fixe?$AA@ 00000001802b9ea4     sfc_debug:sfcdebug.obj
 0002:00002eac       ??_C@_05CBHOIFCP@t_too?$AA@ 00000001802b9eac     sfc_debug:sfcdebug.obj
 0002:00002eb4       ??_C@_06MGFNEDEJ@d_poin?$AA@ 00000001802b9eb4     sfc_debug:sfcdebug.obj
 0002:00002ebc       ??_C@_04HDOCAJNK@?$CFs?$CFs?$AA@ 00000001802b9ebc     sfc_debug:sfcdebug.obj
 0002:00002ec4       ??_C@_04BJBBOLDM@chec?$AA@ 00000001802b9ec4     sfc_debug:sfcdebug.obj
 0002:00002ecc       ??_C@_04KNBDLPKC@kout?$AA@ 00000001802b9ecc     sfc_debug:sfcdebug.obj
 0002:00002ed8       ??_C@_0BA@FKECJMCE@active_instance?$AA@ 00000001802b9ed8     sfc_debug:sfcdebug.obj
 0002:00002ee8       ??_C@_0DD@MJFCMKPO@transCnt?5?$DN?$DN?5instance?9?$DOcvToolIds?4@ 00000001802b9ee8     sfc_debug:sfcdebug.obj
 0002:00002f20       ??_C@_0CO@MONEMJEL@stateCnt?5?$DN?$DN?5instance?9?$DOcvToolIds?4@ 00000001802b9f20     sfc_debug:sfcdebug.obj
 0002:00002f50       ??_C@_0O@ELHBEDAD@init_debugger?$AA@ 00000001802b9f50     sfc_debug:sfcdebug.obj
 0002:00002f60       ??_C@_0L@PKOFOKNN@break_here?$AA@ 00000001802b9f60     sfc_debug:sfcdebug.obj
 0002:00002f70       ??_C@_0BH@KBPHNGCH@script?4activeMachineId?$AA@ 00000001802b9f70     sfc_debug:sfcdebug.obj
 0002:00002f88       ??_C@_03KCHOJKKI@set?$AA@  00000001802b9f88     sfc_debug:sfcdebug.obj
 0002:00002f90       ??_C@_0DD@PKMAPHBF@?$CImachine?9?$DOdata?4watchFlags?$CJ?4lengt@ 00000001802b9f90     sfc_debug:sfcdebug.obj
 0002:00002fd0       ??_C@_0FE@KLPHIMDI@?$CIchart?9?$DOdata?4watchFlags?$CJ?4length?$DO@ 00000001802b9fd0     sfc_debug:sfcdebug.obj
 0002:00003028       ??_C@_0BO@GFBPGEIL@bufferSizeGet?5?$DN?$DN?5totalSizeGet?$AA@ 00000001802ba028     sfc_debug:sfcdebug.obj
 0002:00003048       ??_C@_0BO@BEEPOEDP@bufferSizeSet?5?$DN?$DN?5totalSizeSet?$AA@ 00000001802ba048     sfc_debug:sfcdebug.obj
 0002:00003068       ??_C@_0BG@NNAKOPEK@get_script_line_count?$AA@ 00000001802ba068     sfc_debug:sfcdebug.obj
 0002:00003080       ??_C@_0BJ@GADAHKGG@temporal_threshold_error?$AA@ 00000001802ba080     sfc_debug:sfcdebug.obj
 0002:000030a0       ??_C@_0BK@KABIOMCC@transition_conflict_error?$AA@ 00000001802ba0a0     sfc_debug:sfcdebug.obj
 0002:000030c0       ??_C@_0BK@HLPANOPJ@state_inconsistency_error?$AA@ 00000001802ba0c0     sfc_debug:sfcdebug.obj
 0002:000030e0       ??_C@_0BA@PCEGODO@cycle_detection?$AA@ 00000001802ba0e0     sfc_debug:sfcdebug.obj
 0002:000030f0       ??_C@_0CP@HMOGACCG@Simulation?5stopped?5due?5to?5out?5of@ 00000001802ba0f0     sfc_debug:sfcdebug.obj
 0002:00003120       ??_C@_0BD@LFFFHIJG@array_bounds_error?$AA@ 00000001802ba120     sfc_debug:sfcdebug.obj
 0002:00003138       ??_C@_0O@IENBAMNA@runtime_error?$AA@ 00000001802ba138     sfc_debug:sfcdebug.obj
 0002:00003148       ??_C@_0CC@EDKHOOPE@Call?5to?5MATLAB?5function?5aborted?3@ 00000001802ba148     sfc_debug:sfcdebug.obj
 0002:00003170       ??_C@_0DJ@JBGHLJFL@Simulation?5stopped?5due?5to?5size?5m@ 00000001802ba170     sfc_debug:sfcdebug.obj
 0002:000031b0       ??_C@_0DJ@EAKPCDBG@Simulation?5stopped?5due?5to?5size?5m@ 00000001802ba1b0     sfc_debug:sfcdebug.obj
 0002:000031f0       ??_C@_0GD@BJCLDBKO@Simulation?5stopped?5due?5to?5size?5m@ 00000001802ba1f0     sfc_debug:sfcdebug.obj
 0002:00003260       ??_C@_0GJ@OHCOIONE@Simulation?5stopped?5due?5to?5size?5o@ 00000001802ba260     sfc_debug:sfcdebug.obj
 0002:000032d0       ??_C@_0DF@BOMHHCNB@Subscripted?5assignment?5dimension@ 00000001802ba2d0     sfc_debug:sfcdebug.obj
 0002:00003310       ??_C@_0NG@BOPFGKBO@Matrix?$CImatrix?$CJ?5subscript?5turned?5@ 00000001802ba310     sfc_debug:sfcdebug.obj
 0002:000033f0       ??_C@_0HE@FPEPCMDA@Matrix?$CImatrix?$CJ?5subscript?5turned?5@ 00000001802ba3f0     sfc_debug:sfcdebug.obj
 0002:00003470       ??_C@_0NG@MLJIHJIH@Vector?$CIvector?$CJ?5subscript?5turned?5@ 00000001802ba470     sfc_debug:sfcdebug.obj
 0002:00003550       ??_C@_0HE@BHPDCNDF@Vector?$CIvector?$CJ?5subscript?5turned?5@ 00000001802ba550     sfc_debug:sfcdebug.obj
 0002:000035c8       ??_C@_0P@FIEIFKHH@dataName?$CB?$DNNULL?$AA@ 00000001802ba5c8     sfc_debug:sfcdebug.obj
 0002:000035d8       ??_C@_0BC@JKFOPCCM@non_integer_error?$AA@ 00000001802ba5d8     sfc_debug:sfcdebug.obj
 0002:000035f0       ??_C@_09MMCAMPEC@nan_error?$AA@ 00000001802ba5f0     sfc_debug:sfcdebug.obj
 0002:00003600       ??_C@_0P@KGNBONIG@negative_error?$AA@ 00000001802ba600     sfc_debug:sfcdebug.obj
 0002:00003610       ??_C@_0DA@OEGHOJFO@Simulation?5stopped?5due?5to?5divide@ 00000001802ba610     sfc_debug:sfcdebug.obj
 0002:00003640       ??_C@_0P@DAGNNBKM@overflow_error?$AA@ 00000001802ba640     sfc_debug:sfcdebug.obj
 0002:00003650       ??_C@_0BF@IEPBJJM@divide_by_zero_error?$AA@ 00000001802ba650     sfc_debug:sfcdebug.obj
 0002:00003668       ??_C@_0BC@CNIFONOF@unsafe_enum_error?$AA@ 00000001802ba668     sfc_debug:sfcdebug.obj
 0002:00003680       ??_C@_0BA@GLGJGIFO@data_loss_error?$AA@ 00000001802ba680     sfc_debug:sfcdebug.obj
 0002:00003690       ??_C@_0BB@LFNCDKMF@data_range_error?$AA@ 00000001802ba690     sfc_debug:sfcdebug.obj
 0002:000036a8       __real@4059000000000000    00000001802ba6a8     sfc_debug:sfcdebug.obj
 0002:000036b0       ??_C@_0EL@LHLCBPON@objectType?$DN?$DNEVENT_OBJECT?5?$CG?$CG?5obje@ 00000001802ba6b0     sfc_debug:sfcdebug.obj
 0002:00003700       ??_C@_0CK@BGKNIJPH@Simulation?5stopped?5due?5to?5infini@ 00000001802ba700     sfc_debug:sfcdebug.obj
 0002:00003730       ??_C@_0EC@EKMLJIIP@strlen?$CItargetName?$CJ?$DMsizeof?$CIdebugI@ 00000001802ba730     sfc_debug:sfcdebug.obj
 0002:00003780       ??_C@_0EE@LPPEFNLK@strlen?$CImachineName?$CJ?$DMsizeof?$CIdebug@ 00000001802ba780     sfc_debug:sfcdebug.obj
 0002:000037c8       ??_C@_0P@NDNBPAGO@charts?9?$DOsize?$DO0?$AA@ 00000001802ba7c8     sfc_debug:sfcdebug.obj
 0002:000037d8       ??_C@_09DACGJFPO@terminate?$AA@ 00000001802ba7d8     sfc_debug:sfcdebug.obj
 0002:000037e8       ??_C@_0BH@BOIPOAMD@currentoptionalinteger?$AA@ 00000001802ba7e8     sfc_debug:sfc_api.obj
 0002:00003800       ??_C@_0BI@KDFLIHKN@currentstatementcontext?$AA@ 00000001802ba800     sfc_debug:sfc_api.obj
 0002:00003818       ??_C@_0BF@CJJCNHOP@currentstatementinfo?$AA@ 00000001802ba818     sfc_debug:sfc_api.obj
 0002:00003830       ??_C@_0BA@EEHAMBBL@currentcoverage?$AA@ 00000001802ba830     sfc_debug:sfc_api.obj
 0002:00003840       ??_C@_0BD@CPIGBEHM@currentmachinename?$AA@ 00000001802ba840     sfc_debug:sfc_api.obj
 0002:00003858       ??_C@_0BF@MPNFKHIK@currentmachinenumber?$AA@ 00000001802ba858     sfc_debug:sfc_api.obj
 0002:00003870       ??_C@_0BB@EAGFPGEG@currentmachineid?$AA@ 00000001802ba870     sfc_debug:sfc_api.obj
 0002:00003888       ??_C@_0P@LDEJFJKJ@simulationtime?$AA@ 00000001802ba888     sfc_debug:sfc_api.obj
 0002:00003898       ??_C@_0P@CKMPNBM@currenttagtype?$AA@ 00000001802ba898     sfc_debug:sfc_api.obj
 0002:000038a8       ??_C@_0BH@EMAALFDO@currentactiveeventtype?$AA@ 00000001802ba8a8     sfc_debug:sfc_api.obj
 0002:000038c0       ??_C@_0BF@BIDFPCPF@currentactiveeventid?$AA@ 00000001802ba8c0     sfc_debug:sfc_api.obj
 0002:000038d8       ??_C@_0BA@LAPNNELA@currentobjectid?$AA@ 00000001802ba8d8     sfc_debug:sfc_api.obj
 0002:000038e8       ??_C@_0BB@LLJHHKEI@currenteventtype?$AA@ 00000001802ba8e8     sfc_debug:sfc_api.obj
 0002:00003900       ??_C@_0BC@BDADCDEL@currentobjecttype?$AA@ 00000001802ba900     sfc_debug:sfc_api.obj
 0002:00003918       ??_C@_0BH@HDHFFKCN@currentisminortimestep?$AA@ 00000001802ba918     sfc_debug:sfc_api.obj
 0002:00003930       ??_C@_0BG@PKFJEKLL@currentinstancehandle?$AA@ 00000001802ba930     sfc_debug:sfc_api.obj
 0002:00003948       ??_C@_0BG@GJFHKFBJ@currentinstancenumber?$AA@ 00000001802ba948     sfc_debug:sfc_api.obj
 0002:00003960       ??_C@_0BD@DKAMMHEE@currentchartnumber?$AA@ 00000001802ba960     sfc_debug:sfc_api.obj
 0002:00003978       ??_C@_0P@EANFOHCD@currentchartid?$AA@ 00000001802ba978     sfc_debug:sfc_api.obj
 0002:00003988       ??_C@_0BC@CMFMGKCG@set_script_cv_ids?$AA@ 00000001802ba988     sfc_debug:sfc_api.obj
 0002:000039a0       ??_C@_0BE@ONNFKBAC@set_instance_cv_ids?$AA@ 00000001802ba9a0     sfc_debug:sfc_api.obj
 0002:000039b8       ??_C@_0BE@CDIKCKCD@get_instance_handle?$AA@ 00000001802ba9b8     sfc_debug:sfc_api.obj
 0002:000039d0       ??_C@_0BE@GPEMFILK@break_between_times?$AA@ 00000001802ba9d0     sfc_debug:sfc_api.obj
 0002:000039e8       ??_C@_0O@KGONFDDG@active_states?$AA@ 00000001802ba9e8     sfc_debug:sfc_api.obj
 0002:000039f8       ??_C@_0BC@LHALNGBC@state_consistency?$AA@ 00000001802ba9f8     sfc_debug:sfc_api.obj
 0002:00003a10       ??_C@_0BE@JNDELHDH@transition_conflict?$AA@ 00000001802baa10     sfc_debug:sfc_api.obj
 0002:00003a28       ??_C@_0L@ECJAFPAF@data_range?$AA@ 00000001802baa28     sfc_debug:sfc_api.obj
 0002:00003a38       ??_C@_0O@NAKDKJME@select_charts?$AA@ 00000001802baa38     sfc_debug:sfc_api.obj
 0002:00003a48       ??_C@_0N@KLDBDGD@select_chart?$AA@ 00000001802baa48     sfc_debug:sfc_api.obj
 0002:00003a58       ??_C@_0O@NJPMKBAC@set_animation?$AA@ 00000001802baa58     sfc_debug:sfc_api.obj
 0002:00003a68       ??_C@_0N@NLCAJHNH@get_coverage?$AA@ 00000001802baa68     sfc_debug:sfc_api.obj
 0002:00003a78       ??_C@_09FLOFKLFE@set_watch?$AA@ 00000001802baa78     sfc_debug:sfc_api.obj
 0002:00003a88       ??_C@_0O@ECMAEPOC@get_script_id?$AA@ 00000001802baa88     sfc_debug:sfc_api.obj
 0002:00003a98       ??_C@_0BJ@KFGPCNG@query_script_breakpoints?$AA@ 00000001802baa98     sfc_debug:sfc_api.obj
 0002:00003ab8       ??_C@_0BJ@CAAHLJNF@clear_script_breakpoints?$AA@ 00000001802baab8     sfc_debug:sfc_api.obj
 0002:00003ad8       ??_C@_0BH@BAILBHDP@add_script_breakpoints?$AA@ 00000001802baad8     sfc_debug:sfc_api.obj
 0002:00003af0       ??_C@_0BH@KAKDDELG@set_script_breakpoints?$AA@ 00000001802baaf0     sfc_debug:sfc_api.obj
 0002:00003b08       ??_C@_0BE@GAGDJPKA@set_eml_breakpoints?$AA@ 00000001802bab08     sfc_debug:sfc_api.obj
 0002:00003b20       ??_C@_0BA@NHOBHLLJ@set_breakpoints?$AA@ 00000001802bab20     sfc_debug:sfc_api.obj
 0002:00003b30       ??_C@_0BF@GOGOODJG@break_on_state_entry?$AA@ 00000001802bab30     sfc_debug:sfc_api.obj
 0002:00003b48       ??_C@_0BJ@FPOJDFBP@break_on_event_broadcast?$AA@ 00000001802bab48     sfc_debug:sfc_api.obj
 0002:00003b68       ??_C@_0BF@FJBBAFJ@break_on_chart_entry?$AA@ 00000001802bab68     sfc_debug:sfc_api.obj
 0002:00003b80       ??_C@_0N@MHHEHLAI@browse_trace?$AA@ 00000001802bab80     sfc_debug:sfc_api.obj
 0002:00003b90       ??_C@_0BB@JEAJMJMI@consistency_info?$AA@ 00000001802bab90     sfc_debug:sfc_api.obj
 0002:00003ba4       ??_C@_04MLCEENPJ@whos?$AA@ 00000001802baba4     sfc_debug:sfc_api.obj
 0002:00003bb0       ??_C@_0L@LNIDAIN@watch_data?$AA@ 00000001802babb0     sfc_debug:sfc_api.obj
 0002:00003bc0       ??_C@_0M@JEJMEFEG@browse_data?$AA@ 00000001802babc0     sfc_debug:sfc_api.obj
 0002:00003bcc       ??_C@_03HNAFFKGA@get?$AA@  00000001802babcc     sfc_debug:sfc_api.obj
 0002:00003bd0       ??_C@_05LBOHBHFK@close?$AA@ 00000001802babd0     sfc_debug:sfc_api.obj
 0002:00003bd8       ??_C@_0BM@ICDFOOIE@set_disable_all_breakpoints?$AA@ 00000001802babd8     sfc_debug:sfc_api.obj
 0002:00003bf8       ??_C@_0BP@IBIALPGH@disable_all_breakpoints_and_go?$AA@ 00000001802babf8     sfc_debug:sfc_api.obj
 0002:00003c18       ??_C@_0BJ@BOMFHJBD@is_array_bounds_detected?$AA@ 00000001802bac18     sfc_debug:sfc_api.obj
 0002:00003c38       ??_C@_0BC@LKOOEAAH@is_cycle_detected?$AA@ 00000001802bac38     sfc_debug:sfc_api.obj
 0002:00003c50       ??_C@_0P@NIBPNIDJ@stop_debugging?$AA@ 00000001802bac50     sfc_debug:sfc_api.obj
 0002:00003c60       ??_C@_05ELPHFHOI@break?$AA@ 00000001802bac60     sfc_debug:sfc_api.obj
 0002:00003c68       ??_C@_06PLELHCEK@resume?$AA@ 00000001802bac68     sfc_debug:sfc_api.obj
 0002:00003c70       ??_C@_08OKABEMKO@step_out?$AA@ 00000001802bac70     sfc_debug:sfc_api.obj
 0002:00003c80       ??_C@_09CDNMPCHO@step_over?$AA@ 00000001802bac80     sfc_debug:sfc_api.obj
 0002:00003c8c       ??_C@_02KPEDIMCA@go?$AA@   00000001802bac8c     sfc_debug:sfc_api.obj
 0002:00003c90       ??_C@_0P@MMCMIGPN@debugger_alive?$AA@ 00000001802bac90     sfc_debug:sfc_api.obj
 0002:00003ca0       ??_C@_0N@GHFBLJDM@machine_load?$AA@ 00000001802baca0     sfc_debug:sfc_api.obj
 0002:00003cb0       ??_C@_0O@GIBFCMLF@chart_visible?$AA@ 00000001802bacb0     sfc_debug:sfc_api.obj
 0002:000040c0       ??_C@_05JEMLEKKA@found?$AA@ 00000001802bb0c0     sfc_debug:sfc_api.obj
 0002:000040c8       ??_C@_09KFNMLIAN@sfc_api?4c?$AA@ 00000001802bb0c8     sfc_debug:sfc_api.obj
 0002:000040d8       ??_C@_0N@PFBMDOLG@sf_debug_api?$AA@ 00000001802bb0d8     sfc_debug:sfc_api.obj
 0002:000040e8       ??_C@_07KEAHHHLK@nrhs?$DN?$DN3?$AA@ 00000001802bb0e8     sfc_debug:sfc_api.obj
 0002:000040f0       ??_C@_0BC@HOOMKBNL@mxIsChar?$CIprhs?$FL0?$FN?$CJ?$AA@ 00000001802bb0f0     sfc_debug:sfc_api.obj
 0002:00004108       ??_C@_0BF@NGLAGMHA@mxIsNumeric?$CIprhs?$FL0?$FN?$CJ?$AA@ 00000001802bb108     sfc_debug:sfc_api.obj
 0002:00004120       ??_C@_07IEIELKNG@nrhs?$DO?$DN1?$AA@ 00000001802bb120     sfc_debug:sfc_api.obj
 0002:00004128       ??_C@_07LNBMEGPL@nrhs?$DN?$DN2?$AA@ 00000001802bb128     sfc_debug:sfc_api.obj
 0002:00004130       ??_C@_09HBMMCBIO@nrhs?5?$DN?$DN?51?$AA@ 00000001802bb130     sfc_debug:sfc_api.obj
 0002:00004140       ??_C@_09EMKMAIDO@nrhs?5?$DM?$DN?51?$AA@ 00000001802bb140     sfc_debug:sfc_api.obj
 0002:00004150       ??_C@_07OLEGOBHN@nrhs?$DN?$DN4?$AA@ 00000001802bb150     sfc_debug:sfc_api.obj
 0002:00004158       ??_C@_07PCFNNADM@nrhs?$DN?$DN5?$AA@ 00000001802bb158     sfc_debug:sfc_api.obj
 0002:00004160       ??_C@_07JGDBBFDI@nrhs?$DN?$DN1?$AA@ 00000001802bb160     sfc_debug:sfc_api.obj
 0002:00004168       ??_C@_07KBNAPCKL@nlhs?$DN?$DN1?$AA@ 00000001802bb168     sfc_debug:sfc_api.obj
 0002:00004170       ??_C@_08PAMHJLPB@statusOk?$AA@ 00000001802bb170     sfc_debug:sfc_api.obj
 0002:00004180       ??_C@_07NJHAIDPP@nrhs?$DN?$DN6?$AA@ 00000001802bb180     sfc_debug:sfc_api.obj
 0002:00004188       ??_C@_0L@EMNHGDGL@nlhs?$DN?$DNnrhs?$AA@ 00000001802bb188     sfc_debug:sfc_api.obj
 0002:00004198       ??_C@_0BP@PJLNOBEA@sf_debug_using_unified_editors?$AA@ 00000001802bb198     sfc_debug:sfdb_animation.obj
 0002:000041b8       ??_C@_0CE@EANGLCEA@sf_debug_unified_editor_has_diag@ 00000001802bb1b8     sfc_debug:sfdb_animation.obj
 0002:000041e0       ??_C@_0P@BLJCAHMG@select_objects?$AA@ 00000001802bb1e0     sfc_debug:sfdb_animation.obj
 0002:000041f0       ??_C@_06CFKBOPCI@states?$AA@ 00000001802bb1f0     sfc_debug:sfdb_animation.obj
 0002:000041f8       ??_C@_0P@KHIIFDEG@instanceHandle?$AA@ 00000001802bb1f8     sfc_debug:sfdb_animation.obj
 0002:00004208       ??_C@_0P@DEIGLMOE@instanceNumber?$AA@ 00000001802bb208     sfc_debug:sfdb_animation.obj
 0002:00004218       ??_C@_0N@HACOJJON@instanceName?$AA@ 00000001802bb218     sfc_debug:sfdb_animation.obj
 0002:00004228       ??_C@_0M@BFNIOHPP@chartNumber?$AA@ 00000001802bb228     sfc_debug:sfdb_animation.obj
 0002:00004238       ??_C@_07KGNNMFDL@chartId?$AA@ 00000001802bb238     sfc_debug:sfdb_animation.obj
 0002:00004240       ??_C@_09KMHJEGJ@chartName?$AA@ 00000001802bb240     sfc_debug:sfdb_animation.obj
 0002:0000424c       ??_C@_06OOECHJN@charts?$AA@ 00000001802bb24c     sfc_debug:sfdb_animation.obj
 0002:00004258       ??_C@_0O@LOMGGENK@machineNumber?$AA@ 00000001802bb258     sfc_debug:sfdb_animation.obj
 0002:00004268       ??_C@_09OOJCKABH@machineId?$AA@ 00000001802bb268     sfc_debug:sfdb_animation.obj
 0002:00004278       ??_C@_0M@OCOCCFP@machineName?$AA@ 00000001802bb278     sfc_debug:sfdb_animation.obj
 0002:00004288       ??_C@_0CN@CCJEMGOM@?$CIinstance?9?$DOsm?4statePack?$CJ?4length?$DO@ 00000001802bb288     sfc_debug:sfdb_animation.obj
 0002:000042b8       ??_C@_0DC@DKAJIDPA@?$CIinstance?9?$DOsm?4transitionPack?$CJ?4le@ 00000001802bb2b8     sfc_debug:sfdb_animation.obj
 0002:000042f0       ??_C@_0BB@EGGLBLCL@sfdb_animation?4c?$AA@ 00000001802bb2f0     sfc_debug:sfdb_animation.obj
 0002:00004308       ??_C@_0BB@GDGPIGLB@cv_model_enabled?$AA@ 00000001802bb308     sfc_debug:cv_sfinterface.obj
 0002:00004320       ??_C@_09DDDNMFIJ@get_param?$AA@ 00000001802bb320     sfc_debug:cv_sfinterface.obj
 0002:00004330       ??_C@_0L@BODNDPN@CoverageId?$AA@ 00000001802bb330     sfc_debug:cv_sfinterface.obj
 0002:0000433c       ??_C@_05IEGMLJMJ@exist?$AA@ 00000001802bb33c     sfc_debug:cv_sfinterface.obj
 0002:00004344       ??_C@_02DDEKINOE@cv?$AA@   00000001802bb344     sfc_debug:cv_sfinterface.obj
 0002:00004348       __real@4082c00000000000    00000001802bb348     sfc_debug:cv_sfinterface.obj
 0002:00004350       ??_C@_0O@HGNEKHDK@MatlabVersion?$AA@ 00000001802bb350     sfc_debug:cv_sfinterface.obj
 0002:00004360       ??_C@_0M@IIAIMKFO@status?5?$DN?$DN?50?$AA@ 00000001802bb360     sfc_debug:cv_sfinterface.obj
 0002:00004370       ??_C@_0BB@ENEMAMMG@cv_sfinterface?4c?$AA@ 00000001802bb370     sfc_debug:cv_sfinterface.obj
 0002:00004388       ??_C@_0CC@JMPFGLON@mxGetNumberOfElements?$CIplhs?$FL3?$FN?$CJ?$DN?$DN@ 00000001802bb388     sfc_debug:cv_sfinterface.obj
 0002:000043b0       ??_C@_0P@MCDOIOOF@plhs?$FL3?$FN?5?$CB?$DNNULL?$AA@ 00000001802bb3b0     sfc_debug:cv_sfinterface.obj
 0002:000043c0       ??_C@_0P@HAMLCBNF@len?$DM?$DNdataCount?$AA@ 00000001802bb3c0     sfc_debug:cv_sfinterface.obj
 0002:000043d0       ??_C@_0BA@FJOAHKLL@len?$DN?$DNtransCount?$AA@ 00000001802bb3d0     sfc_debug:cv_sfinterface.obj
 0002:000043e0       ??_C@_0BA@JELAJLGI@len?$DN?$DNstateCount?$AA@ 00000001802bb3e0     sfc_debug:cv_sfinterface.obj
 0002:000043f0       ??_C@_0BC@NEFBEIHN@InitChartInstance?$AA@ 00000001802bb3f0     sfc_debug:cv_sfinterface.obj
 0002:00004404       ??_C@_04MMALOABH@cvsf?$AA@ 00000001802bb404     sfc_debug:cv_sfinterface.obj
 0002:00004410       ??_C@_0L@GIEKKEHF@InitScript?$AA@ 00000001802bb410     sfc_debug:cv_sfinterface.obj
 0002:00004420       ??_C@_08DNDOONPK@sigrange?$AA@ 00000001802bb420     sfc_debug:cv_sfinterface.obj
 0002:00004430       ??_C@_0O@KGBGEHIN@MetricEnabled?$AA@ 00000001802bb430     sfc_debug:cv_sfinterface.obj
 0002:00004440       ??_C@_0BC@NKPEPJDJ@chart?9?$DOchartId?$CB?$DN0?$AA@ 00000001802bb440     sfc_debug:cv_sfinterface.obj
 0002:00004454       ??_C@_06LIBBAANI@len?$DN?$DN1?$AA@ 00000001802bb454     sfc_debug:sfdb_handle_management.obj
 0002:00004460       ??_C@_0BJ@IEEBKHME@sfdb_handle_management?4c?$AA@ 00000001802bb460     sfc_debug:sfdb_handle_management.obj
 0002:0000447c       ??_C@_06NCGDPKCC@handle?$AA@ 00000001802bb47c     sfc_debug:sfdb_handle_management.obj
 0002:00004488       ??_C@_0BP@NAIIDBEE@parentObjectType?$DN?$DNCHART_OBJECT?$AA@ 00000001802bb488     sfc_debug:sfdb_handle_management.obj
 0002:000044a8       ??_C@_0BD@JOOOIBOE@get_machine_option?$AA@ 00000001802bb4a8     sfc_debug:sfdb_handle_management.obj
 0002:000044c0       ??_C@_0P@KGLBOIAN@get_machine_id?$AA@ 00000001802bb4c0     sfc_debug:sfdb_handle_management.obj
 0002:000044d0       ??_C@_0N@OBHOGINE@get_chart_id?$AA@ 00000001802bb4d0     sfc_debug:sfdb_handle_management.obj
 0002:000044e0       ??_C@_0BD@DICPGEAM@register_sfunction?$AA@ 00000001802bb4e0     sfc_debug:sfdb_handle_management.obj
 0002:000044f8       ??_C@_0BK@FGANPGOL@get_chart_active_instance?$AA@ 00000001802bb4f8     sfc_debug:sfdb_handle_management.obj
 0002:00004518       ??_C@_0BF@FENDCECP@get_chart_visibility?$AA@ 00000001802bb518     sfc_debug:sfdb_handle_management.obj
 0002:00004530       ??_C@_0BM@FDGIEMLG@objectProperties?9?$DOlength?$DN?$DN0?$AA@ 00000001802bb530     sfc_debug:sfdb_handle_management.obj
 0002:00004550       ??_C@_0CE@KBPIEDGG@?$CI?$CI?$CKobjectProperties?$CJ?$CJ?4length?$DOnum@ 00000001802bb550     sfc_debug:sfdb_handle_management.obj
 0002:00004578       ??_C@_0CA@HFGDFECP@len?5?$DN?$DN?5objectProperties?9?$DOlength?$AA@ 00000001802bb578     sfc_debug:sfdb_handle_management.obj
 0002:00004598       ??_C@_0P@BHPLCHGJ@get_object_ids?$AA@ 00000001802bb598     sfc_debug:sfdb_handle_management.obj
 0002:000045a8       ??_C@_0BK@IFFOLHLE@objectProperties?9?$DOsize?$DN?$DN0?$AA@ 00000001802bb5a8     sfc_debug:sfdb_handle_management.obj
 0002:000045c8       ??_C@_0BO@GFLPGHHM@len?5?$DO?$DN?5objectProperties?9?$DOsize?$AA@ 00000001802bb5c8     sfc_debug:sfdb_handle_management.obj
 0002:000045e8       ??_C@_05GFHEIIDD@event?$AA@ 00000001802bb5e8     sfc_debug:sfdb_handle_management.obj
 0002:000045f0       ??_C@_0M@BFOKCNLA@debug?4watch?$AA@ 00000001802bb5f0     sfc_debug:sfdb_handle_management.obj
 0002:000045fc       ??_C@_04PJOLNDGD@data?$AA@ 00000001802bb5fc     sfc_debug:sfdb_handle_management.obj
 0002:00004604       ??_C@_02EGCJHIOB@id?$AA@   00000001802bb604     sfc_debug:sfdb_handle_management.obj
 0002:00004608       ??_C@_0CE@OILCPIFA@machine?4debug?4disableAllBreakpoi@ 00000001802bb608     sfc_debug:sfdb_handle_management.obj
 0002:00004630       ??_C@_0DA@JMDEGBBH@machine?4debug?4runTimeCheck?4state@ 00000001802bb630     sfc_debug:sfdb_handle_management.obj
 0002:00004660       ??_C@_0CP@IPHIMGFA@machine?4debug?4runTimeCheck?4trans@ 00000001802bb660     sfc_debug:sfdb_handle_management.obj
 0002:00004690       ??_C@_0CL@LENOAAKD@machine?4debug?4runTimeCheck?4dataR@ 00000001802bb690     sfc_debug:sfdb_handle_management.obj
 0002:000046c0       ??_C@_0CK@MBMAMLGE@machine?4debug?4runTimeCheck?4cycle@ 00000001802bb6c0     sfc_debug:sfdb_handle_management.obj
 0002:000046f0       ??_C@_0CA@EGLALCO@machine?4debug?4animation?4enabled?$AA@ 00000001802bb6f0     sfc_debug:sfdb_handle_management.obj
 0002:00004710       ??_C@_0L@KGLELNDP@transition?$AA@ 00000001802bb710     sfc_debug:sfdb_handle_management.obj
 0002:0000471c       ??_C@_06JKPEPHBG@dst?4id?$AA@ 00000001802bb71c     sfc_debug:sfdb_handle_management.obj
 0002:00004724       ??_C@_05HDBKIDE@state?$AA@ 00000001802bb724     sfc_debug:sfdb_handle_management.obj
 0002:00004730       ??_C@_0EG@MFIKDIJB@strlen?$CImachineName?$CJ?5?$DM?5sizeof?$CIdeb@ 00000001802bb730     sfc_debug:sfdb_handle_management.obj
 0002:00004778       ??_C@_02GMHACPFF@?$CFu?$AA@ 00000001802bb778     sfc_debug:sfdb_data_browse.obj
 0002:0000477c       ??_C@_02NJPGOMH@?$CFf?$AA@ 00000001802bb77c     sfc_debug:sfdb_data_browse.obj
 0002:00004780       ??_C@_0BD@PCGIEHBF@sfdb_data_browse?4c?$AA@ 00000001802bb780     sfc_debug:sfdb_data_browse.obj
 0002:00004798       __real@c2a2309ce53fffcd    00000001802bb798     sfc_debug:sfdb_data_browse.obj
 0002:000047a0       ??_C@_0CK@JKBFHDPL@result?5?$DN?5mxCreateDoubleMatrix?$CI1?0@ 00000001802bb7a0     sfc_debug:sfdb_data_browse.obj
 0002:000047d0       ??_C@_0DK@FJDNFCNK@result?5?$DN?5mxCreateDoubleMatrix?$CI1?0@ 00000001802bb7d0     sfc_debug:sfdb_data_browse.obj
 0002:00004810       ??_C@_0DL@OAKPHGJG@result?5?$DN?5mxCreateDoubleMatrix?$CI1?0@ 00000001802bb810     sfc_debug:sfdb_data_browse.obj
 0002:00004850       ??_C@_0N@MNGHGLAH@isFixedPoint?$AA@ 00000001802bb850     sfc_debug:sfdb_data_browse.obj
 0002:00004860       ??_C@_06DLEPGFEF@format?$AA@ 00000001802bb860     sfc_debug:sfdb_data_browse.obj
 0002:00004868       ??_C@_05MFEJDJP@value?$AA@ 00000001802bb868     sfc_debug:sfdb_data_browse.obj
 0002:00004870       ??_C@_05DCCHDMEJ@scope?$AA@ 00000001802bb870     sfc_debug:sfdb_data_browse.obj
 0002:00004878       ??_C@_0BM@DEONCIBN@stackPtr?5?$DN?$DN?5symScope?9?$DOstack?$AA@ 00000001802bb878     sfc_debug:sfdb_symbol_scope.obj
 0002:00004898       ??_C@_0BE@PIKAOBFK@sfdb_symbol_scope?4c?$AA@ 00000001802bb898     sfc_debug:sfdb_symbol_scope.obj
 0002:000048b0       ??_C@_0BP@MJGDIBPE@symScope?9?$DOcurrentScope?5?$CB?$DN?5NULL?$AA@ 00000001802bb8b0     sfc_debug:sfdb_symbol_scope.obj
 0002:000048d0       ??_C@_0BP@OCHHKFJA@symScope?9?$DOcurrentScope?5?$DN?$DN?5NULL?$AA@ 00000001802bb8d0     sfc_debug:sfdb_symbol_scope.obj
 0002:000048f0       ??_C@_0BM@KCIKANPA@symScope?9?$DOstack?5?$DN?$DN?5stackPtr?$AA@ 00000001802bb8f0     sfc_debug:sfdb_symbol_scope.obj
 0002:00004910       ??_C@_0DK@NCABFGD@symScope?9?$DOcurrentScope?5?$CB?$DN?5NULL?5?$CG@ 00000001802bb910     sfc_debug:sfdb_symbol_scope.obj
 0002:00004950       ??_C@_0DL@LDAGNOEE@currScope?9?$DOsymbolTable?4count?5?$DM?5c@ 00000001802bb950     sfc_debug:sfdb_symbol_scope.obj
 0002:00004990       ??_C@_0BK@PHCKFGOO@numDims?5?$DM?$DN?5MAX_DIMENSIONS?$AA@ 00000001802bb990     sfc_debug:sfdb_symbol_scope.obj
 0002:000049b0       ??_C@_0EE@CLCFNFKP@Warning?3?5Can?8t?5display?5value?4?5Nu@ 00000001802bb9b0     sfc_debug:sfdb_symbol_scope.obj
 0002:000049f8       ??_C@_0BB@NPDHFBEP@valuePtr?5?$CB?$DN?5NULL?$AA@ 00000001802bb9f8     sfc_debug:sfdb_symbol_scope.obj
 0002:00004a10       ??_C@_0O@CHHKIHJE@chart?5?$CB?$DN?5NULL?$AA@ 00000001802bba10     sfc_debug:sfdb_symbol_scope.obj
 0002:00004a20       ??_C@_0CB@PFGINMAC@dataInfo?5?$CG?$CG?5data?5?$CG?$CG?5st?5?$CG?$CG?5i?5?$DO?$DN?50@ 00000001802bba20     sfc_debug:sfdb_symbol_scope.obj
 0002:00004a44       ??_C@_02PINLEBJB@fi?$AA@   00000001802bba44     sfc_debug:sfdb_symbol_scope.obj
 0002:00004a48       ??_C@_06FDANFAAP@sim2fi?$AA@ 00000001802bba48     sfc_debug:sfdb_symbol_scope.obj
 0002:00004a50       ??_C@_0BF@KFJKGDMO@Unrecognized?5symbol?4?$AA@ 00000001802bba50     sfc_debug:sfdb_symbol_scope.obj
 0002:00004a68       ??_C@_0L@INJGJGAM@?5?$CIcomplex?$CJ?$AA@ 00000001802bba68     sfc_debug:sfdb_symbol_scope.obj
 0002:00004a78       ??_C@_0O@MHGLJPE@fixpt?5?$CI?$CFs?5?$CFs?$CJ?$AA@ 00000001802bba78     sfc_debug:sfdb_symbol_scope.obj
 0002:00004a88       ??_C@_08FFKICJMO@?$CFs?$CL?$CF?416g?$AA@ 00000001802bba88     sfc_debug:sfdb_symbol_scope.obj
 0002:00004a94       ??_C@_02EPPPECEI@SI?$AA@   00000001802bba94     sfc_debug:sfdb_symbol_scope.obj
 0002:00004a98       ??_C@_09LKFGHFHF@?$CFs?$CI2?$FO?$CFd?$CJ?$CK?$AA@ 00000001802bba98     sfc_debug:sfdb_symbol_scope.obj
 0002:00004aa4       ??_C@_06KJECHFDK@?$CF?416g?$CK?$AA@ 00000001802bbaa4     sfc_debug:sfdb_symbol_scope.obj
 0002:00004aac       ??_C@_02IJPJFKDF@ml?$AA@   00000001802bbaac     sfc_debug:sfdb_symbol_scope.obj
 0002:00004ab0       ??_C@_0O@NJOJHIHO@logical?5array?$AA@ 00000001802bbab0     sfc_debug:sfdb_symbol_scope.obj
 0002:00004ac0       ??_C@_0L@MDMKKENH@char?5array?$AA@ 00000001802bbac0     sfc_debug:sfdb_symbol_scope.obj
 0002:00004ad0       ??_C@_0N@DGCGENML@uint32?5array?$AA@ 00000001802bbad0     sfc_debug:sfdb_symbol_scope.obj
 0002:00004ae0       ??_C@_0M@OFFMACLB@int32?5array?$AA@ 00000001802bbae0     sfc_debug:sfdb_symbol_scope.obj
 0002:00004af0       ??_C@_0N@JMJKGLLH@uint16?5array?$AA@ 00000001802bbaf0     sfc_debug:sfdb_symbol_scope.obj
 0002:00004b00       ??_C@_0M@EPOACEMN@int16?5array?$AA@ 00000001802bbb00     sfc_debug:sfdb_symbol_scope.obj
 0002:00004b10       ??_C@_0M@NOMKNEGI@uint8?5array?$AA@ 00000001802bbb10     sfc_debug:sfdb_symbol_scope.obj
 0002:00004b20       ??_C@_0L@HCHBFFAP@int8?5array?$AA@ 00000001802bbb20     sfc_debug:sfdb_symbol_scope.obj
 0002:00004b30       ??_C@_0N@KIFCNMIF@single?5array?$AA@ 00000001802bbb30     sfc_debug:sfdb_symbol_scope.obj
 0002:00004b40       ??_C@_0N@OFOFFBCM@double?5array?$AA@ 00000001802bbb40     sfc_debug:sfdb_symbol_scope.obj
 0002:00004b50       ??_C@_04BIAHPGJI@?$CFdx1?$AA@ 00000001802bbb50     sfc_debug:sfdb_symbol_scope.obj
 0002:00004b58       ??_C@_04CADIJHHA@?$CFd?9D?$AA@ 00000001802bbb58     sfc_debug:sfdb_symbol_scope.obj
 0002:00004b60       ??_C@_05JIPKJPMI@?$CFs?$CFdx?$AA@ 00000001802bbb60     sfc_debug:sfdb_symbol_scope.obj
 0002:00004b68       ??_C@_07CIFAGBMG@unknown?$AA@ 00000001802bbb68     sfc_debug:sfdb_symbol_scope.obj
 0002:00004b70       ??_C@_05ENKANFLO@class?$AA@ 00000001802bbb70     sfc_debug:sfdb_symbol_scope.obj
 0002:00004b78       ??_C@_05FBJAGGIG@bytes?$AA@ 00000001802bbb78     sfc_debug:sfdb_symbol_scope.obj
 0002:00004b80       ??_C@_04MEMAJGDJ@name?$AA@ 00000001802bbb80     sfc_debug:sfdb_symbol_scope.obj
 0002:00004b88       ??_C@_0CF@NELOECCL@coverageVector?9?$DOlength?$DOcoverageI@ 00000001802bbb88     sfc_debug:sfdb_coverage.obj
 0002:00004bb0       ??_C@_0BA@CBMBNBFB@sfdb_coverage?4c?$AA@ 00000001802bbbb0     sfc_debug:sfdb_coverage.obj
 0002:00004bc0       ??_C@_0BF@FHBODGMA@transitionActionData?$AA@ 00000001802bbbc0     sfc_debug:sfdb_coverage.obj
 0002:00004bd8       ??_C@_0BE@FOEHFHL@conditionActionData?$AA@ 00000001802bbbd8     sfc_debug:sfdb_coverage.obj
 0002:00004bf0       ??_C@_09GAFONGPE@guardData?$AA@ 00000001802bbbf0     sfc_debug:sfdb_coverage.obj
 0002:00004c00       ??_C@_0M@FEGFDJFB@triggerData?$AA@ 00000001802bbc00     sfc_debug:sfdb_coverage.obj
 0002:00004c10       ??_C@_0BE@DDIOFNHN@endTransitionAction?$AA@ 00000001802bbc10     sfc_debug:sfdb_coverage.obj
 0002:00004c28       ??_C@_0BD@BICKLGDM@endConditionAction?$AA@ 00000001802bbc28     sfc_debug:sfdb_coverage.obj
 0002:00004c40       ??_C@_08EDILCCFF@endGuard?$AA@ 00000001802bbc40     sfc_debug:sfdb_coverage.obj
 0002:00004c50       ??_C@_0L@CAMMIEPG@endTrigger?$AA@ 00000001802bbc50     sfc_debug:sfdb_coverage.obj
 0002:00004c60       ??_C@_0BG@OPNNMDEH@startTransitionAction?$AA@ 00000001802bbc60     sfc_debug:sfdb_coverage.obj
 0002:00004c78       ??_C@_0BF@JNLJEDBC@startConditionAction?$AA@ 00000001802bbc78     sfc_debug:sfdb_coverage.obj
 0002:00004c90       ??_C@_0L@EHEBHPKB@startGuard?$AA@ 00000001802bbc90     sfc_debug:sfdb_coverage.obj
 0002:00004ca0       ??_C@_0N@EFMGIJMM@startTrigger?$AA@ 00000001802bbca0     sfc_debug:sfdb_coverage.obj
 0002:00004cb0       ??_C@_07HIPHOHKK@endExit?$AA@ 00000001802bbcb0     sfc_debug:sfdb_coverage.obj
 0002:00004cb8       ??_C@_09KNNJHBLO@endDuring?$AA@ 00000001802bbcb8     sfc_debug:sfdb_coverage.obj
 0002:00004cc8       ??_C@_08IBNIOOHM@endEntry?$AA@ 00000001802bbcc8     sfc_debug:sfdb_coverage.obj
 0002:00004cd8       ??_C@_09GJIMAGCM@startExit?$AA@ 00000001802bbcd8     sfc_debug:sfdb_coverage.obj
 0002:00004ce8       ??_C@_0M@BHANINOG@startDuring?$AA@ 00000001802bbce8     sfc_debug:sfdb_coverage.obj
 0002:00004cf8       ??_C@_0L@IFBCLDII@startEntry?$AA@ 00000001802bbcf8     sfc_debug:sfdb_coverage.obj
 0002:00004d08       ??_C@_08PPNNBHPL@exitData?$AA@ 00000001802bbd08     sfc_debug:sfdb_coverage.obj
 0002:00004d18       ??_C@_0L@LKGLEJGJ@duringData?$AA@ 00000001802bbd18     sfc_debug:sfdb_coverage.obj
 0002:00004d28       ??_C@_09MBCNPEGP@entryData?$AA@ 00000001802bbd28     sfc_debug:sfdb_coverage.obj
 0002:00004d38       ??_C@_09BJOJOOIO@instances?$AA@ 00000001802bbd38     sfc_debug:sfdb_coverage.obj
 0002:00004d48       ??_C@_0M@LCNCLDLF@transitions?$AA@ 00000001802bbd48     sfc_debug:sfdb_coverage.obj
 0002:00004d58       ??_C@_0DN@FAEHHEAM@?$CIscript?9?$DObm?4breakpoints?$CJ?4length?$DO@ 00000001802bbd58     sfc_debug:sfdb_breakpoints.obj
 0002:00004d98       ??_C@_0BD@BABBLJFB@sfdb_breakpoints?4c?$AA@ 00000001802bbd98     sfc_debug:sfdb_breakpoints.obj
 0002:00004db0       ??_C@_0P@IGHKOFID@get_script_bps?$AA@ 00000001802bbdb0     sfc_debug:sfdb_breakpoints.obj
 0002:00004dc0       ??_C@_0BA@ICOJJJDD@get_all_scripts?$AA@ 00000001802bbdc0     sfc_debug:sfdb_breakpoints.obj
 0002:00004dd0       ??_C@_0EI@EDDFBGGP@?$CIunsigned?5int?$CJ?$CImxGetM?$CIplhs?$FL0?$FN?$CJ?5?$CK@ 00000001802bbdd0     sfc_debug:sfdb_breakpoints.obj
 0002:00004e18       ??_C@_0BE@PNADEEOB@get_eml_line_counts?$AA@ 00000001802bbe18     sfc_debug:sfdb_breakpoints.obj
 0002:00004e30       ??_C@_0CC@JPCLBDPC@mxGetNumberOfElements?$CIplhs?$FL0?$FN?$CJ?$DN?$DN@ 00000001802bbe30     sfc_debug:sfdb_breakpoints.obj
 0002:00004e58       ??_C@_0P@EHJHKHLL@get_global_bps?$AA@ 00000001802bbe58     sfc_debug:sfdb_breakpoints.obj
 0002:00004e68       ??_C@_0CE@NADCJCF@?$CIchart?9?$DObm?4chart?$FLtagType?$FN?$CJ?4lengt@ 00000001802bbe68     sfc_debug:sfdb_breakpoints.obj
 0002:00004e90       ??_C@_0CP@JOFCMAIP@?$CIchart?9?$DObm?4state?$FLtagType?$FN?$CJ?4lengt@ 00000001802bbe90     sfc_debug:sfdb_breakpoints.obj
 0002:00004ec0       ??_C@_0DE@GNPGALGC@?$CIchart?9?$DObm?4transition?$FLtagType?$FN?$CJ?4@ 00000001802bbec0     sfc_debug:sfdb_breakpoints.obj
 0002:00004ef8       ??_C@_0DB@PCFIPMMH@?$CImachine?9?$DObm?4event?$FLtagType?$FN?$CJ?4len@ 00000001802bbef8     sfc_debug:sfdb_breakpoints.obj
 0002:00004f30       ??_C@_0CP@FENPPAOI@?$CIchart?9?$DObm?4event?$FLtagType?$FN?$CJ?4lengt@ 00000001802bbf30     sfc_debug:sfdb_breakpoints.obj
 0002:00004f60       ??_C@_0CH@EKAIFOIL@numCols?5?$DN?$DN?5TOTAL_EVENT_BREAKPOIN@ 00000001802bbf60     sfc_debug:sfdb_breakpoints.obj
 0002:00004f88       ??_C@_0CA@BECONEOF@numRows?5?$DN?$DN?5machine?9?$DOevent?4count?$AA@ 00000001802bbf88     sfc_debug:sfdb_breakpoints.obj
 0002:00004fa8       ??_C@_07HCEBIAFG@get_bps?$AA@ 00000001802bbfa8     sfc_debug:sfdb_breakpoints.obj
 0002:00004fb0       ??_C@_0BI@LFGGAIIJ@?$CIbps?$CJ?4length?$DObreakPoint?$AA@ 00000001802bbfb0     sfc_debug:sfdb_breakpoints.obj
 0002:00004fc8       ??_C@_0N@CNOINHPD@numCols?5?$DN?$DN?51?$AA@ 00000001802bbfc8     sfc_debug:sfdb_breakpoints.obj
 0002:00004fd8       ??_C@_0M@NNPJEEAE@get_eml_bps?$AA@ 00000001802bbfd8     sfc_debug:sfdb_breakpoints.obj
 0002:00004fe8       ??_C@_0BO@CDPAPHEM@numRows?5?$DN?$DN?5chart?9?$DOevent?4count?$AA@ 00000001802bbfe8     sfc_debug:sfdb_breakpoints.obj
 0002:00005008       ??_C@_0CM@FFJFHNEO@numCols?5?$DN?$DN?5TOTAL_TRANSITION_BREA@ 00000001802bc008     sfc_debug:sfdb_breakpoints.obj
 0002:00005038       ??_C@_0CD@IOIMPEBN@numRows?5?$DN?$DN?5chart?9?$DOtransition?4cou@ 00000001802bc038     sfc_debug:sfdb_breakpoints.obj
 0002:00005060       ??_C@_0CH@JEIBGOOJ@numCols?5?$DN?$DN?5TOTAL_STATE_BREAKPOIN@ 00000001802bc060     sfc_debug:sfdb_breakpoints.obj
 0002:00005088       ??_C@_0BO@BIKNFPLB@numRows?5?$DN?$DN?5chart?9?$DOstate?4count?$AA@ 00000001802bc088     sfc_debug:sfdb_breakpoints.obj
 0002:000050a8       ??_C@_0CH@BNLENKGD@numCols?5?$DN?$DN?5TOTAL_CHART_BREAKPOIN@ 00000001802bc0a8     sfc_debug:sfdb_breakpoints.obj
 0002:000050d0       ??_C@_0N@MEFFBAFI@numRows?5?$DN?$DN?51?$AA@ 00000001802bc0d0     sfc_debug:sfdb_breakpoints.obj
 0002:000050e0       ??_C@_0BJ@BLHBHILO@sfdb_state_consistency?4c?$AA@ 00000001802bc0e0     sfc_debug:sfdb_state_consistency.obj
 0002:00005100       ??_C@_09LHFAMEGK@errorType?$AA@ 00000001802bc100     sfc_debug:sfdb_state_consistency.obj
 0002:00005110       ??_C@_08DLAIKNBK@objectId?$AA@ 00000001802bc110     sfc_debug:sfdb_state_consistency.obj
 0002:00005120       ??_C@_0L@GODCDFEF@objectType?$AA@ 00000001802bc120     sfc_debug:sfdb_state_consistency.obj
 0002:00005130       ??_C@_0L@CCGENCKP@errorStack?$AA@ 00000001802bc130     sfc_debug:sfdb_state_consistency.obj
 0002:00005140       ??_C@_0O@PPHMCEKO@cycleDetected?$AA@ 00000001802bc140     sfc_debug:sfdb_call_stack.obj
 0002:00005150       ??_C@_0N@MGKMJLEK@cycleStarted?$AA@ 00000001802bc150     sfc_debug:sfdb_call_stack.obj
 0002:00005160       ??_C@_07BNCILGOA@tagType?$AA@ 00000001802bc160     sfc_debug:sfdb_call_stack.obj
 0002:00005168       ??_C@_0L@POKIGEMP@eventScope?$AA@ 00000001802bc168     sfc_debug:sfdb_call_stack.obj
 0002:00005178       ??_C@_0M@LKJJPLIC@traceVector?$AA@ 00000001802bc178     sfc_debug:sfdb_call_stack.obj
 0002:00005190       ??_C@_0EC@MGCLADPL@?$CIinstance?9?$DOcycleDetection?4transi@ 00000001802bc190     sfc_debug:sfdb_cycle_detection.obj
 0002:000051d8       ??_C@_0BH@ELCAAKDD@sfdb_cycle_detection?4c?$AA@ 00000001802bc1d8     sfc_debug:sfdb_cycle_detection.obj
 0002:000051f0       ??_C@_0O@PICIAFIK@newNode?$CB?$DNNULL?$AA@ 00000001802bc1f0     sfc_debug:sfdb_cycle_detection.obj
 0002:00005200       _pDefaultRawDllMain        00000001802bc200     MSVCRT:crtdll.obj
 0002:00005200       _pRawDllMain               00000001802bc200     MSVCRT:crtdll.obj
 0002:00005218       ?ProcessDetach@NativeDll@<CrtImplementationDetails>@@0IB 00000001802bc218     MSVCRT:tncleanup.obj
 0002:0000521c       ?ProcessAttach@NativeDll@<CrtImplementationDetails>@@0IB 00000001802bc21c     MSVCRT:tncleanup.obj
 0002:00005220       ?ThreadAttach@NativeDll@<CrtImplementationDetails>@@0IB 00000001802bc220     MSVCRT:tncleanup.obj
 0002:00005224       ?ThreadDetach@NativeDll@<CrtImplementationDetails>@@0IB 00000001802bc224     MSVCRT:tncleanup.obj
 0002:00005228       ?ProcessVerifier@NativeDll@<CrtImplementationDetails>@@0IB 00000001802bc228     MSVCRT:tncleanup.obj
 0002:00005230       __rtc_iaa                  00000001802bc230     MSVCRT:_initsect_.obj
 0002:00005238       __rtc_izz                  00000001802bc238     MSVCRT:_initsect_.obj
 0002:00005240       __rtc_taa                  00000001802bc240     MSVCRT:_initsect_.obj
 0002:00005248       __rtc_tzz                  00000001802bc248     MSVCRT:_initsect_.obj
 0002:0000b674       __IMPORT_DESCRIPTOR_libmx  00000001802c2674     libmx:libmx.dll
 0002:0000b688       __IMPORT_DESCRIPTOR_libmex 00000001802c2688     libmex:libmex.dll
 0002:0000b69c       __IMPORT_DESCRIPTOR_libfixedpoint 00000001802c269c     libfixedpoint:libfixedpoint.dll
 0002:0000b6b0       __IMPORT_DESCRIPTOR_libut  00000001802c26b0     libut:libut.dll
 0002:0000b6c4       __IMPORT_DESCRIPTOR_libmwmathutil 00000001802c26c4     libmwmathutil:libmwmathutil.dll
 0002:0000b6d8       __IMPORT_DESCRIPTOR_libemlrt 00000001802c26d8     libemlrt:libemlrt.dll
 0002:0000b6ec       __IMPORT_DESCRIPTOR_libmwblascompat32 00000001802c26ec     libmwblascompat32:libmwblascompat32.dll
 0002:0000b700       __IMPORT_DESCRIPTOR_MSVCR90 00000001802c2700     MSVCRT:MSVCR90.dll
 0002:0000b714       __IMPORT_DESCRIPTOR_KERNEL32 00000001802c2714     kernel32:KERNEL32.dll
 0002:0000b728       __NULL_IMPORT_DESCRIPTOR   00000001802c2728     libmx:libmx.dll
 0003:00064850       DYNAMIC_DIMENSION          0000000180328850     DynJointVerify_sfun_registry.obj
 0003:00065520       emlrtContextGlobal         0000000180329520     sfc_mex:sfc_mex.obj
 0003:000655b0       _fltused                   00000001803295b0     MSVCRT:dllsupp.obj
 0003:000655b8       __security_cookie          00000001803295b8     MSVCRT:gs_cookie.obj
 0003:000655c0       __security_cookie_complement 00000001803295c0     MSVCRT:gs_cookie.obj
 0003:000655d0       __native_dllmain_reason    00000001803295d0     MSVCRT:natstart.obj
 0003:000655d4       __native_vcclrit_reason    00000001803295d4     MSVCRT:natstart.obj
 0003:00066ee0       sSFDebuggerInitialized     000000018032aee0     sfc_debug:sfcdebug.obj
 0003:00067f90       ?__type_info_root_node@@3U__type_info_node@@A 000000018032bf90     MSVCRT:tncleanup.obj
 0003:00067fa0       _DynJointVerifyMachineNumber_ 000000018032bfa0     <common>
 0003:00067fa8       _sfTime_                   000000018032bfa8     <common>
 0003:00067fb0       _sfEvent_                  000000018032bfb0     <common>
 0003:00067fc0       gSfComplexDataTypeOffsets  000000018032bfc0     <common>
 0003:00068020       gSfDataTypeOffsets         000000018032c020     <common>
 0003:00068068       gMaskBits                  000000018032c068     <common>
 0003:00068070       __native_startup_state     000000018032c070     <common>
 0003:00068078       __native_startup_lock      000000018032c078     <common>
 0003:00068080       __onexitend                000000018032c080     <common>
 0003:00068088       __onexitbegin              000000018032c088     <common>
 0003:00068090       __dyn_tls_init_callback    000000018032c090     <common>

 entry point at        0001:002b50a0

 Static symbols

 0001:000003b0       c1_info_helper             00000001800013b0 f   c1_DynJointVerify.obj
 0001:000021d0       c1_b_info_helper           00000001800031d0 f   c1_DynJointVerify.obj
 0001:00003b00       mdlProcessParameters_c1_DynJointVerify 0000000180004b00 f   c1_DynJointVerify.obj
 0001:00003bc0       initialize_params_c1_DynJointVerify 0000000180004bc0 f   c1_DynJointVerify.obj
 0001:00003cb0       mdlSetWorkWidths_c1_DynJointVerify 0000000180004cb0 f   c1_DynJointVerify.obj
 0001:00004170       mdlStart_c1_DynJointVerify 0000000180005170 f   c1_DynJointVerify.obj
 0001:00004380       init_dsm_address_info      0000000180005380 f   c1_DynJointVerify.obj
 0001:00004390       sf_get_sim_state_info_c1_DynJointVerify 0000000180005390 f   c1_DynJointVerify.obj
 0001:00004450       chart_debug_initialization 0000000180005450 f   c1_DynJointVerify.obj
 0001:000050f0       init_script_number_translation 00000001800060f0 f   c1_DynJointVerify.obj
 0001:000051a0       c1_sf_marshall             00000001800061a0 f   c1_DynJointVerify.obj
 0001:000052e0       c1_b_sf_marshall           00000001800062e0 f   c1_DynJointVerify.obj
 0001:00005420       c1_c_sf_marshall           0000000180006420 f   c1_DynJointVerify.obj
 0001:00005550       sf_opaque_initialize_c1_DynJointVerify 0000000180006550 f   c1_DynJointVerify.obj
 0001:00005590       initialize_c1_DynJointVerify 0000000180006590 f   c1_DynJointVerify.obj
 0001:000055d0       sf_opaque_enable_c1_DynJointVerify 00000001800065d0 f   c1_DynJointVerify.obj
 0001:000055f0       enable_c1_DynJointVerify   00000001800065f0 f   c1_DynJointVerify.obj
 0001:00005620       sf_opaque_disable_c1_DynJointVerify 0000000180006620 f   c1_DynJointVerify.obj
 0001:00005640       disable_c1_DynJointVerify  0000000180006640 f   c1_DynJointVerify.obj
 0001:00005670       sf_opaque_gateway_c1_DynJointVerify 0000000180006670 f   c1_DynJointVerify.obj
 0001:00005690       sf_c1_DynJointVerify       0000000180006690 f   c1_DynJointVerify.obj
 0001:00005960       c1_c1_DynJointVerify       0000000180006960 f   c1_DynJointVerify.obj
 0001:000077c0       c1_fwd_kin                 00000001800087c0 f   c1_DynJointVerify.obj
 0001:0000b1d0       c1_body_Jacobian           000000018000c1d0 f   c1_DynJointVerify.obj
 0001:0000e6c0       c1_AdjointInv              000000018000f6c0 f   c1_DynJointVerify.obj
 0001:0000f940       c1_eml_scalar_eg           0000000180010940 f   c1_DynJointVerify.obj
 0001:0000f950       c1_eml_matlab_zgetrf       0000000180010950 f   c1_DynJointVerify.obj
 0001:000107a0       c1_eps                     00000001800117a0 f   c1_DynJointVerify.obj
 0001:000107b0       c1_eml_ixamax              00000001800117b0 f   c1_DynJointVerify.obj
 0001:000108c0       c1_ceval_ixamax            00000001800118c0 f   c1_DynJointVerify.obj
 0001:00010990       c1_ceval_xswap             0000000180011990 f   c1_DynJointVerify.obj
 0001:00010b40       c1_ceval_xger              0000000180011b40 f   c1_DynJointVerify.obj
 0001:00010de0       c1_eml_warning             0000000180011de0 f   c1_DynJointVerify.obj
 0001:00010fc0       c1_eml_blas_xtrsm          0000000180011fc0 f   c1_DynJointVerify.obj
 0001:00011150       c1_ceval_xtrsm             0000000180012150 f   c1_DynJointVerify.obj
 0001:00011370       c1_b_eml_blas_xtrsm        0000000180012370 f   c1_DynJointVerify.obj
 0001:00011500       c1_b_ceval_xtrsm           0000000180012500 f   c1_DynJointVerify.obj
 0001:00011720       c1_b_eml_scalar_eg         0000000180012720 f   c1_DynJointVerify.obj
 0001:00011730       c1_d_sf_marshall           0000000180012730 f   c1_DynJointVerify.obj
 0001:000117e0       c1_e_sf_marshall           00000001800127e0 f   c1_DynJointVerify.obj
 0001:000119f0       c1_f_sf_marshall           00000001800129f0 f   c1_DynJointVerify.obj
 0001:00011be0       c1_g_sf_marshall           0000000180012be0 f   c1_DynJointVerify.obj
 0001:00011d30       c1_h_sf_marshall           0000000180012d30 f   c1_DynJointVerify.obj
 0001:00011f30       sf_opaque_get_sim_state_c1_DynJointVerify 0000000180012f30 f   c1_DynJointVerify.obj
 0001:00011f50       sf_internal_get_sim_state_c1_DynJointVerify 0000000180012f50 f   c1_DynJointVerify.obj
 0001:00012040       get_sim_state_c1_DynJointVerify 0000000180013040 f   c1_DynJointVerify.obj
 0001:00012270       sf_opaque_set_sim_state_c1_DynJointVerify 0000000180013270 f   c1_DynJointVerify.obj
 0001:000122a0       sf_internal_set_sim_state_c1_DynJointVerify 00000001800132a0 f   c1_DynJointVerify.obj
 0001:000123c0       set_sim_state_c1_DynJointVerify 00000001800133c0 f   c1_DynJointVerify.obj
 0001:000124e0       c1_update_debugger_state_c1_DynJointVerify 00000001800134e0 f   c1_DynJointVerify.obj
 0001:000124f0       c1_emlrt_marshallIn        00000001800134f0 f   c1_DynJointVerify.obj
 0001:000125c0       c1_b_emlrt_marshallIn      00000001800135c0 f   c1_DynJointVerify.obj
 0001:00012650       sf_opaque_terminate_c1_DynJointVerify 0000000180013650 f   c1_DynJointVerify.obj
 0001:000126d0       finalize_c1_DynJointVerify 00000001800136d0 f   c1_DynJointVerify.obj
 0001:000126e0       sf_opaque_init_subchart_simstructs 00000001800136e0 f   c1_DynJointVerify.obj
 0001:00012700       compInitSubchartSimstructsFcn_c1_DynJointVerify 0000000180013700 f   c1_DynJointVerify.obj
 0001:00012710       mdlRTW_c1_DynJointVerify   0000000180013710 f   c1_DynJointVerify.obj
 0001:00012b90       c2_info_helper             0000000180013b90 f   c2_DynJointVerify.obj
 0001:000149b0       c2_b_info_helper           00000001800159b0 f   c2_DynJointVerify.obj
 0001:00016cd0       mdlProcessParameters_c2_DynJointVerify 0000000180017cd0 f   c2_DynJointVerify.obj
 0001:00016d90       initialize_params_c2_DynJointVerify 0000000180017d90 f   c2_DynJointVerify.obj
 0001:00016f30       mdlSetWorkWidths_c2_DynJointVerify 0000000180017f30 f   c2_DynJointVerify.obj
 0001:00017470       mdlStart_c2_DynJointVerify 0000000180018470 f   c2_DynJointVerify.obj
 0001:00017690       init_dsm_address_info      0000000180018690 f   c2_DynJointVerify.obj
 0001:000176a0       sf_get_sim_state_info_c2_DynJointVerify 00000001800186a0 f   c2_DynJointVerify.obj
 0001:00017760       chart_debug_initialization 0000000180018760 f   c2_DynJointVerify.obj
 0001:00018e10       init_script_number_translation 0000000180019e10 f   c2_DynJointVerify.obj
 0001:00018f20       c2_sf_marshall             0000000180019f20 f   c2_DynJointVerify.obj
 0001:00019070       c2_b_sf_marshall           000000018001a070 f   c2_DynJointVerify.obj
 0001:000191d0       c2_c_sf_marshall           000000018001a1d0 f   c2_DynJointVerify.obj
 0001:000193d0       c2_d_sf_marshall           000000018001a3d0 f   c2_DynJointVerify.obj
 0001:000194f0       sf_opaque_initialize_c2_DynJointVerify 000000018001a4f0 f   c2_DynJointVerify.obj
 0001:00019530       initialize_c2_DynJointVerify 000000018001a530 f   c2_DynJointVerify.obj
 0001:00019570       sf_opaque_enable_c2_DynJointVerify 000000018001a570 f   c2_DynJointVerify.obj
 0001:00019590       enable_c2_DynJointVerify   000000018001a590 f   c2_DynJointVerify.obj
 0001:000195c0       sf_opaque_disable_c2_DynJointVerify 000000018001a5c0 f   c2_DynJointVerify.obj
 0001:000195e0       disable_c2_DynJointVerify  000000018001a5e0 f   c2_DynJointVerify.obj
 0001:00019610       sf_opaque_gateway_c2_DynJointVerify 000000018001a610 f   c2_DynJointVerify.obj
 0001:00019630       sf_c2_DynJointVerify       000000018001a630 f   c2_DynJointVerify.obj
 0001:0001a250       c2_inv_kin                 000000018001b250 f   c2_DynJointVerify.obj
 0001:00021760       c2_cross                   0000000180022760 f   c2_DynJointVerify.obj
 0001:00021960       c2_all                     0000000180022960 f   c2_DynJointVerify.obj
 0001:00021ac0       c2_mrdivide                0000000180022ac0 f   c2_DynJointVerify.obj
 0001:00022c20       c2_eml_matlab_zgetrf       0000000180023c20 f   c2_DynJointVerify.obj
 0001:00023ab0       c2_eps                     0000000180024ab0 f   c2_DynJointVerify.obj
 0001:00023ac0       c2_eml_ixamax              0000000180024ac0 f   c2_DynJointVerify.obj
 0001:00023bb0       c2_ceval_ixamax            0000000180024bb0 f   c2_DynJointVerify.obj
 0001:00023c80       c2_ceval_xswap             0000000180024c80 f   c2_DynJointVerify.obj
 0001:00023e50       c2_ceval_xger              0000000180024e50 f   c2_DynJointVerify.obj
 0001:00024110       c2_eml_warning             0000000180025110 f   c2_DynJointVerify.obj
 0001:000242c0       c2_b_eml_scalar_eg         00000001800252c0 f   c2_DynJointVerify.obj
 0001:000242d0       c2_eml_xtrsm               00000001800252d0 f   c2_DynJointVerify.obj
 0001:00024af0       c2_c_eml_scalar_eg         0000000180025af0 f   c2_DynJointVerify.obj
 0001:00024b00       c2_eml_blas_xtrsm          0000000180025b00 f   c2_DynJointVerify.obj
 0001:00025b20       c2_d_eml_scalar_eg         0000000180026b20 f   c2_DynJointVerify.obj
 0001:00025b30       c2_atan2                   0000000180026b30 f   c2_DynJointVerify.obj
 0001:00025b90       c2_eml_scalar_eg           0000000180026b90 f   c2_DynJointVerify.obj
 0001:00025ba0       c2_isInRange               0000000180026ba0 f   c2_DynJointVerify.obj
 0001:00025f20       c2_expWre                  0000000180026f20 f   c2_DynJointVerify.obj
 0001:00027540       c2_length                  0000000180028540 f   c2_DynJointVerify.obj
 0001:00027800       c2_eye                     0000000180028800 f   c2_DynJointVerify.obj
 0001:000279b0       c2_expRot                  00000001800289b0 f   c2_DynJointVerify.obj
 0001:000288e0       c2_e_eml_scalar_eg         00000001800298e0 f   c2_DynJointVerify.obj
 0001:000288f0       c2_f_eml_scalar_eg         00000001800298f0 f   c2_DynJointVerify.obj
 0001:00028900       c2_subPro3                 0000000180029900 f   c2_DynJointVerify.obj
 0001:0002b750       c2_g_eml_scalar_eg         000000018002c750 f   c2_DynJointVerify.obj
 0001:0002b760       c2_ceval_xdot              000000018002c760 f   c2_DynJointVerify.obj
 0001:0002b910       c2_mpower                  000000018002c910 f   c2_DynJointVerify.obj
 0001:0002b950       c2_power                   000000018002c950 f   c2_DynJointVerify.obj
 0001:0002ba00       c2_eml_error               000000018002ca00 f   c2_DynJointVerify.obj
 0001:0002bbb0       c2_norm                    000000018002cbb0 f   c2_DynJointVerify.obj
 0001:0002bcf0       c2_ceval_xnrm2             000000018002ccf0 f   c2_DynJointVerify.obj
 0001:0002bdc0       c2_b_eml_error             000000018002cdc0 f   c2_DynJointVerify.obj
 0001:0002bf80       c2_b_isInRange             000000018002cf80 f   c2_DynJointVerify.obj
 0001:0002c4e0       c2_any                     000000018002d4e0 f   c2_DynJointVerify.obj
 0001:0002c6f0       c2_subPro1                 000000018002d6f0 f   c2_DynJointVerify.obj
 0001:0002de60       c2_subPro2                 000000018002ee60 f   c2_DynJointVerify.obj
 0001:00032d80       c2_findCommon              0000000180033d80 f   c2_DynJointVerify.obj
 0001:000344a0       c2_det                     00000001800354a0 f   c2_DynJointVerify.obj
 0001:00034860       c2_b_eml_matlab_zgetrf     0000000180035860 f   c2_DynJointVerify.obj
 0001:000350c0       c2_b_eml_ixamax            00000001800360c0 f   c2_DynJointVerify.obj
 0001:00035180       c2_b_ceval_ixamax          0000000180036180 f   c2_DynJointVerify.obj
 0001:00035250       c2_b_ceval_xswap           0000000180036250 f   c2_DynJointVerify.obj
 0001:00035420       c2_b_ceval_xger            0000000180036420 f   c2_DynJointVerify.obj
 0001:000356e0       c2_c_eml_error             00000001800366e0 f   c2_DynJointVerify.obj
 0001:00035890       c2_b_subPro1               0000000180036890 f   c2_DynJointVerify.obj
 0001:00036ff0       c2_c_subPro1               0000000180037ff0 f   c2_DynJointVerify.obj
 0001:00038750       c2_e_sf_marshall           0000000180039750 f   c2_DynJointVerify.obj
 0001:00038800       c2_f_sf_marshall           0000000180039800 f   c2_DynJointVerify.obj
 0001:000389f0       c2_g_sf_marshall           00000001800399f0 f   c2_DynJointVerify.obj
 0001:00038c00       c2_h_sf_marshall           0000000180039c00 f   c2_DynJointVerify.obj
 0001:00038cb0       c2_i_sf_marshall           0000000180039cb0 f   c2_DynJointVerify.obj
 0001:00038dd0       c2_j_sf_marshall           0000000180039dd0 f   c2_DynJointVerify.obj
 0001:00038ef0       c2_k_sf_marshall           0000000180039ef0 f   c2_DynJointVerify.obj
 0001:00039000       c2_l_sf_marshall           000000018003a000 f   c2_DynJointVerify.obj
 0001:000391e0       sf_opaque_get_sim_state_c2_DynJointVerify 000000018003a1e0 f   c2_DynJointVerify.obj
 0001:00039200       sf_internal_get_sim_state_c2_DynJointVerify 000000018003a200 f   c2_DynJointVerify.obj
 0001:000392f0       get_sim_state_c2_DynJointVerify 000000018003a2f0 f   c2_DynJointVerify.obj
 0001:00039520       sf_opaque_set_sim_state_c2_DynJointVerify 000000018003a520 f   c2_DynJointVerify.obj
 0001:00039550       sf_internal_set_sim_state_c2_DynJointVerify 000000018003a550 f   c2_DynJointVerify.obj
 0001:00039670       set_sim_state_c2_DynJointVerify 000000018003a670 f   c2_DynJointVerify.obj
 0001:000397a0       c2_update_debugger_state_c2_DynJointVerify 000000018003a7a0 f   c2_DynJointVerify.obj
 0001:000397b0       c2_emlrt_marshallIn        000000018003a7b0 f   c2_DynJointVerify.obj
 0001:00039880       c2_b_emlrt_marshallIn      000000018003a880 f   c2_DynJointVerify.obj
 0001:00039910       sf_opaque_terminate_c2_DynJointVerify 000000018003a910 f   c2_DynJointVerify.obj
 0001:00039990       finalize_c2_DynJointVerify 000000018003a990 f   c2_DynJointVerify.obj
 0001:000399a0       sf_opaque_init_subchart_simstructs 000000018003a9a0 f   c2_DynJointVerify.obj
 0001:000399c0       compInitSubchartSimstructsFcn_c2_DynJointVerify 000000018003a9c0 f   c2_DynJointVerify.obj
 0001:000399d0       mdlRTW_c2_DynJointVerify   000000018003a9d0 f   c2_DynJointVerify.obj
 0001:00039e30       c3_info_helper             000000018003ae30 f   c3_DynJointVerify.obj
 0001:0003cde0       mdlProcessParameters_c3_DynJointVerify 000000018003dde0 f   c3_DynJointVerify.obj
 0001:0003cea0       initialize_params_c3_DynJointVerify 000000018003dea0 f   c3_DynJointVerify.obj
 0001:0003d640       mdlSetWorkWidths_c3_DynJointVerify 000000018003e640 f   c3_DynJointVerify.obj
 0001:0003dff0       mdlStart_c3_DynJointVerify 000000018003eff0 f   c3_DynJointVerify.obj
 0001:0003e210       init_dsm_address_info      000000018003f210 f   c3_DynJointVerify.obj
 0001:0003e220       sf_get_sim_state_info_c3_DynJointVerify 000000018003f220 f   c3_DynJointVerify.obj
 0001:0003e2e0       chart_debug_initialization 000000018003f2e0 f   c3_DynJointVerify.obj
 0001:0003f6f0       init_script_number_translation 00000001800406f0 f   c3_DynJointVerify.obj
 0001:0003f730       c3_sf_marshall             0000000180040730 f   c3_DynJointVerify.obj
 0001:0003f870       c3_b_sf_marshall           0000000180040870 f   c3_DynJointVerify.obj
 0001:0003f9e0       c3_d_sf_marshall           00000001800409e0 f   c3_DynJointVerify.obj
 0001:0003fb40       c3_e_sf_marshall           0000000180040b40 f   c3_DynJointVerify.obj
 0001:0003fca0       sf_opaque_initialize_c3_DynJointVerify 0000000180040ca0 f   c3_DynJointVerify.obj
 0001:0003fce0       initialize_c3_DynJointVerify 0000000180040ce0 f   c3_DynJointVerify.obj
 0001:0003fd20       sf_opaque_enable_c3_DynJointVerify 0000000180040d20 f   c3_DynJointVerify.obj
 0001:0003fd40       enable_c3_DynJointVerify   0000000180040d40 f   c3_DynJointVerify.obj
 0001:0003fd70       sf_opaque_disable_c3_DynJointVerify 0000000180040d70 f   c3_DynJointVerify.obj
 0001:0003fd90       disable_c3_DynJointVerify  0000000180040d90 f   c3_DynJointVerify.obj
 0001:0003fdc0       sf_opaque_gateway_c3_DynJointVerify 0000000180040dc0 f   c3_DynJointVerify.obj
 0001:0003fde0       sf_c3_DynJointVerify       0000000180040de0 f   c3_DynJointVerify.obj
 0001:00041700       c3_M_d                     0000000180042700 f   c3_DynJointVerify.obj
 0001:0005e110       c3_power                   000000018005f110 f   c3_DynJointVerify.obj
 0001:0005e1c0       c3_eml_scalar_eg           000000018005f1c0 f   c3_DynJointVerify.obj
 0001:0005e1d0       c3_eml_error               000000018005f1d0 f   c3_DynJointVerify.obj
 0001:0005e3b0       c3_b_eml_scalar_eg         000000018005f3b0 f   c3_DynJointVerify.obj
 0001:0005e3c0       c3_c_sf_marshall           000000018005f3c0 f   c3_DynJointVerify.obj
 0001:0005e470       c3_f_sf_marshall           000000018005f470 f   c3_DynJointVerify.obj
 0001:0005e680       sf_opaque_get_sim_state_c3_DynJointVerify 000000018005f680 f   c3_DynJointVerify.obj
 0001:0005e6a0       sf_internal_get_sim_state_c3_DynJointVerify 000000018005f6a0 f   c3_DynJointVerify.obj
 0001:0005e790       get_sim_state_c3_DynJointVerify 000000018005f790 f   c3_DynJointVerify.obj
 0001:0005e9d0       sf_opaque_set_sim_state_c3_DynJointVerify 000000018005f9d0 f   c3_DynJointVerify.obj
 0001:0005ea00       sf_internal_set_sim_state_c3_DynJointVerify 000000018005fa00 f   c3_DynJointVerify.obj
 0001:0005eb20       set_sim_state_c3_DynJointVerify 000000018005fb20 f   c3_DynJointVerify.obj
 0001:0005ec50       c3_update_debugger_state_c3_DynJointVerify 000000018005fc50 f   c3_DynJointVerify.obj
 0001:0005ec60       c3_emlrt_marshallIn        000000018005fc60 f   c3_DynJointVerify.obj
 0001:0005ed30       c3_b_emlrt_marshallIn      000000018005fd30 f   c3_DynJointVerify.obj
 0001:0005edc0       sf_opaque_terminate_c3_DynJointVerify 000000018005fdc0 f   c3_DynJointVerify.obj
 0001:0005ee40       finalize_c3_DynJointVerify 000000018005fe40 f   c3_DynJointVerify.obj
 0001:0005ee50       sf_opaque_init_subchart_simstructs 000000018005fe50 f   c3_DynJointVerify.obj
 0001:0005ee70       compInitSubchartSimstructsFcn_c3_DynJointVerify 000000018005fe70 f   c3_DynJointVerify.obj
 0001:0005ee80       mdlRTW_c3_DynJointVerify   000000018005fe80 f   c3_DynJointVerify.obj
 0001:0005f400       c4_info_helper             0000000180060400 f   c4_DynJointVerify.obj
 0001:000625e0       mdlProcessParameters_c4_DynJointVerify 00000001800635e0 f   c4_DynJointVerify.obj
 0001:000626a0       initialize_params_c4_DynJointVerify 00000001800636a0 f   c4_DynJointVerify.obj
 0001:00062e50       mdlSetWorkWidths_c4_DynJointVerify 0000000180063e50 f   c4_DynJointVerify.obj
 0001:00063830       mdlStart_c4_DynJointVerify 0000000180064830 f   c4_DynJointVerify.obj
 0001:00063a50       init_dsm_address_info      0000000180064a50 f   c4_DynJointVerify.obj
 0001:00063a60       sf_get_sim_state_info_c4_DynJointVerify 0000000180064a60 f   c4_DynJointVerify.obj
 0001:00063b20       chart_debug_initialization 0000000180064b20 f   c4_DynJointVerify.obj
 0001:00065540       init_script_number_translation 0000000180066540 f   c4_DynJointVerify.obj
 0001:00065630       c4_sf_marshall             0000000180066630 f   c4_DynJointVerify.obj
 0001:00065790       c4_b_sf_marshall           0000000180066790 f   c4_DynJointVerify.obj
 0001:00065900       c4_d_sf_marshall           0000000180066900 f   c4_DynJointVerify.obj
 0001:00065a70       c4_e_sf_marshall           0000000180066a70 f   c4_DynJointVerify.obj
 0001:00065be0       sf_opaque_initialize_c4_DynJointVerify 0000000180066be0 f   c4_DynJointVerify.obj
 0001:00065c20       initialize_c4_DynJointVerify 0000000180066c20 f   c4_DynJointVerify.obj
 0001:00065c60       sf_opaque_enable_c4_DynJointVerify 0000000180066c60 f   c4_DynJointVerify.obj
 0001:00065c80       enable_c4_DynJointVerify   0000000180066c80 f   c4_DynJointVerify.obj
 0001:00065cb0       sf_opaque_disable_c4_DynJointVerify 0000000180066cb0 f   c4_DynJointVerify.obj
 0001:00065cd0       disable_c4_DynJointVerify  0000000180066cd0 f   c4_DynJointVerify.obj
 0001:00065d00       sf_opaque_gateway_c4_DynJointVerify 0000000180066d00 f   c4_DynJointVerify.obj
 0001:00065d20       sf_c4_DynJointVerify       0000000180066d20 f   c4_DynJointVerify.obj
 0001:00066440       c4_c4_DynJointVerify       0000000180067440 f   c4_DynJointVerify.obj
 0001:000696a0       c4_M_dp2                   000000018006a6a0 f   c4_DynJointVerify.obj
 0001:00085570       c4_power                   0000000180086570 f   c4_DynJointVerify.obj
 0001:00085620       c4_eml_scalar_eg           0000000180086620 f   c4_DynJointVerify.obj
 0001:00085630       c4_eml_error               0000000180086630 f   c4_DynJointVerify.obj
 0001:00085820       c4_M_dp3                   0000000180086820 f   c4_DynJointVerify.obj
 0001:000a3f90       c4_M_dp4                   00000001800a4f90 f   c4_DynJointVerify.obj
 0001:000c77c0       c4_M_dp5                   00000001800c87c0 f   c4_DynJointVerify.obj
 0001:000e7430       c4_M_dp6                   00000001800e8430 f   c4_DynJointVerify.obj
 0001:000fa480       c4_b_eml_scalar_eg         00000001800fb480 f   c4_DynJointVerify.obj
 0001:000fa490       c4_c_sf_marshall           00000001800fb490 f   c4_DynJointVerify.obj
 0001:000fa540       c4_f_sf_marshall           00000001800fb540 f   c4_DynJointVerify.obj
 0001:000fa770       c4_g_sf_marshall           00000001800fb770 f   c4_DynJointVerify.obj
 0001:000fa9a0       sf_opaque_get_sim_state_c4_DynJointVerify 00000001800fb9a0 f   c4_DynJointVerify.obj
 0001:000fa9c0       sf_internal_get_sim_state_c4_DynJointVerify 00000001800fb9c0 f   c4_DynJointVerify.obj
 0001:000faab0       get_sim_state_c4_DynJointVerify 00000001800fbab0 f   c4_DynJointVerify.obj
 0001:000face0       sf_opaque_set_sim_state_c4_DynJointVerify 00000001800fbce0 f   c4_DynJointVerify.obj
 0001:000fad10       sf_internal_set_sim_state_c4_DynJointVerify 00000001800fbd10 f   c4_DynJointVerify.obj
 0001:000fae30       set_sim_state_c4_DynJointVerify 00000001800fbe30 f   c4_DynJointVerify.obj
 0001:000faf60       c4_update_debugger_state_c4_DynJointVerify 00000001800fbf60 f   c4_DynJointVerify.obj
 0001:000faf70       c4_emlrt_marshallIn        00000001800fbf70 f   c4_DynJointVerify.obj
 0001:000fb050       c4_b_emlrt_marshallIn      00000001800fc050 f   c4_DynJointVerify.obj
 0001:000fb0e0       sf_opaque_terminate_c4_DynJointVerify 00000001800fc0e0 f   c4_DynJointVerify.obj
 0001:000fb160       finalize_c4_DynJointVerify 00000001800fc160 f   c4_DynJointVerify.obj
 0001:000fb170       sf_opaque_init_subchart_simstructs 00000001800fc170 f   c4_DynJointVerify.obj
 0001:000fb190       compInitSubchartSimstructsFcn_c4_DynJointVerify 00000001800fc190 f   c4_DynJointVerify.obj
 0001:000fb1a0       mdlRTW_c4_DynJointVerify   00000001800fc1a0 f   c4_DynJointVerify.obj
 0001:000fb5f0       c5_info_helper             00000001800fc5f0 f   c5_DynJointVerify.obj
 0001:000fca80       mdlProcessParameters_c5_DynJointVerify 00000001800fda80 f   c5_DynJointVerify.obj
 0001:000fcb40       initialize_params_c5_DynJointVerify 00000001800fdb40 f   c5_DynJointVerify.obj
 0001:000fce70       mdlSetWorkWidths_c5_DynJointVerify 00000001800fde70 f   c5_DynJointVerify.obj
 0001:000fd4f0       mdlStart_c5_DynJointVerify 00000001800fe4f0 f   c5_DynJointVerify.obj
 0001:000fd710       init_dsm_address_info      00000001800fe710 f   c5_DynJointVerify.obj
 0001:000fd720       sf_get_sim_state_info_c5_DynJointVerify 00000001800fe720 f   c5_DynJointVerify.obj
 0001:000fd7e0       chart_debug_initialization 00000001800fe7e0 f   c5_DynJointVerify.obj
 0001:000fe480       init_script_number_translation 00000001800ff480 f   c5_DynJointVerify.obj
 0001:000fe4c0       c5_sf_marshall             00000001800ff4c0 f   c5_DynJointVerify.obj
 0001:000fe610       c5_b_sf_marshall           00000001800ff610 f   c5_DynJointVerify.obj
 0001:000fe6c0       c5_c_sf_marshall           00000001800ff6c0 f   c5_DynJointVerify.obj
 0001:000fe830       c5_d_sf_marshall           00000001800ff830 f   c5_DynJointVerify.obj
 0001:000fe9a0       c5_e_sf_marshall           00000001800ff9a0 f   c5_DynJointVerify.obj
 0001:000feb10       sf_opaque_initialize_c5_DynJointVerify 00000001800ffb10 f   c5_DynJointVerify.obj
 0001:000feb50       initialize_c5_DynJointVerify 00000001800ffb50 f   c5_DynJointVerify.obj
 0001:000feb90       sf_opaque_enable_c5_DynJointVerify 00000001800ffb90 f   c5_DynJointVerify.obj
 0001:000febb0       enable_c5_DynJointVerify   00000001800ffbb0 f   c5_DynJointVerify.obj
 0001:000febe0       sf_opaque_disable_c5_DynJointVerify 00000001800ffbe0 f   c5_DynJointVerify.obj
 0001:000fec00       disable_c5_DynJointVerify  00000001800ffc00 f   c5_DynJointVerify.obj
 0001:000fec30       sf_opaque_gateway_c5_DynJointVerify 00000001800ffc30 f   c5_DynJointVerify.obj
 0001:000fec50       sf_c5_DynJointVerify       00000001800ffc50 f   c5_DynJointVerify.obj
 0001:000ff800       c5_N_d                     0000000180100800 f   c5_DynJointVerify.obj
 0001:00103b10       sf_opaque_get_sim_state_c5_DynJointVerify 0000000180104b10 f   c5_DynJointVerify.obj
 0001:00103b30       sf_internal_get_sim_state_c5_DynJointVerify 0000000180104b30 f   c5_DynJointVerify.obj
 0001:00103c20       get_sim_state_c5_DynJointVerify 0000000180104c20 f   c5_DynJointVerify.obj
 0001:00103e60       sf_opaque_set_sim_state_c5_DynJointVerify 0000000180104e60 f   c5_DynJointVerify.obj
 0001:00103e90       sf_internal_set_sim_state_c5_DynJointVerify 0000000180104e90 f   c5_DynJointVerify.obj
 0001:00103fb0       set_sim_state_c5_DynJointVerify 0000000180104fb0 f   c5_DynJointVerify.obj
 0001:001040e0       c5_update_debugger_state_c5_DynJointVerify 00000001801050e0 f   c5_DynJointVerify.obj
 0001:001040f0       c5_emlrt_marshallIn        00000001801050f0 f   c5_DynJointVerify.obj
 0001:001041c0       c5_b_emlrt_marshallIn      00000001801051c0 f   c5_DynJointVerify.obj
 0001:00104250       sf_opaque_terminate_c5_DynJointVerify 0000000180105250 f   c5_DynJointVerify.obj
 0001:001042d0       finalize_c5_DynJointVerify 00000001801052d0 f   c5_DynJointVerify.obj
 0001:001042e0       sf_opaque_init_subchart_simstructs 00000001801052e0 f   c5_DynJointVerify.obj
 0001:00104300       compInitSubchartSimstructsFcn_c5_DynJointVerify 0000000180105300 f   c5_DynJointVerify.obj
 0001:00104310       mdlRTW_c5_DynJointVerify   0000000180105310 f   c5_DynJointVerify.obj
 0001:00104710       c6_info_helper             0000000180105710 f   c6_DynJointVerify.obj
 0001:00106030       mdlProcessParameters_c6_DynJointVerify 0000000180107030 f   c6_DynJointVerify.obj
 0001:001060f0       initialize_params_c6_DynJointVerify 00000001801070f0 f   c6_DynJointVerify.obj
 0001:001061e0       mdlSetWorkWidths_c6_DynJointVerify 00000001801071e0 f   c6_DynJointVerify.obj
 0001:00106670       mdlStart_c6_DynJointVerify 0000000180107670 f   c6_DynJointVerify.obj
 0001:00106880       init_dsm_address_info      0000000180107880 f   c6_DynJointVerify.obj
 0001:00106890       sf_get_sim_state_info_c6_DynJointVerify 0000000180107890 f   c6_DynJointVerify.obj
 0001:00106950       chart_debug_initialization 0000000180107950 f   c6_DynJointVerify.obj
 0001:001071e0       init_script_number_translation 00000001801081e0 f   c6_DynJointVerify.obj
 0001:00107220       c6_sf_marshall             0000000180108220 f   c6_DynJointVerify.obj
 0001:00107350       c6_b_sf_marshall           0000000180108350 f   c6_DynJointVerify.obj
 0001:001074a0       c6_c_sf_marshall           00000001801084a0 f   c6_DynJointVerify.obj
 0001:001075d0       sf_opaque_initialize_c6_DynJointVerify 00000001801085d0 f   c6_DynJointVerify.obj
 0001:00107610       initialize_c6_DynJointVerify 0000000180108610 f   c6_DynJointVerify.obj
 0001:00107650       sf_opaque_enable_c6_DynJointVerify 0000000180108650 f   c6_DynJointVerify.obj
 0001:00107670       enable_c6_DynJointVerify   0000000180108670 f   c6_DynJointVerify.obj
 0001:001076a0       sf_opaque_disable_c6_DynJointVerify 00000001801086a0 f   c6_DynJointVerify.obj
 0001:001076c0       disable_c6_DynJointVerify  00000001801086c0 f   c6_DynJointVerify.obj
 0001:001076f0       sf_opaque_gateway_c6_DynJointVerify 00000001801086f0 f   c6_DynJointVerify.obj
 0001:00107710       sf_c6_DynJointVerify       0000000180108710 f   c6_DynJointVerify.obj
 0001:00107f30       c6_fwd_kin                 0000000180108f30 f   c6_DynJointVerify.obj
 0001:0010b930       c6_d_sf_marshall           000000018010c930 f   c6_DynJointVerify.obj
 0001:0010b9e0       c6_e_sf_marshall           000000018010c9e0 f   c6_DynJointVerify.obj
 0001:0010bc00       c6_f_sf_marshall           000000018010cc00 f   c6_DynJointVerify.obj
 0001:0010bd60       sf_opaque_get_sim_state_c6_DynJointVerify 000000018010cd60 f   c6_DynJointVerify.obj
 0001:0010bd80       sf_internal_get_sim_state_c6_DynJointVerify 000000018010cd80 f   c6_DynJointVerify.obj
 0001:0010be70       get_sim_state_c6_DynJointVerify 000000018010ce70 f   c6_DynJointVerify.obj
 0001:0010c070       sf_opaque_set_sim_state_c6_DynJointVerify 000000018010d070 f   c6_DynJointVerify.obj
 0001:0010c0a0       sf_internal_set_sim_state_c6_DynJointVerify 000000018010d0a0 f   c6_DynJointVerify.obj
 0001:0010c1c0       set_sim_state_c6_DynJointVerify 000000018010d1c0 f   c6_DynJointVerify.obj
 0001:0010c2d0       c6_update_debugger_state_c6_DynJointVerify 000000018010d2d0 f   c6_DynJointVerify.obj
 0001:0010c2e0       c6_emlrt_marshallIn        000000018010d2e0 f   c6_DynJointVerify.obj
 0001:0010c3b0       c6_b_emlrt_marshallIn      000000018010d3b0 f   c6_DynJointVerify.obj
 0001:0010c440       sf_opaque_terminate_c6_DynJointVerify 000000018010d440 f   c6_DynJointVerify.obj
 0001:0010c4c0       finalize_c6_DynJointVerify 000000018010d4c0 f   c6_DynJointVerify.obj
 0001:0010c4d0       sf_opaque_init_subchart_simstructs 000000018010d4d0 f   c6_DynJointVerify.obj
 0001:0010c4f0       compInitSubchartSimstructsFcn_c6_DynJointVerify 000000018010d4f0 f   c6_DynJointVerify.obj
 0001:0010c500       mdlRTW_c6_DynJointVerify   000000018010d500 f   c6_DynJointVerify.obj
 0001:0010c920       c7_info_helper             000000018010d920 f   c7_DynJointVerify.obj
 0001:0010ed00       mdlProcessParameters_c7_DynJointVerify 000000018010fd00 f   c7_DynJointVerify.obj
 0001:0010edc0       initialize_params_c7_DynJointVerify 000000018010fdc0 f   c7_DynJointVerify.obj
 0001:0010eeb0       mdlSetWorkWidths_c7_DynJointVerify 000000018010feb0 f   c7_DynJointVerify.obj
 0001:0010f370       mdlStart_c7_DynJointVerify 0000000180110370 f   c7_DynJointVerify.obj
 0001:0010f580       init_dsm_address_info      0000000180110580 f   c7_DynJointVerify.obj
 0001:0010f590       sf_get_sim_state_info_c7_DynJointVerify 0000000180110590 f   c7_DynJointVerify.obj
 0001:0010f650       chart_debug_initialization 0000000180110650 f   c7_DynJointVerify.obj
 0001:001100d0       init_script_number_translation 00000001801110d0 f   c7_DynJointVerify.obj
 0001:00110130       c7_sf_marshall             0000000180111130 f   c7_DynJointVerify.obj
 0001:00110260       c7_b_sf_marshall           0000000180111260 f   c7_DynJointVerify.obj
 0001:001103c0       c7_c_sf_marshall           00000001801113c0 f   c7_DynJointVerify.obj
 0001:00110500       sf_opaque_initialize_c7_DynJointVerify 0000000180111500 f   c7_DynJointVerify.obj
 0001:00110540       initialize_c7_DynJointVerify 0000000180111540 f   c7_DynJointVerify.obj
 0001:00110580       sf_opaque_enable_c7_DynJointVerify 0000000180111580 f   c7_DynJointVerify.obj
 0001:001105a0       enable_c7_DynJointVerify   00000001801115a0 f   c7_DynJointVerify.obj
 0001:001105d0       sf_opaque_disable_c7_DynJointVerify 00000001801115d0 f   c7_DynJointVerify.obj
 0001:001105f0       disable_c7_DynJointVerify  00000001801115f0 f   c7_DynJointVerify.obj
 0001:00110620       sf_opaque_gateway_c7_DynJointVerify 0000000180111620 f   c7_DynJointVerify.obj
 0001:00110640       sf_c7_DynJointVerify       0000000180111640 f   c7_DynJointVerify.obj
 0001:00110930       c7_c7_DynJointVerify       0000000180111930 f   c7_DynJointVerify.obj
 0001:00111830       c7_spat_Jacobian           0000000180112830 f   c7_DynJointVerify.obj
 0001:001146a0       c7_eml_scalar_eg           00000001801156a0 f   c7_DynJointVerify.obj
 0001:001146b0       c7_b_eml_scalar_eg         00000001801156b0 f   c7_DynJointVerify.obj
 0001:001146c0       c7_fwd_kin                 00000001801156c0 f   c7_DynJointVerify.obj
 0001:00118190       c7_d_sf_marshall           0000000180119190 f   c7_DynJointVerify.obj
 0001:00118240       c7_e_sf_marshall           0000000180119240 f   c7_DynJointVerify.obj
 0001:00118450       c7_f_sf_marshall           0000000180119450 f   c7_DynJointVerify.obj
 0001:00118650       c7_g_sf_marshall           0000000180119650 f   c7_DynJointVerify.obj
 0001:001187a0       sf_opaque_get_sim_state_c7_DynJointVerify 00000001801197a0 f   c7_DynJointVerify.obj
 0001:001187c0       sf_internal_get_sim_state_c7_DynJointVerify 00000001801197c0 f   c7_DynJointVerify.obj
 0001:001188b0       get_sim_state_c7_DynJointVerify 00000001801198b0 f   c7_DynJointVerify.obj
 0001:00118ac0       sf_opaque_set_sim_state_c7_DynJointVerify 0000000180119ac0 f   c7_DynJointVerify.obj
 0001:00118af0       sf_internal_set_sim_state_c7_DynJointVerify 0000000180119af0 f   c7_DynJointVerify.obj
 0001:00118c10       set_sim_state_c7_DynJointVerify 0000000180119c10 f   c7_DynJointVerify.obj
 0001:00118d20       c7_update_debugger_state_c7_DynJointVerify 0000000180119d20 f   c7_DynJointVerify.obj
 0001:00118d30       c7_emlrt_marshallIn        0000000180119d30 f   c7_DynJointVerify.obj
 0001:00118e00       c7_b_emlrt_marshallIn      0000000180119e00 f   c7_DynJointVerify.obj
 0001:00118e90       sf_opaque_terminate_c7_DynJointVerify 0000000180119e90 f   c7_DynJointVerify.obj
 0001:00118f10       finalize_c7_DynJointVerify 0000000180119f10 f   c7_DynJointVerify.obj
 0001:00118f20       sf_opaque_init_subchart_simstructs 0000000180119f20 f   c7_DynJointVerify.obj
 0001:00118f40       compInitSubchartSimstructsFcn_c7_DynJointVerify 0000000180119f40 f   c7_DynJointVerify.obj
 0001:00118f50       mdlRTW_c7_DynJointVerify   0000000180119f50 f   c7_DynJointVerify.obj
 0001:001193b0       c8_info_helper             000000018011a3b0 f   c8_DynJointVerify.obj
 0001:0011b1d0       c8_b_info_helper           000000018011c1d0 f   c8_DynJointVerify.obj
 0001:0011d4f0       mdlProcessParameters_c8_DynJointVerify 000000018011e4f0 f   c8_DynJointVerify.obj
 0001:0011d5b0       initialize_params_c8_DynJointVerify 000000018011e5b0 f   c8_DynJointVerify.obj
 0001:0011d770       mdlSetWorkWidths_c8_DynJointVerify 000000018011e770 f   c8_DynJointVerify.obj
 0001:0011dcb0       mdlStart_c8_DynJointVerify 000000018011ecb0 f   c8_DynJointVerify.obj
 0001:0011ded0       init_dsm_address_info      000000018011eed0 f   c8_DynJointVerify.obj
 0001:0011dee0       sf_get_sim_state_info_c8_DynJointVerify 000000018011eee0 f   c8_DynJointVerify.obj
 0001:0011dfa0       chart_debug_initialization 000000018011efa0 f   c8_DynJointVerify.obj
 0001:0011f650       init_script_number_translation 0000000180120650 f   c8_DynJointVerify.obj
 0001:0011f760       c8_sf_marshall             0000000180120760 f   c8_DynJointVerify.obj
 0001:0011f890       c8_b_sf_marshall           0000000180120890 f   c8_DynJointVerify.obj
 0001:0011f9d0       c8_c_sf_marshall           00000001801209d0 f   c8_DynJointVerify.obj
 0001:0011fbb0       c8_d_sf_marshall           0000000180120bb0 f   c8_DynJointVerify.obj
 0001:0011fce0       sf_opaque_initialize_c8_DynJointVerify 0000000180120ce0 f   c8_DynJointVerify.obj
 0001:0011fd20       initialize_c8_DynJointVerify 0000000180120d20 f   c8_DynJointVerify.obj
 0001:0011fd60       sf_opaque_enable_c8_DynJointVerify 0000000180120d60 f   c8_DynJointVerify.obj
 0001:0011fd80       enable_c8_DynJointVerify   0000000180120d80 f   c8_DynJointVerify.obj
 0001:0011fdb0       sf_opaque_disable_c8_DynJointVerify 0000000180120db0 f   c8_DynJointVerify.obj
 0001:0011fdd0       disable_c8_DynJointVerify  0000000180120dd0 f   c8_DynJointVerify.obj
 0001:0011fe00       sf_opaque_gateway_c8_DynJointVerify 0000000180120e00 f   c8_DynJointVerify.obj
 0001:0011fe20       sf_c8_DynJointVerify       0000000180120e20 f   c8_DynJointVerify.obj
 0001:00120a70       c8_inv_kin                 0000000180121a70 f   c8_DynJointVerify.obj
 0001:00127f90       c8_cross                   0000000180128f90 f   c8_DynJointVerify.obj
 0001:00128190       c8_all                     0000000180129190 f   c8_DynJointVerify.obj
 0001:001282f0       c8_mrdivide                00000001801292f0 f   c8_DynJointVerify.obj
 0001:00129430       c8_eml_matlab_zgetrf       000000018012a430 f   c8_DynJointVerify.obj
 0001:0012a2d0       c8_eps                     000000018012b2d0 f   c8_DynJointVerify.obj
 0001:0012a2e0       c8_eml_ixamax              000000018012b2e0 f   c8_DynJointVerify.obj
 0001:0012a3c0       c8_ceval_ixamax            000000018012b3c0 f   c8_DynJointVerify.obj
 0001:0012a490       c8_ceval_xswap             000000018012b490 f   c8_DynJointVerify.obj
 0001:0012a660       c8_ceval_xger              000000018012b660 f   c8_DynJointVerify.obj
 0001:0012a920       c8_eml_warning             000000018012b920 f   c8_DynJointVerify.obj
 0001:0012aaf0       c8_b_eml_scalar_eg         000000018012baf0 f   c8_DynJointVerify.obj
 0001:0012ab00       c8_eml_xtrsm               000000018012bb00 f   c8_DynJointVerify.obj
 0001:0012b370       c8_c_eml_scalar_eg         000000018012c370 f   c8_DynJointVerify.obj
 0001:0012b380       c8_eml_blas_xtrsm          000000018012c380 f   c8_DynJointVerify.obj
 0001:0012c3b0       c8_d_eml_scalar_eg         000000018012d3b0 f   c8_DynJointVerify.obj
 0001:0012c3c0       c8_atan2                   000000018012d3c0 f   c8_DynJointVerify.obj
 0001:0012c420       c8_eml_scalar_eg           000000018012d420 f   c8_DynJointVerify.obj
 0001:0012c430       c8_isInRange               000000018012d430 f   c8_DynJointVerify.obj
 0001:0012c7b0       c8_expWre                  000000018012d7b0 f   c8_DynJointVerify.obj
 0001:0012ddf0       c8_length                  000000018012edf0 f   c8_DynJointVerify.obj
 0001:0012e0b0       c8_eye                     000000018012f0b0 f   c8_DynJointVerify.obj
 0001:0012e260       c8_expRot                  000000018012f260 f   c8_DynJointVerify.obj
 0001:0012f190       c8_e_eml_scalar_eg         0000000180130190 f   c8_DynJointVerify.obj
 0001:0012f1a0       c8_f_eml_scalar_eg         00000001801301a0 f   c8_DynJointVerify.obj
 0001:0012f1b0       c8_subPro3                 00000001801301b0 f   c8_DynJointVerify.obj
 0001:00131fe0       c8_g_eml_scalar_eg         0000000180132fe0 f   c8_DynJointVerify.obj
 0001:00131ff0       c8_ceval_xdot              0000000180132ff0 f   c8_DynJointVerify.obj
 0001:001321a0       c8_mpower                  00000001801331a0 f   c8_DynJointVerify.obj
 0001:001321e0       c8_power                   00000001801331e0 f   c8_DynJointVerify.obj
 0001:00132290       c8_eml_error               0000000180133290 f   c8_DynJointVerify.obj
 0001:00132470       c8_norm                    0000000180133470 f   c8_DynJointVerify.obj
 0001:001325b0       c8_ceval_xnrm2             00000001801335b0 f   c8_DynJointVerify.obj
 0001:00132680       c8_b_eml_error             0000000180133680 f   c8_DynJointVerify.obj
 0001:00132850       c8_b_isInRange             0000000180133850 f   c8_DynJointVerify.obj
 0001:00132e00       c8_any                     0000000180133e00 f   c8_DynJointVerify.obj
 0001:00133010       c8_subPro1                 0000000180134010 f   c8_DynJointVerify.obj
 0001:00134750       c8_subPro2                 0000000180135750 f   c8_DynJointVerify.obj
 0001:00139680       c8_findCommon              000000018013a680 f   c8_DynJointVerify.obj
 0001:0013adc0       c8_det                     000000018013bdc0 f   c8_DynJointVerify.obj
 0001:0013b1a0       c8_b_eml_matlab_zgetrf     000000018013c1a0 f   c8_DynJointVerify.obj
 0001:0013ba30       c8_b_eml_ixamax            000000018013ca30 f   c8_DynJointVerify.obj
 0001:0013baf0       c8_b_ceval_ixamax          000000018013caf0 f   c8_DynJointVerify.obj
 0001:0013bbc0       c8_b_ceval_xswap           000000018013cbc0 f   c8_DynJointVerify.obj
 0001:0013bd90       c8_b_ceval_xger            000000018013cd90 f   c8_DynJointVerify.obj
 0001:0013c050       c8_c_eml_error             000000018013d050 f   c8_DynJointVerify.obj
 0001:0013c230       c8_b_subPro1               000000018013d230 f   c8_DynJointVerify.obj
 0001:0013d990       c8_c_subPro1               000000018013e990 f   c8_DynJointVerify.obj
 0001:0013f0d0       c8_e_sf_marshall           00000001801400d0 f   c8_DynJointVerify.obj
 0001:0013f180       c8_f_sf_marshall           0000000180140180 f   c8_DynJointVerify.obj
 0001:0013f340       c8_g_sf_marshall           0000000180140340 f   c8_DynJointVerify.obj
 0001:0013f510       c8_h_sf_marshall           0000000180140510 f   c8_DynJointVerify.obj
 0001:0013f5c0       c8_i_sf_marshall           00000001801405c0 f   c8_DynJointVerify.obj
 0001:0013f6e0       c8_j_sf_marshall           00000001801406e0 f   c8_DynJointVerify.obj
 0001:0013f820       c8_k_sf_marshall           0000000180140820 f   c8_DynJointVerify.obj
 0001:0013f930       c8_l_sf_marshall           0000000180140930 f   c8_DynJointVerify.obj
 0001:0013fb10       sf_opaque_get_sim_state_c8_DynJointVerify 0000000180140b10 f   c8_DynJointVerify.obj
 0001:0013fb30       sf_internal_get_sim_state_c8_DynJointVerify 0000000180140b30 f   c8_DynJointVerify.obj
 0001:0013fc20       get_sim_state_c8_DynJointVerify 0000000180140c20 f   c8_DynJointVerify.obj
 0001:0013fe50       sf_opaque_set_sim_state_c8_DynJointVerify 0000000180140e50 f   c8_DynJointVerify.obj
 0001:0013fe80       sf_internal_set_sim_state_c8_DynJointVerify 0000000180140e80 f   c8_DynJointVerify.obj
 0001:0013ffa0       set_sim_state_c8_DynJointVerify 0000000180140fa0 f   c8_DynJointVerify.obj
 0001:001400d0       c8_update_debugger_state_c8_DynJointVerify 00000001801410d0 f   c8_DynJointVerify.obj
 0001:001400e0       c8_emlrt_marshallIn        00000001801410e0 f   c8_DynJointVerify.obj
 0001:001401b0       c8_b_emlrt_marshallIn      00000001801411b0 f   c8_DynJointVerify.obj
 0001:00140240       sf_opaque_terminate_c8_DynJointVerify 0000000180141240 f   c8_DynJointVerify.obj
 0001:001402c0       finalize_c8_DynJointVerify 00000001801412c0 f   c8_DynJointVerify.obj
 0001:001402d0       sf_opaque_init_subchart_simstructs 00000001801412d0 f   c8_DynJointVerify.obj
 0001:001402f0       compInitSubchartSimstructsFcn_c8_DynJointVerify 00000001801412f0 f   c8_DynJointVerify.obj
 0001:00140300       mdlRTW_c8_DynJointVerify   0000000180141300 f   c8_DynJointVerify.obj
 0001:00140780       c9_info_helper             0000000180141780 f   c9_DynJointVerify.obj
 0001:001425a0       c9_b_info_helper           00000001801435a0 f   c9_DynJointVerify.obj
 0001:00143ed0       mdlProcessParameters_c9_DynJointVerify 0000000180144ed0 f   c9_DynJointVerify.obj
 0001:00143f90       initialize_params_c9_DynJointVerify 0000000180144f90 f   c9_DynJointVerify.obj
 0001:00144080       mdlSetWorkWidths_c9_DynJointVerify 0000000180145080 f   c9_DynJointVerify.obj
 0001:00144540       mdlStart_c9_DynJointVerify 0000000180145540 f   c9_DynJointVerify.obj
 0001:00144750       init_dsm_address_info      0000000180145750 f   c9_DynJointVerify.obj
 0001:00144760       sf_get_sim_state_info_c9_DynJointVerify 0000000180145760 f   c9_DynJointVerify.obj
 0001:00144820       chart_debug_initialization 0000000180145820 f   c9_DynJointVerify.obj
 0001:001454c0       init_script_number_translation 00000001801464c0 f   c9_DynJointVerify.obj
 0001:00145570       c9_sf_marshall             0000000180146570 f   c9_DynJointVerify.obj
 0001:001456b0       c9_b_sf_marshall           00000001801466b0 f   c9_DynJointVerify.obj
 0001:00145810       c9_c_sf_marshall           0000000180146810 f   c9_DynJointVerify.obj
 0001:00145930       sf_opaque_initialize_c9_DynJointVerify 0000000180146930 f   c9_DynJointVerify.obj
 0001:00145970       initialize_c9_DynJointVerify 0000000180146970 f   c9_DynJointVerify.obj
 0001:001459b0       sf_opaque_enable_c9_DynJointVerify 00000001801469b0 f   c9_DynJointVerify.obj
 0001:001459d0       enable_c9_DynJointVerify   00000001801469d0 f   c9_DynJointVerify.obj
 0001:00145a00       sf_opaque_disable_c9_DynJointVerify 0000000180146a00 f   c9_DynJointVerify.obj
 0001:00145a20       disable_c9_DynJointVerify  0000000180146a20 f   c9_DynJointVerify.obj
 0001:00145a50       sf_opaque_gateway_c9_DynJointVerify 0000000180146a50 f   c9_DynJointVerify.obj
 0001:00145a70       sf_c9_DynJointVerify       0000000180146a70 f   c9_DynJointVerify.obj
 0001:00145d50       c9_c9_DynJointVerify       0000000180146d50 f   c9_DynJointVerify.obj
 0001:00147ba0       c9_fwd_kin                 0000000180148ba0 f   c9_DynJointVerify.obj
 0001:0014b530       c9_body_Jacobian           000000018014c530 f   c9_DynJointVerify.obj
 0001:0014e9f0       c9_AdjointInv              000000018014f9f0 f   c9_DynJointVerify.obj
 0001:0014fc70       c9_eml_scalar_eg           0000000180150c70 f   c9_DynJointVerify.obj
 0001:0014fc80       c9_eml_matlab_zgetrf       0000000180150c80 f   c9_DynJointVerify.obj
 0001:00150ae0       c9_eps                     0000000180151ae0 f   c9_DynJointVerify.obj
 0001:00150af0       c9_eml_ixamax              0000000180151af0 f   c9_DynJointVerify.obj
 0001:00150c00       c9_ceval_ixamax            0000000180151c00 f   c9_DynJointVerify.obj
 0001:00150cd0       c9_ceval_xswap             0000000180151cd0 f   c9_DynJointVerify.obj
 0001:00150e80       c9_ceval_xger              0000000180151e80 f   c9_DynJointVerify.obj
 0001:00151120       c9_eml_warning             0000000180152120 f   c9_DynJointVerify.obj
 0001:001512f0       c9_eml_blas_xtrsm          00000001801522f0 f   c9_DynJointVerify.obj
 0001:00151480       c9_ceval_xtrsm             0000000180152480 f   c9_DynJointVerify.obj
 0001:001516a0       c9_b_eml_blas_xtrsm        00000001801526a0 f   c9_DynJointVerify.obj
 0001:00151830       c9_b_ceval_xtrsm           0000000180152830 f   c9_DynJointVerify.obj
 0001:00151a50       c9_b_eml_scalar_eg         0000000180152a50 f   c9_DynJointVerify.obj
 0001:00151a60       c9_d_sf_marshall           0000000180152a60 f   c9_DynJointVerify.obj
 0001:00151b10       c9_e_sf_marshall           0000000180152b10 f   c9_DynJointVerify.obj
 0001:00151cf0       c9_f_sf_marshall           0000000180152cf0 f   c9_DynJointVerify.obj
 0001:00151f00       c9_g_sf_marshall           0000000180152f00 f   c9_DynJointVerify.obj
 0001:00152050       c9_h_sf_marshall           0000000180153050 f   c9_DynJointVerify.obj
 0001:00152260       sf_opaque_get_sim_state_c9_DynJointVerify 0000000180153260 f   c9_DynJointVerify.obj
 0001:00152280       sf_internal_get_sim_state_c9_DynJointVerify 0000000180153280 f   c9_DynJointVerify.obj
 0001:00152370       get_sim_state_c9_DynJointVerify 0000000180153370 f   c9_DynJointVerify.obj
 0001:00152570       sf_opaque_set_sim_state_c9_DynJointVerify 0000000180153570 f   c9_DynJointVerify.obj
 0001:001525a0       sf_internal_set_sim_state_c9_DynJointVerify 00000001801535a0 f   c9_DynJointVerify.obj
 0001:001526c0       set_sim_state_c9_DynJointVerify 00000001801536c0 f   c9_DynJointVerify.obj
 0001:001527e0       c9_update_debugger_state_c9_DynJointVerify 00000001801537e0 f   c9_DynJointVerify.obj
 0001:001527f0       c9_emlrt_marshallIn        00000001801537f0 f   c9_DynJointVerify.obj
 0001:001528d0       c9_b_emlrt_marshallIn      00000001801538d0 f   c9_DynJointVerify.obj
 0001:00152960       sf_opaque_terminate_c9_DynJointVerify 0000000180153960 f   c9_DynJointVerify.obj
 0001:001529e0       finalize_c9_DynJointVerify 00000001801539e0 f   c9_DynJointVerify.obj
 0001:001529f0       sf_opaque_init_subchart_simstructs 00000001801539f0 f   c9_DynJointVerify.obj
 0001:00152a10       compInitSubchartSimstructsFcn_c9_DynJointVerify 0000000180153a10 f   c9_DynJointVerify.obj
 0001:00152a20       mdlRTW_c9_DynJointVerify   0000000180153a20 f   c9_DynJointVerify.obj
 0001:00152e70       c10_info_helper            0000000180153e70 f   c10_DynJointVerify.obj
 0001:00154c90       c10_b_info_helper          0000000180155c90 f   c10_DynJointVerify.obj
 0001:00156fb0       mdlProcessParameters_c10_DynJointVerify 0000000180157fb0 f   c10_DynJointVerify.obj
 0001:00157070       initialize_params_c10_DynJointVerify 0000000180158070 f   c10_DynJointVerify.obj
 0001:00157210       mdlSetWorkWidths_c10_DynJointVerify 0000000180158210 f   c10_DynJointVerify.obj
 0001:00157750       mdlStart_c10_DynJointVerify 0000000180158750 f   c10_DynJointVerify.obj
 0001:00157970       init_dsm_address_info      0000000180158970 f   c10_DynJointVerify.obj
 0001:00157980       sf_get_sim_state_info_c10_DynJointVerify 0000000180158980 f   c10_DynJointVerify.obj
 0001:00157a40       chart_debug_initialization 0000000180158a40 f   c10_DynJointVerify.obj
 0001:001590f0       init_script_number_translation 000000018015a0f0 f   c10_DynJointVerify.obj
 0001:00159200       c10_sf_marshall            000000018015a200 f   c10_DynJointVerify.obj
 0001:00159340       c10_b_sf_marshall          000000018015a340 f   c10_DynJointVerify.obj
 0001:001594a0       c10_c_sf_marshall          000000018015a4a0 f   c10_DynJointVerify.obj
 0001:001596c0       c10_d_sf_marshall          000000018015a6c0 f   c10_DynJointVerify.obj
 0001:001597f0       sf_opaque_initialize_c10_DynJointVerify 000000018015a7f0 f   c10_DynJointVerify.obj
 0001:00159830       initialize_c10_DynJointVerify 000000018015a830 f   c10_DynJointVerify.obj
 0001:00159870       sf_opaque_enable_c10_DynJointVerify 000000018015a870 f   c10_DynJointVerify.obj
 0001:00159890       enable_c10_DynJointVerify  000000018015a890 f   c10_DynJointVerify.obj
 0001:001598c0       sf_opaque_disable_c10_DynJointVerify 000000018015a8c0 f   c10_DynJointVerify.obj
 0001:001598e0       disable_c10_DynJointVerify 000000018015a8e0 f   c10_DynJointVerify.obj
 0001:00159910       sf_opaque_gateway_c10_DynJointVerify 000000018015a910 f   c10_DynJointVerify.obj
 0001:00159930       sf_c10_DynJointVerify      000000018015a930 f   c10_DynJointVerify.obj
 0001:0015a580       c10_inv_kin                000000018015b580 f   c10_DynJointVerify.obj
 0001:00161aa0       c10_cross                  0000000180162aa0 f   c10_DynJointVerify.obj
 0001:00161ca0       c10_all                    0000000180162ca0 f   c10_DynJointVerify.obj
 0001:00161e00       c10_mrdivide               0000000180162e00 f   c10_DynJointVerify.obj
 0001:00162f30       c10_eml_matlab_zgetrf      0000000180163f30 f   c10_DynJointVerify.obj
 0001:00163dd0       c10_eps                    0000000180164dd0 f   c10_DynJointVerify.obj
 0001:00163de0       c10_eml_ixamax             0000000180164de0 f   c10_DynJointVerify.obj
 0001:00163ee0       c10_ceval_ixamax           0000000180164ee0 f   c10_DynJointVerify.obj
 0001:00163fb0       c10_ceval_xswap            0000000180164fb0 f   c10_DynJointVerify.obj
 0001:00164180       c10_ceval_xger             0000000180165180 f   c10_DynJointVerify.obj
 0001:00164440       c10_eml_warning            0000000180165440 f   c10_DynJointVerify.obj
 0001:00164630       c10_b_eml_scalar_eg        0000000180165630 f   c10_DynJointVerify.obj
 0001:00164640       c10_eml_xtrsm              0000000180165640 f   c10_DynJointVerify.obj
 0001:00164eb0       c10_c_eml_scalar_eg        0000000180165eb0 f   c10_DynJointVerify.obj
 0001:00164ec0       c10_eml_blas_xtrsm         0000000180165ec0 f   c10_DynJointVerify.obj
 0001:00165f00       c10_d_eml_scalar_eg        0000000180166f00 f   c10_DynJointVerify.obj
 0001:00165f10       c10_atan2                  0000000180166f10 f   c10_DynJointVerify.obj
 0001:00165f70       c10_eml_scalar_eg          0000000180166f70 f   c10_DynJointVerify.obj
 0001:00165f80       c10_isInRange              0000000180166f80 f   c10_DynJointVerify.obj
 0001:00166300       c10_expWre                 0000000180167300 f   c10_DynJointVerify.obj
 0001:00167930       c10_length                 0000000180168930 f   c10_DynJointVerify.obj
 0001:00167bf0       c10_eye                    0000000180168bf0 f   c10_DynJointVerify.obj
 0001:00167da0       c10_expRot                 0000000180168da0 f   c10_DynJointVerify.obj
 0001:00168cd0       c10_e_eml_scalar_eg        0000000180169cd0 f   c10_DynJointVerify.obj
 0001:00168ce0       c10_f_eml_scalar_eg        0000000180169ce0 f   c10_DynJointVerify.obj
 0001:00168cf0       c10_subPro3                0000000180169cf0 f   c10_DynJointVerify.obj
 0001:0016bb40       c10_g_eml_scalar_eg        000000018016cb40 f   c10_DynJointVerify.obj
 0001:0016bb50       c10_ceval_xdot             000000018016cb50 f   c10_DynJointVerify.obj
 0001:0016bd00       c10_mpower                 000000018016cd00 f   c10_DynJointVerify.obj
 0001:0016bd40       c10_power                  000000018016cd40 f   c10_DynJointVerify.obj
 0001:0016bdf0       c10_eml_error              000000018016cdf0 f   c10_DynJointVerify.obj
 0001:0016bfe0       c10_norm                   000000018016cfe0 f   c10_DynJointVerify.obj
 0001:0016c130       c10_ceval_xnrm2            000000018016d130 f   c10_DynJointVerify.obj
 0001:0016c200       c10_b_eml_error            000000018016d200 f   c10_DynJointVerify.obj
 0001:0016c3f0       c10_b_isInRange            000000018016d3f0 f   c10_DynJointVerify.obj
 0001:0016c9c0       c10_any                    000000018016d9c0 f   c10_DynJointVerify.obj
 0001:0016cbd0       c10_subPro1                000000018016dbd0 f   c10_DynJointVerify.obj
 0001:0016e320       c10_subPro2                000000018016f320 f   c10_DynJointVerify.obj
 0001:00173280       c10_findCommon             0000000180174280 f   c10_DynJointVerify.obj
 0001:001749c0       c10_det                    00000001801759c0 f   c10_DynJointVerify.obj
 0001:00174db0       c10_b_eml_matlab_zgetrf    0000000180175db0 f   c10_DynJointVerify.obj
 0001:00175620       c10_b_eml_ixamax           0000000180176620 f   c10_DynJointVerify.obj
 0001:001756e0       c10_b_ceval_ixamax         00000001801766e0 f   c10_DynJointVerify.obj
 0001:001757b0       c10_b_ceval_xswap          00000001801767b0 f   c10_DynJointVerify.obj
 0001:00175980       c10_b_ceval_xger           0000000180176980 f   c10_DynJointVerify.obj
 0001:00175c40       c10_c_eml_error            0000000180176c40 f   c10_DynJointVerify.obj
 0001:00175e20       c10_b_subPro1              0000000180176e20 f   c10_DynJointVerify.obj
 0001:00177570       c10_c_subPro1              0000000180178570 f   c10_DynJointVerify.obj
 0001:00178cc0       c10_e_sf_marshall          0000000180179cc0 f   c10_DynJointVerify.obj
 0001:00178d70       c10_f_sf_marshall          0000000180179d70 f   c10_DynJointVerify.obj
 0001:00178f80       c10_g_sf_marshall          0000000180179f80 f   c10_DynJointVerify.obj
 0001:00179190       c10_h_sf_marshall          000000018017a190 f   c10_DynJointVerify.obj
 0001:00179240       c10_i_sf_marshall          000000018017a240 f   c10_DynJointVerify.obj
 0001:00179360       c10_j_sf_marshall          000000018017a360 f   c10_DynJointVerify.obj
 0001:00179490       c10_k_sf_marshall          000000018017a490 f   c10_DynJointVerify.obj
 0001:001795a0       c10_l_sf_marshall          000000018017a5a0 f   c10_DynJointVerify.obj
 0001:001797a0       sf_opaque_get_sim_state_c10_DynJointVerify 000000018017a7a0 f   c10_DynJointVerify.obj
 0001:001797c0       sf_internal_get_sim_state_c10_DynJointVerify 000000018017a7c0 f   c10_DynJointVerify.obj
 0001:001798b0       get_sim_state_c10_DynJointVerify 000000018017a8b0 f   c10_DynJointVerify.obj
 0001:00179af0       sf_opaque_set_sim_state_c10_DynJointVerify 000000018017aaf0 f   c10_DynJointVerify.obj
 0001:00179b20       sf_internal_set_sim_state_c10_DynJointVerify 000000018017ab20 f   c10_DynJointVerify.obj
 0001:00179c40       set_sim_state_c10_DynJointVerify 000000018017ac40 f   c10_DynJointVerify.obj
 0001:00179d70       c10_update_debugger_state_c10_DynJointVerify 000000018017ad70 f   c10_DynJointVerify.obj
 0001:00179d80       c10_emlrt_marshallIn       000000018017ad80 f   c10_DynJointVerify.obj
 0001:00179e50       c10_b_emlrt_marshallIn     000000018017ae50 f   c10_DynJointVerify.obj
 0001:00179ee0       sf_opaque_terminate_c10_DynJointVerify 000000018017aee0 f   c10_DynJointVerify.obj
 0001:00179f60       finalize_c10_DynJointVerify 000000018017af60 f   c10_DynJointVerify.obj
 0001:00179f70       sf_opaque_init_subchart_simstructs 000000018017af70 f   c10_DynJointVerify.obj
 0001:00179f90       compInitSubchartSimstructsFcn_c10_DynJointVerify 000000018017af90 f   c10_DynJointVerify.obj
 0001:00179fa0       mdlRTW_c10_DynJointVerify  000000018017afa0 f   c10_DynJointVerify.obj
 0001:0017a3b0       c11_info_helper            000000018017b3b0 f   c11_DynJointVerify.obj
 0001:0017c1d0       c11_b_info_helper          000000018017d1d0 f   c11_DynJointVerify.obj
 0001:0017db00       mdlProcessParameters_c11_DynJointVerify 000000018017eb00 f   c11_DynJointVerify.obj
 0001:0017dbc0       initialize_params_c11_DynJointVerify 000000018017ebc0 f   c11_DynJointVerify.obj
 0001:0017dca0       mdlSetWorkWidths_c11_DynJointVerify 000000018017eca0 f   c11_DynJointVerify.obj
 0001:0017e160       mdlStart_c11_DynJointVerify 000000018017f160 f   c11_DynJointVerify.obj
 0001:0017e370       init_dsm_address_info      000000018017f370 f   c11_DynJointVerify.obj
 0001:0017e380       sf_get_sim_state_info_c11_DynJointVerify 000000018017f380 f   c11_DynJointVerify.obj
 0001:0017e440       chart_debug_initialization 000000018017f440 f   c11_DynJointVerify.obj
 0001:0017f0e0       init_script_number_translation 00000001801800e0 f   c11_DynJointVerify.obj
 0001:0017f190       c11_sf_marshall            0000000180180190 f   c11_DynJointVerify.obj
 0001:0017f2d0       c11_b_sf_marshall          00000001801802d0 f   c11_DynJointVerify.obj
 0001:0017f420       c11_c_sf_marshall          0000000180180420 f   c11_DynJointVerify.obj
 0001:0017f560       sf_opaque_initialize_c11_DynJointVerify 0000000180180560 f   c11_DynJointVerify.obj
 0001:0017f5a0       initialize_c11_DynJointVerify 00000001801805a0 f   c11_DynJointVerify.obj
 0001:0017f5e0       sf_opaque_enable_c11_DynJointVerify 00000001801805e0 f   c11_DynJointVerify.obj
 0001:0017f600       enable_c11_DynJointVerify  0000000180180600 f   c11_DynJointVerify.obj
 0001:0017f630       sf_opaque_disable_c11_DynJointVerify 0000000180180630 f   c11_DynJointVerify.obj
 0001:0017f650       disable_c11_DynJointVerify 0000000180180650 f   c11_DynJointVerify.obj
 0001:0017f680       sf_opaque_gateway_c11_DynJointVerify 0000000180180680 f   c11_DynJointVerify.obj
 0001:0017f6a0       sf_c11_DynJointVerify      00000001801806a0 f   c11_DynJointVerify.obj
 0001:0017f970       c11_c11_DynJointVerify     0000000180180970 f   c11_DynJointVerify.obj
 0001:001817e0       c11_fwd_kin                00000001801827e0 f   c11_DynJointVerify.obj
 0001:001851e0       c11_body_Jacobian          00000001801861e0 f   c11_DynJointVerify.obj
 0001:001886b0       c11_AdjointInv             00000001801896b0 f   c11_DynJointVerify.obj
 0001:00189940       c11_eml_scalar_eg          000000018018a940 f   c11_DynJointVerify.obj
 0001:00189950       c11_eml_matlab_zgetrf      000000018018a950 f   c11_DynJointVerify.obj
 0001:0018a770       c11_eps                    000000018018b770 f   c11_DynJointVerify.obj
 0001:0018a780       c11_eml_ixamax             000000018018b780 f   c11_DynJointVerify.obj
 0001:0018a880       c11_ceval_ixamax           000000018018b880 f   c11_DynJointVerify.obj
 0001:0018a950       c11_ceval_xswap            000000018018b950 f   c11_DynJointVerify.obj
 0001:0018ab00       c11_ceval_xger             000000018018bb00 f   c11_DynJointVerify.obj
 0001:0018ada0       c11_eml_warning            000000018018bda0 f   c11_DynJointVerify.obj
 0001:0018af70       c11_eml_blas_xtrsm         000000018018bf70 f   c11_DynJointVerify.obj
 0001:0018b0e0       c11_ceval_xtrsm            000000018018c0e0 f   c11_DynJointVerify.obj
 0001:0018b300       c11_b_eml_blas_xtrsm       000000018018c300 f   c11_DynJointVerify.obj
 0001:0018b470       c11_b_ceval_xtrsm          000000018018c470 f   c11_DynJointVerify.obj
 0001:0018b690       c11_b_eml_scalar_eg        000000018018c690 f   c11_DynJointVerify.obj
 0001:0018b6a0       c11_d_sf_marshall          000000018018c6a0 f   c11_DynJointVerify.obj
 0001:0018b750       c11_e_sf_marshall          000000018018c750 f   c11_DynJointVerify.obj
 0001:0018b950       c11_f_sf_marshall          000000018018c950 f   c11_DynJointVerify.obj
 0001:0018bb50       c11_g_sf_marshall          000000018018cb50 f   c11_DynJointVerify.obj
 0001:0018bcb0       c11_h_sf_marshall          000000018018ccb0 f   c11_DynJointVerify.obj
 0001:0018beb0       sf_opaque_get_sim_state_c11_DynJointVerify 000000018018ceb0 f   c11_DynJointVerify.obj
 0001:0018bed0       sf_internal_get_sim_state_c11_DynJointVerify 000000018018ced0 f   c11_DynJointVerify.obj
 0001:0018bfc0       get_sim_state_c11_DynJointVerify 000000018018cfc0 f   c11_DynJointVerify.obj
 0001:0018c1d0       sf_opaque_set_sim_state_c11_DynJointVerify 000000018018d1d0 f   c11_DynJointVerify.obj
 0001:0018c200       sf_internal_set_sim_state_c11_DynJointVerify 000000018018d200 f   c11_DynJointVerify.obj
 0001:0018c320       set_sim_state_c11_DynJointVerify 000000018018d320 f   c11_DynJointVerify.obj
 0001:0018c440       c11_update_debugger_state_c11_DynJointVerify 000000018018d440 f   c11_DynJointVerify.obj
 0001:0018c450       c11_emlrt_marshallIn       000000018018d450 f   c11_DynJointVerify.obj
 0001:0018c530       c11_b_emlrt_marshallIn     000000018018d530 f   c11_DynJointVerify.obj
 0001:0018c5c0       sf_opaque_terminate_c11_DynJointVerify 000000018018d5c0 f   c11_DynJointVerify.obj
 0001:0018c640       finalize_c11_DynJointVerify 000000018018d640 f   c11_DynJointVerify.obj
 0001:0018c650       sf_opaque_init_subchart_simstructs 000000018018d650 f   c11_DynJointVerify.obj
 0001:0018c670       compInitSubchartSimstructsFcn_c11_DynJointVerify 000000018018d670 f   c11_DynJointVerify.obj
 0001:0018c680       mdlRTW_c11_DynJointVerify  000000018018d680 f   c11_DynJointVerify.obj
 0001:0018ca80       c12_info_helper            000000018018da80 f   c12_DynJointVerify.obj
 0001:0018e3a0       mdlProcessParameters_c12_DynJointVerify 000000018018f3a0 f   c12_DynJointVerify.obj
 0001:0018e460       initialize_params_c12_DynJointVerify 000000018018f460 f   c12_DynJointVerify.obj
 0001:0018e540       mdlSetWorkWidths_c12_DynJointVerify 000000018018f540 f   c12_DynJointVerify.obj
 0001:0018e9d0       mdlStart_c12_DynJointVerify 000000018018f9d0 f   c12_DynJointVerify.obj
 0001:0018ebe0       init_dsm_address_info      000000018018fbe0 f   c12_DynJointVerify.obj
 0001:0018ebf0       sf_get_sim_state_info_c12_DynJointVerify 000000018018fbf0 f   c12_DynJointVerify.obj
 0001:0018ecb0       chart_debug_initialization 000000018018fcb0 f   c12_DynJointVerify.obj
 0001:0018f540       init_script_number_translation 0000000180190540 f   c12_DynJointVerify.obj
 0001:0018f580       c12_sf_marshall            0000000180190580 f   c12_DynJointVerify.obj
 0001:0018f6c0       c12_b_sf_marshall          00000001801906c0 f   c12_DynJointVerify.obj
 0001:0018f830       c12_c_sf_marshall          0000000180190830 f   c12_DynJointVerify.obj
 0001:0018f970       sf_opaque_initialize_c12_DynJointVerify 0000000180190970 f   c12_DynJointVerify.obj
 0001:0018f9b0       initialize_c12_DynJointVerify 00000001801909b0 f   c12_DynJointVerify.obj
 0001:0018f9f0       sf_opaque_enable_c12_DynJointVerify 00000001801909f0 f   c12_DynJointVerify.obj
 0001:0018fa10       enable_c12_DynJointVerify  0000000180190a10 f   c12_DynJointVerify.obj
 0001:0018fa40       sf_opaque_disable_c12_DynJointVerify 0000000180190a40 f   c12_DynJointVerify.obj
 0001:0018fa60       disable_c12_DynJointVerify 0000000180190a60 f   c12_DynJointVerify.obj
 0001:0018fa90       sf_opaque_gateway_c12_DynJointVerify 0000000180190a90 f   c12_DynJointVerify.obj
 0001:0018fab0       sf_c12_DynJointVerify      0000000180190ab0 f   c12_DynJointVerify.obj
 0001:001902f0       c12_fwd_kin                00000001801912f0 f   c12_DynJointVerify.obj
 0001:00193c70       c12_d_sf_marshall          0000000180194c70 f   c12_DynJointVerify.obj
 0001:00193d20       c12_e_sf_marshall          0000000180194d20 f   c12_DynJointVerify.obj
 0001:00193f50       c12_f_sf_marshall          0000000180194f50 f   c12_DynJointVerify.obj
 0001:001940c0       sf_opaque_get_sim_state_c12_DynJointVerify 00000001801950c0 f   c12_DynJointVerify.obj
 0001:001940e0       sf_internal_get_sim_state_c12_DynJointVerify 00000001801950e0 f   c12_DynJointVerify.obj
 0001:001941d0       get_sim_state_c12_DynJointVerify 00000001801951d0 f   c12_DynJointVerify.obj
 0001:001943f0       sf_opaque_set_sim_state_c12_DynJointVerify 00000001801953f0 f   c12_DynJointVerify.obj
 0001:00194420       sf_internal_set_sim_state_c12_DynJointVerify 0000000180195420 f   c12_DynJointVerify.obj
 0001:00194540       set_sim_state_c12_DynJointVerify 0000000180195540 f   c12_DynJointVerify.obj
 0001:00194650       c12_update_debugger_state_c12_DynJointVerify 0000000180195650 f   c12_DynJointVerify.obj
 0001:00194660       c12_emlrt_marshallIn       0000000180195660 f   c12_DynJointVerify.obj
 0001:00194730       c12_b_emlrt_marshallIn     0000000180195730 f   c12_DynJointVerify.obj
 0001:001947c0       sf_opaque_terminate_c12_DynJointVerify 00000001801957c0 f   c12_DynJointVerify.obj
 0001:00194840       finalize_c12_DynJointVerify 0000000180195840 f   c12_DynJointVerify.obj
 0001:00194850       sf_opaque_init_subchart_simstructs 0000000180195850 f   c12_DynJointVerify.obj
 0001:00194870       compInitSubchartSimstructsFcn_c12_DynJointVerify 0000000180195870 f   c12_DynJointVerify.obj
 0001:00194880       mdlRTW_c12_DynJointVerify  0000000180195880 f   c12_DynJointVerify.obj
 0001:00194cb0       c13_info_helper            0000000180195cb0 f   c13_DynJointVerify.obj
 0001:00197090       mdlProcessParameters_c13_DynJointVerify 0000000180198090 f   c13_DynJointVerify.obj
 0001:00197150       initialize_params_c13_DynJointVerify 0000000180198150 f   c13_DynJointVerify.obj
 0001:00197240       mdlSetWorkWidths_c13_DynJointVerify 0000000180198240 f   c13_DynJointVerify.obj
 0001:00197700       mdlStart_c13_DynJointVerify 0000000180198700 f   c13_DynJointVerify.obj
 0001:00197910       init_dsm_address_info      0000000180198910 f   c13_DynJointVerify.obj
 0001:00197920       sf_get_sim_state_info_c13_DynJointVerify 0000000180198920 f   c13_DynJointVerify.obj
 0001:001979e0       chart_debug_initialization 00000001801989e0 f   c13_DynJointVerify.obj
 0001:00198460       init_script_number_translation 0000000180199460 f   c13_DynJointVerify.obj
 0001:001984c0       c13_sf_marshall            00000001801994c0 f   c13_DynJointVerify.obj
 0001:00198600       c13_b_sf_marshall          0000000180199600 f   c13_DynJointVerify.obj
 0001:00198760       c13_c_sf_marshall          0000000180199760 f   c13_DynJointVerify.obj
 0001:001988a0       sf_opaque_initialize_c13_DynJointVerify 00000001801998a0 f   c13_DynJointVerify.obj
 0001:001988e0       initialize_c13_DynJointVerify 00000001801998e0 f   c13_DynJointVerify.obj
 0001:00198920       sf_opaque_enable_c13_DynJointVerify 0000000180199920 f   c13_DynJointVerify.obj
 0001:00198940       enable_c13_DynJointVerify  0000000180199940 f   c13_DynJointVerify.obj
 0001:00198970       sf_opaque_disable_c13_DynJointVerify 0000000180199970 f   c13_DynJointVerify.obj
 0001:00198990       disable_c13_DynJointVerify 0000000180199990 f   c13_DynJointVerify.obj
 0001:001989c0       sf_opaque_gateway_c13_DynJointVerify 00000001801999c0 f   c13_DynJointVerify.obj
 0001:001989e0       sf_c13_DynJointVerify      00000001801999e0 f   c13_DynJointVerify.obj
 0001:00198cb0       c13_c13_DynJointVerify     0000000180199cb0 f   c13_DynJointVerify.obj
 0001:00199bd0       c13_spat_Jacobian          000000018019abd0 f   c13_DynJointVerify.obj
 0001:0019ca50       c13_eml_scalar_eg          000000018019da50 f   c13_DynJointVerify.obj
 0001:0019ca60       c13_b_eml_scalar_eg        000000018019da60 f   c13_DynJointVerify.obj
 0001:0019ca70       c13_fwd_kin                000000018019da70 f   c13_DynJointVerify.obj
 0001:001a0440       c13_d_sf_marshall          00000001801a1440 f   c13_DynJointVerify.obj
 0001:001a04f0       c13_e_sf_marshall          00000001801a14f0 f   c13_DynJointVerify.obj
 0001:001a0710       c13_f_sf_marshall          00000001801a1710 f   c13_DynJointVerify.obj
 0001:001a0930       c13_g_sf_marshall          00000001801a1930 f   c13_DynJointVerify.obj
 0001:001a0a90       sf_opaque_get_sim_state_c13_DynJointVerify 00000001801a1a90 f   c13_DynJointVerify.obj
 0001:001a0ab0       sf_internal_get_sim_state_c13_DynJointVerify 00000001801a1ab0 f   c13_DynJointVerify.obj
 0001:001a0ba0       get_sim_state_c13_DynJointVerify 00000001801a1ba0 f   c13_DynJointVerify.obj
 0001:001a0dc0       sf_opaque_set_sim_state_c13_DynJointVerify 00000001801a1dc0 f   c13_DynJointVerify.obj
 0001:001a0df0       sf_internal_set_sim_state_c13_DynJointVerify 00000001801a1df0 f   c13_DynJointVerify.obj
 0001:001a0f10       set_sim_state_c13_DynJointVerify 00000001801a1f10 f   c13_DynJointVerify.obj
 0001:001a1020       c13_update_debugger_state_c13_DynJointVerify 00000001801a2020 f   c13_DynJointVerify.obj
 0001:001a1030       c13_emlrt_marshallIn       00000001801a2030 f   c13_DynJointVerify.obj
 0001:001a1100       c13_b_emlrt_marshallIn     00000001801a2100 f   c13_DynJointVerify.obj
 0001:001a1190       sf_opaque_terminate_c13_DynJointVerify 00000001801a2190 f   c13_DynJointVerify.obj
 0001:001a1210       finalize_c13_DynJointVerify 00000001801a2210 f   c13_DynJointVerify.obj
 0001:001a1220       sf_opaque_init_subchart_simstructs 00000001801a2220 f   c13_DynJointVerify.obj
 0001:001a1240       compInitSubchartSimstructsFcn_c13_DynJointVerify 00000001801a2240 f   c13_DynJointVerify.obj
 0001:001a1250       mdlRTW_c13_DynJointVerify  00000001801a2250 f   c13_DynJointVerify.obj
 0001:001a1660       c14_info_helper            00000001801a2660 f   c14_DynJointVerify.obj
 0001:001a3480       c14_b_info_helper          00000001801a4480 f   c14_DynJointVerify.obj
 0001:001a57a0       mdlProcessParameters_c14_DynJointVerify 00000001801a67a0 f   c14_DynJointVerify.obj
 0001:001a5860       initialize_params_c14_DynJointVerify 00000001801a6860 f   c14_DynJointVerify.obj
 0001:001a5a00       mdlSetWorkWidths_c14_DynJointVerify 00000001801a6a00 f   c14_DynJointVerify.obj
 0001:001a5f40       mdlStart_c14_DynJointVerify 00000001801a6f40 f   c14_DynJointVerify.obj
 0001:001a6160       init_dsm_address_info      00000001801a7160 f   c14_DynJointVerify.obj
 0001:001a6170       sf_get_sim_state_info_c14_DynJointVerify 00000001801a7170 f   c14_DynJointVerify.obj
 0001:001a6230       chart_debug_initialization 00000001801a7230 f   c14_DynJointVerify.obj
 0001:001a78e0       init_script_number_translation 00000001801a88e0 f   c14_DynJointVerify.obj
 0001:001a79f0       c14_sf_marshall            00000001801a89f0 f   c14_DynJointVerify.obj
 0001:001a7b40       c14_b_sf_marshall          00000001801a8b40 f   c14_DynJointVerify.obj
 0001:001a7cb0       c14_c_sf_marshall          00000001801a8cb0 f   c14_DynJointVerify.obj
 0001:001a7ee0       c14_d_sf_marshall          00000001801a8ee0 f   c14_DynJointVerify.obj
 0001:001a8020       sf_opaque_initialize_c14_DynJointVerify 00000001801a9020 f   c14_DynJointVerify.obj
 0001:001a8060       initialize_c14_DynJointVerify 00000001801a9060 f   c14_DynJointVerify.obj
 0001:001a80a0       sf_opaque_enable_c14_DynJointVerify 00000001801a90a0 f   c14_DynJointVerify.obj
 0001:001a80c0       enable_c14_DynJointVerify  00000001801a90c0 f   c14_DynJointVerify.obj
 0001:001a80f0       sf_opaque_disable_c14_DynJointVerify 00000001801a90f0 f   c14_DynJointVerify.obj
 0001:001a8110       disable_c14_DynJointVerify 00000001801a9110 f   c14_DynJointVerify.obj
 0001:001a8140       sf_opaque_gateway_c14_DynJointVerify 00000001801a9140 f   c14_DynJointVerify.obj
 0001:001a8160       sf_c14_DynJointVerify      00000001801a9160 f   c14_DynJointVerify.obj
 0001:001a8d70       c14_inv_kin                00000001801a9d70 f   c14_DynJointVerify.obj
 0001:001b0290       c14_cross                  00000001801b1290 f   c14_DynJointVerify.obj
 0001:001b0490       c14_all                    00000001801b1490 f   c14_DynJointVerify.obj
 0001:001b05f0       c14_mrdivide               00000001801b15f0 f   c14_DynJointVerify.obj
 0001:001b1730       c14_eml_matlab_zgetrf      00000001801b2730 f   c14_DynJointVerify.obj
 0001:001b25b0       c14_eps                    00000001801b35b0 f   c14_DynJointVerify.obj
 0001:001b25c0       c14_eml_ixamax             00000001801b35c0 f   c14_DynJointVerify.obj
 0001:001b26c0       c14_ceval_ixamax           00000001801b36c0 f   c14_DynJointVerify.obj
 0001:001b2790       c14_ceval_xswap            00000001801b3790 f   c14_DynJointVerify.obj
 0001:001b2960       c14_ceval_xger             00000001801b3960 f   c14_DynJointVerify.obj
 0001:001b2c20       c14_eml_warning            00000001801b3c20 f   c14_DynJointVerify.obj
 0001:001b2e10       c14_b_eml_scalar_eg        00000001801b3e10 f   c14_DynJointVerify.obj
 0001:001b2e20       c14_eml_xtrsm              00000001801b3e20 f   c14_DynJointVerify.obj
 0001:001b3640       c14_c_eml_scalar_eg        00000001801b4640 f   c14_DynJointVerify.obj
 0001:001b3650       c14_eml_blas_xtrsm         00000001801b4650 f   c14_DynJointVerify.obj
 0001:001b4650       c14_d_eml_scalar_eg        00000001801b5650 f   c14_DynJointVerify.obj
 0001:001b4660       c14_atan2                  00000001801b5660 f   c14_DynJointVerify.obj
 0001:001b46c0       c14_eml_scalar_eg          00000001801b56c0 f   c14_DynJointVerify.obj
 0001:001b46d0       c14_isInRange              00000001801b56d0 f   c14_DynJointVerify.obj
 0001:001b4a50       c14_expWre                 00000001801b5a50 f   c14_DynJointVerify.obj
 0001:001b6050       c14_length                 00000001801b7050 f   c14_DynJointVerify.obj
 0001:001b6310       c14_eye                    00000001801b7310 f   c14_DynJointVerify.obj
 0001:001b64c0       c14_expRot                 00000001801b74c0 f   c14_DynJointVerify.obj
 0001:001b7370       c14_e_eml_scalar_eg        00000001801b8370 f   c14_DynJointVerify.obj
 0001:001b7380       c14_f_eml_scalar_eg        00000001801b8380 f   c14_DynJointVerify.obj
 0001:001b7390       c14_subPro3                00000001801b8390 f   c14_DynJointVerify.obj
 0001:001ba1b0       c14_g_eml_scalar_eg        00000001801bb1b0 f   c14_DynJointVerify.obj
 0001:001ba1c0       c14_ceval_xdot             00000001801bb1c0 f   c14_DynJointVerify.obj
 0001:001ba370       c14_mpower                 00000001801bb370 f   c14_DynJointVerify.obj
 0001:001ba3b0       c14_power                  00000001801bb3b0 f   c14_DynJointVerify.obj
 0001:001ba460       c14_eml_error              00000001801bb460 f   c14_DynJointVerify.obj
 0001:001ba640       c14_norm                   00000001801bb640 f   c14_DynJointVerify.obj
 0001:001ba780       c14_ceval_xnrm2            00000001801bb780 f   c14_DynJointVerify.obj
 0001:001ba850       c14_b_eml_error            00000001801bb850 f   c14_DynJointVerify.obj
 0001:001baa30       c14_b_isInRange            00000001801bba30 f   c14_DynJointVerify.obj
 0001:001bafb0       c14_any                    00000001801bbfb0 f   c14_DynJointVerify.obj
 0001:001bb1c0       c14_subPro1                00000001801bc1c0 f   c14_DynJointVerify.obj
 0001:001bc900       c14_subPro2                00000001801bd900 f   c14_DynJointVerify.obj
 0001:001c1820       c14_findCommon             00000001801c2820 f   c14_DynJointVerify.obj
 0001:001c2f40       c14_det                    00000001801c3f40 f   c14_DynJointVerify.obj
 0001:001c3330       c14_b_eml_matlab_zgetrf    00000001801c4330 f   c14_DynJointVerify.obj
 0001:001c3bd0       c14_b_eml_ixamax           00000001801c4bd0 f   c14_DynJointVerify.obj
 0001:001c3c90       c14_b_ceval_ixamax         00000001801c4c90 f   c14_DynJointVerify.obj
 0001:001c3d60       c14_b_ceval_xswap          00000001801c4d60 f   c14_DynJointVerify.obj
 0001:001c3f30       c14_b_ceval_xger           00000001801c4f30 f   c14_DynJointVerify.obj
 0001:001c41f0       c14_c_eml_error            00000001801c51f0 f   c14_DynJointVerify.obj
 0001:001c43d0       c14_b_subPro1              00000001801c53d0 f   c14_DynJointVerify.obj
 0001:001c5b10       c14_c_subPro1              00000001801c6b10 f   c14_DynJointVerify.obj
 0001:001c7250       c14_e_sf_marshall          00000001801c8250 f   c14_DynJointVerify.obj
 0001:001c7300       c14_f_sf_marshall          00000001801c8300 f   c14_DynJointVerify.obj
 0001:001c7530       c14_g_sf_marshall          00000001801c8530 f   c14_DynJointVerify.obj
 0001:001c7760       c14_h_sf_marshall          00000001801c8760 f   c14_DynJointVerify.obj
 0001:001c7810       c14_i_sf_marshall          00000001801c8810 f   c14_DynJointVerify.obj
 0001:001c7930       c14_j_sf_marshall          00000001801c8930 f   c14_DynJointVerify.obj
 0001:001c7a70       c14_k_sf_marshall          00000001801c8a70 f   c14_DynJointVerify.obj
 0001:001c7b80       c14_l_sf_marshall          00000001801c8b80 f   c14_DynJointVerify.obj
 0001:001c7d70       sf_opaque_get_sim_state_c14_DynJointVerify 00000001801c8d70 f   c14_DynJointVerify.obj
 0001:001c7d90       sf_internal_get_sim_state_c14_DynJointVerify 00000001801c8d90 f   c14_DynJointVerify.obj
 0001:001c7e80       get_sim_state_c14_DynJointVerify 00000001801c8e80 f   c14_DynJointVerify.obj
 0001:001c80c0       sf_opaque_set_sim_state_c14_DynJointVerify 00000001801c90c0 f   c14_DynJointVerify.obj
 0001:001c80f0       sf_internal_set_sim_state_c14_DynJointVerify 00000001801c90f0 f   c14_DynJointVerify.obj
 0001:001c8210       set_sim_state_c14_DynJointVerify 00000001801c9210 f   c14_DynJointVerify.obj
 0001:001c8340       c14_update_debugger_state_c14_DynJointVerify 00000001801c9340 f   c14_DynJointVerify.obj
 0001:001c8350       c14_emlrt_marshallIn       00000001801c9350 f   c14_DynJointVerify.obj
 0001:001c8420       c14_b_emlrt_marshallIn     00000001801c9420 f   c14_DynJointVerify.obj
 0001:001c84b0       sf_opaque_terminate_c14_DynJointVerify 00000001801c94b0 f   c14_DynJointVerify.obj
 0001:001c8530       finalize_c14_DynJointVerify 00000001801c9530 f   c14_DynJointVerify.obj
 0001:001c8540       sf_opaque_init_subchart_simstructs 00000001801c9540 f   c14_DynJointVerify.obj
 0001:001c8560       compInitSubchartSimstructsFcn_c14_DynJointVerify 00000001801c9560 f   c14_DynJointVerify.obj
 0001:001c8570       mdlRTW_c14_DynJointVerify  00000001801c9570 f   c14_DynJointVerify.obj
 0001:001c8980       c15_info_helper            00000001801c9980 f   c15_DynJointVerify.obj
 0001:001ca7a0       c15_b_info_helper          00000001801cb7a0 f   c15_DynJointVerify.obj
 0001:001cc0d0       mdlProcessParameters_c15_DynJointVerify 00000001801cd0d0 f   c15_DynJointVerify.obj
 0001:001cc190       initialize_params_c15_DynJointVerify 00000001801cd190 f   c15_DynJointVerify.obj
 0001:001cc270       mdlSetWorkWidths_c15_DynJointVerify 00000001801cd270 f   c15_DynJointVerify.obj
 0001:001cc730       mdlStart_c15_DynJointVerify 00000001801cd730 f   c15_DynJointVerify.obj
 0001:001cc940       init_dsm_address_info      00000001801cd940 f   c15_DynJointVerify.obj
 0001:001cc950       sf_get_sim_state_info_c15_DynJointVerify 00000001801cd950 f   c15_DynJointVerify.obj
 0001:001cca10       chart_debug_initialization 00000001801cda10 f   c15_DynJointVerify.obj
 0001:001cd6b0       init_script_number_translation 00000001801ce6b0 f   c15_DynJointVerify.obj
 0001:001cd760       c15_sf_marshall            00000001801ce760 f   c15_DynJointVerify.obj
 0001:001cd8a0       c15_b_sf_marshall          00000001801ce8a0 f   c15_DynJointVerify.obj
 0001:001cda00       c15_c_sf_marshall          00000001801cea00 f   c15_DynJointVerify.obj
 0001:001cdb20       sf_opaque_initialize_c15_DynJointVerify 00000001801ceb20 f   c15_DynJointVerify.obj
 0001:001cdb60       initialize_c15_DynJointVerify 00000001801ceb60 f   c15_DynJointVerify.obj
 0001:001cdba0       sf_opaque_enable_c15_DynJointVerify 00000001801ceba0 f   c15_DynJointVerify.obj
 0001:001cdbc0       enable_c15_DynJointVerify  00000001801cebc0 f   c15_DynJointVerify.obj
 0001:001cdbf0       sf_opaque_disable_c15_DynJointVerify 00000001801cebf0 f   c15_DynJointVerify.obj
 0001:001cdc10       disable_c15_DynJointVerify 00000001801cec10 f   c15_DynJointVerify.obj
 0001:001cdc40       sf_opaque_gateway_c15_DynJointVerify 00000001801cec40 f   c15_DynJointVerify.obj
 0001:001cdc60       sf_c15_DynJointVerify      00000001801cec60 f   c15_DynJointVerify.obj
 0001:001cdf30       c15_c15_DynJointVerify     00000001801cef30 f   c15_DynJointVerify.obj
 0001:001cfd80       c15_fwd_kin                00000001801d0d80 f   c15_DynJointVerify.obj
 0001:001d37b0       c15_body_Jacobian          00000001801d47b0 f   c15_DynJointVerify.obj
 0001:001d6c00       c15_AdjointInv             00000001801d7c00 f   c15_DynJointVerify.obj
 0001:001d7e40       c15_eml_scalar_eg          00000001801d8e40 f   c15_DynJointVerify.obj
 0001:001d7e50       c15_eml_matlab_zgetrf      00000001801d8e50 f   c15_DynJointVerify.obj
 0001:001d8ce0       c15_eps                    00000001801d9ce0 f   c15_DynJointVerify.obj
 0001:001d8cf0       c15_eml_ixamax             00000001801d9cf0 f   c15_DynJointVerify.obj
 0001:001d8de0       c15_ceval_ixamax           00000001801d9de0 f   c15_DynJointVerify.obj
 0001:001d8eb0       c15_ceval_xswap            00000001801d9eb0 f   c15_DynJointVerify.obj
 0001:001d9060       c15_ceval_xger             00000001801da060 f   c15_DynJointVerify.obj
 0001:001d9300       c15_eml_warning            00000001801da300 f   c15_DynJointVerify.obj
 0001:001d94c0       c15_eml_blas_xtrsm         00000001801da4c0 f   c15_DynJointVerify.obj
 0001:001d9650       c15_ceval_xtrsm            00000001801da650 f   c15_DynJointVerify.obj
 0001:001d9870       c15_b_eml_blas_xtrsm       00000001801da870 f   c15_DynJointVerify.obj
 0001:001d9a00       c15_b_ceval_xtrsm          00000001801daa00 f   c15_DynJointVerify.obj
 0001:001d9c20       c15_b_eml_scalar_eg        00000001801dac20 f   c15_DynJointVerify.obj
 0001:001d9c30       c15_d_sf_marshall          00000001801dac30 f   c15_DynJointVerify.obj
 0001:001d9ce0       c15_e_sf_marshall          00000001801dace0 f   c15_DynJointVerify.obj
 0001:001d9ee0       c15_f_sf_marshall          00000001801daee0 f   c15_DynJointVerify.obj
 0001:001da0d0       c15_g_sf_marshall          00000001801db0d0 f   c15_DynJointVerify.obj
 0001:001da230       c15_h_sf_marshall          00000001801db230 f   c15_DynJointVerify.obj
 0001:001da440       sf_opaque_get_sim_state_c15_DynJointVerify 00000001801db440 f   c15_DynJointVerify.obj
 0001:001da460       sf_internal_get_sim_state_c15_DynJointVerify 00000001801db460 f   c15_DynJointVerify.obj
 0001:001da550       get_sim_state_c15_DynJointVerify 00000001801db550 f   c15_DynJointVerify.obj
 0001:001da760       sf_opaque_set_sim_state_c15_DynJointVerify 00000001801db760 f   c15_DynJointVerify.obj
 0001:001da790       sf_internal_set_sim_state_c15_DynJointVerify 00000001801db790 f   c15_DynJointVerify.obj
 0001:001da8b0       set_sim_state_c15_DynJointVerify 00000001801db8b0 f   c15_DynJointVerify.obj
 0001:001da9d0       c15_update_debugger_state_c15_DynJointVerify 00000001801db9d0 f   c15_DynJointVerify.obj
 0001:001da9e0       c15_emlrt_marshallIn       00000001801db9e0 f   c15_DynJointVerify.obj
 0001:001daab0       c15_b_emlrt_marshallIn     00000001801dbab0 f   c15_DynJointVerify.obj
 0001:001dab40       sf_opaque_terminate_c15_DynJointVerify 00000001801dbb40 f   c15_DynJointVerify.obj
 0001:001dabc0       finalize_c15_DynJointVerify 00000001801dbbc0 f   c15_DynJointVerify.obj
 0001:001dabd0       sf_opaque_init_subchart_simstructs 00000001801dbbd0 f   c15_DynJointVerify.obj
 0001:001dabf0       compInitSubchartSimstructsFcn_c15_DynJointVerify 00000001801dbbf0 f   c15_DynJointVerify.obj
 0001:001dac00       mdlRTW_c15_DynJointVerify  00000001801dbc00 f   c15_DynJointVerify.obj
 0001:001db050       c16_info_helper            00000001801dc050 f   c16_DynJointVerify.obj
 0001:001ddf50       mdlProcessParameters_c16_DynJointVerify 00000001801def50 f   c16_DynJointVerify.obj
 0001:001de010       initialize_params_c16_DynJointVerify 00000001801df010 f   c16_DynJointVerify.obj
 0001:001de7c0       mdlSetWorkWidths_c16_DynJointVerify 00000001801df7c0 f   c16_DynJointVerify.obj
 0001:001df1a0       mdlStart_c16_DynJointVerify 00000001801e01a0 f   c16_DynJointVerify.obj
 0001:001df3c0       init_dsm_address_info      00000001801e03c0 f   c16_DynJointVerify.obj
 0001:001df3d0       sf_get_sim_state_info_c16_DynJointVerify 00000001801e03d0 f   c16_DynJointVerify.obj
 0001:001df490       chart_debug_initialization 00000001801e0490 f   c16_DynJointVerify.obj
 0001:001e09f0       init_script_number_translation 00000001801e19f0 f   c16_DynJointVerify.obj
 0001:001e0a30       c16_sf_marshall            00000001801e1a30 f   c16_DynJointVerify.obj
 0001:001e0b80       c16_b_sf_marshall          00000001801e1b80 f   c16_DynJointVerify.obj
 0001:001e0cf0       c16_d_sf_marshall          00000001801e1cf0 f   c16_DynJointVerify.obj
 0001:001e0e60       c16_e_sf_marshall          00000001801e1e60 f   c16_DynJointVerify.obj
 0001:001e0fd0       c16_f_sf_marshall          00000001801e1fd0 f   c16_DynJointVerify.obj
 0001:001e1140       sf_opaque_initialize_c16_DynJointVerify 00000001801e2140 f   c16_DynJointVerify.obj
 0001:001e1180       initialize_c16_DynJointVerify 00000001801e2180 f   c16_DynJointVerify.obj
 0001:001e11c0       sf_opaque_enable_c16_DynJointVerify 00000001801e21c0 f   c16_DynJointVerify.obj
 0001:001e11e0       enable_c16_DynJointVerify  00000001801e21e0 f   c16_DynJointVerify.obj
 0001:001e1210       sf_opaque_disable_c16_DynJointVerify 00000001801e2210 f   c16_DynJointVerify.obj
 0001:001e1230       disable_c16_DynJointVerify 00000001801e2230 f   c16_DynJointVerify.obj
 0001:001e1260       sf_opaque_gateway_c16_DynJointVerify 00000001801e2260 f   c16_DynJointVerify.obj
 0001:001e1280       sf_c16_DynJointVerify      00000001801e2280 f   c16_DynJointVerify.obj
 0001:001e2d00       c16_EulerCd                00000001801e3d00 f   c16_DynJointVerify.obj
 0001:00227430       c16_power                  0000000180228430 f   c16_DynJointVerify.obj
 0001:002274e0       c16_eml_scalar_eg          00000001802284e0 f   c16_DynJointVerify.obj
 0001:002274f0       c16_eml_error              00000001802284f0 f   c16_DynJointVerify.obj
 0001:002276e0       c16_b_eml_scalar_eg        00000001802286e0 f   c16_DynJointVerify.obj
 0001:002276f0       c16_c_sf_marshall          00000001802286f0 f   c16_DynJointVerify.obj
 0001:002277a0       c16_g_sf_marshall          00000001802287a0 f   c16_DynJointVerify.obj
 0001:002279d0       sf_opaque_get_sim_state_c16_DynJointVerify 00000001802289d0 f   c16_DynJointVerify.obj
 0001:002279f0       sf_internal_get_sim_state_c16_DynJointVerify 00000001802289f0 f   c16_DynJointVerify.obj
 0001:00227ae0       get_sim_state_c16_DynJointVerify 0000000180228ae0 f   c16_DynJointVerify.obj
 0001:00227d30       sf_opaque_set_sim_state_c16_DynJointVerify 0000000180228d30 f   c16_DynJointVerify.obj
 0001:00227d60       sf_internal_set_sim_state_c16_DynJointVerify 0000000180228d60 f   c16_DynJointVerify.obj
 0001:00227e80       set_sim_state_c16_DynJointVerify 0000000180228e80 f   c16_DynJointVerify.obj
 0001:00227fb0       c16_update_debugger_state_c16_DynJointVerify 0000000180228fb0 f   c16_DynJointVerify.obj
 0001:00227fc0       c16_emlrt_marshallIn       0000000180228fc0 f   c16_DynJointVerify.obj
 0001:00228090       c16_b_emlrt_marshallIn     0000000180229090 f   c16_DynJointVerify.obj
 0001:00228120       sf_opaque_terminate_c16_DynJointVerify 0000000180229120 f   c16_DynJointVerify.obj
 0001:002281a0       finalize_c16_DynJointVerify 00000001802291a0 f   c16_DynJointVerify.obj
 0001:002281b0       sf_opaque_init_subchart_simstructs 00000001802291b0 f   c16_DynJointVerify.obj
 0001:002281d0       compInitSubchartSimstructsFcn_c16_DynJointVerify 00000001802291d0 f   c16_DynJointVerify.obj
 0001:002281e0       mdlRTW_c16_DynJointVerify  00000001802291e0 f   c16_DynJointVerify.obj
 0001:00228600       c17_info_helper            0000000180229600 f   c17_DynJointVerify.obj
 0001:0022b3c0       mdlProcessParameters_c17_DynJointVerify 000000018022c3c0 f   c17_DynJointVerify.obj
 0001:0022b480       initialize_params_c17_DynJointVerify 000000018022c480 f   c17_DynJointVerify.obj
 0001:0022bc20       mdlSetWorkWidths_c17_DynJointVerify 000000018022cc20 f   c17_DynJointVerify.obj
 0001:0022c5d0       mdlStart_c17_DynJointVerify 000000018022d5d0 f   c17_DynJointVerify.obj
 0001:0022c7f0       init_dsm_address_info      000000018022d7f0 f   c17_DynJointVerify.obj
 0001:0022c800       sf_get_sim_state_info_c17_DynJointVerify 000000018022d800 f   c17_DynJointVerify.obj
 0001:0022c8c0       chart_debug_initialization 000000018022d8c0 f   c17_DynJointVerify.obj
 0001:0022dcd0       init_script_number_translation 000000018022ecd0 f   c17_DynJointVerify.obj
 0001:0022dd10       c17_sf_marshall            000000018022ed10 f   c17_DynJointVerify.obj
 0001:0022de50       c17_b_sf_marshall          000000018022ee50 f   c17_DynJointVerify.obj
 0001:0022dfc0       c17_d_sf_marshall          000000018022efc0 f   c17_DynJointVerify.obj
 0001:0022e130       c17_e_sf_marshall          000000018022f130 f   c17_DynJointVerify.obj
 0001:0022e2a0       c17_f_sf_marshall          000000018022f2a0 f   c17_DynJointVerify.obj
 0001:0022e410       sf_opaque_initialize_c17_DynJointVerify 000000018022f410 f   c17_DynJointVerify.obj
 0001:0022e450       initialize_c17_DynJointVerify 000000018022f450 f   c17_DynJointVerify.obj
 0001:0022e490       sf_opaque_enable_c17_DynJointVerify 000000018022f490 f   c17_DynJointVerify.obj
 0001:0022e4b0       enable_c17_DynJointVerify  000000018022f4b0 f   c17_DynJointVerify.obj
 0001:0022e4e0       sf_opaque_disable_c17_DynJointVerify 000000018022f4e0 f   c17_DynJointVerify.obj
 0001:0022e500       disable_c17_DynJointVerify 000000018022f500 f   c17_DynJointVerify.obj
 0001:0022e530       sf_opaque_gateway_c17_DynJointVerify 000000018022f530 f   c17_DynJointVerify.obj
 0001:0022e550       sf_c17_DynJointVerify      000000018022f550 f   c17_DynJointVerify.obj
 0001:0022fe70       c17_EulerMd                0000000180230e70 f   c17_DynJointVerify.obj
 0001:00245560       c17_power                  0000000180246560 f   c17_DynJointVerify.obj
 0001:00245610       c17_eml_scalar_eg          0000000180246610 f   c17_DynJointVerify.obj
 0001:00245620       c17_eml_error              0000000180246620 f   c17_DynJointVerify.obj
 0001:00245810       c17_b_eml_scalar_eg        0000000180246810 f   c17_DynJointVerify.obj
 0001:00245820       c17_c_sf_marshall          0000000180246820 f   c17_DynJointVerify.obj
 0001:002458d0       c17_g_sf_marshall          00000001802468d0 f   c17_DynJointVerify.obj
 0001:00245ae0       sf_opaque_get_sim_state_c17_DynJointVerify 0000000180246ae0 f   c17_DynJointVerify.obj
 0001:00245b00       sf_internal_get_sim_state_c17_DynJointVerify 0000000180246b00 f   c17_DynJointVerify.obj
 0001:00245bf0       get_sim_state_c17_DynJointVerify 0000000180246bf0 f   c17_DynJointVerify.obj
 0001:00245e20       sf_opaque_set_sim_state_c17_DynJointVerify 0000000180246e20 f   c17_DynJointVerify.obj
 0001:00245e50       sf_internal_set_sim_state_c17_DynJointVerify 0000000180246e50 f   c17_DynJointVerify.obj
 0001:00245f70       set_sim_state_c17_DynJointVerify 0000000180246f70 f   c17_DynJointVerify.obj
 0001:002460a0       c17_update_debugger_state_c17_DynJointVerify 00000001802470a0 f   c17_DynJointVerify.obj
 0001:002460b0       c17_emlrt_marshallIn       00000001802470b0 f   c17_DynJointVerify.obj
 0001:00246190       c17_b_emlrt_marshallIn     0000000180247190 f   c17_DynJointVerify.obj
 0001:00246220       sf_opaque_terminate_c17_DynJointVerify 0000000180247220 f   c17_DynJointVerify.obj
 0001:002462a0       finalize_c17_DynJointVerify 00000001802472a0 f   c17_DynJointVerify.obj
 0001:002462b0       sf_opaque_init_subchart_simstructs 00000001802472b0 f   c17_DynJointVerify.obj
 0001:002462d0       compInitSubchartSimstructsFcn_c17_DynJointVerify 00000001802472d0 f   c17_DynJointVerify.obj
 0001:002462e0       mdlRTW_c17_DynJointVerify  00000001802472e0 f   c17_DynJointVerify.obj
 0001:002466e0       c18_info_helper            00000001802476e0 f   c18_DynJointVerify.obj
 0001:00248000       mdlProcessParameters_c18_DynJointVerify 0000000180249000 f   c18_DynJointVerify.obj
 0001:002480c0       initialize_params_c18_DynJointVerify 00000001802490c0 f   c18_DynJointVerify.obj
 0001:002481b0       mdlSetWorkWidths_c18_DynJointVerify 00000001802491b0 f   c18_DynJointVerify.obj
 0001:00248640       mdlStart_c18_DynJointVerify 0000000180249640 f   c18_DynJointVerify.obj
 0001:00248850       init_dsm_address_info      0000000180249850 f   c18_DynJointVerify.obj
 0001:00248860       sf_get_sim_state_info_c18_DynJointVerify 0000000180249860 f   c18_DynJointVerify.obj
 0001:00248920       chart_debug_initialization 0000000180249920 f   c18_DynJointVerify.obj
 0001:002491b0       init_script_number_translation 000000018024a1b0 f   c18_DynJointVerify.obj
 0001:002491f0       c18_sf_marshall            000000018024a1f0 f   c18_DynJointVerify.obj
 0001:00249310       c18_b_sf_marshall          000000018024a310 f   c18_DynJointVerify.obj
 0001:00249460       c18_c_sf_marshall          000000018024a460 f   c18_DynJointVerify.obj
 0001:00249590       sf_opaque_initialize_c18_DynJointVerify 000000018024a590 f   c18_DynJointVerify.obj
 0001:002495d0       initialize_c18_DynJointVerify 000000018024a5d0 f   c18_DynJointVerify.obj
 0001:00249610       sf_opaque_enable_c18_DynJointVerify 000000018024a610 f   c18_DynJointVerify.obj
 0001:00249630       enable_c18_DynJointVerify  000000018024a630 f   c18_DynJointVerify.obj
 0001:00249660       sf_opaque_disable_c18_DynJointVerify 000000018024a660 f   c18_DynJointVerify.obj
 0001:00249680       disable_c18_DynJointVerify 000000018024a680 f   c18_DynJointVerify.obj
 0001:002496b0       sf_opaque_gateway_c18_DynJointVerify 000000018024a6b0 f   c18_DynJointVerify.obj
 0001:002496d0       sf_c18_DynJointVerify      000000018024a6d0 f   c18_DynJointVerify.obj
 0001:00249f00       c18_fwd_kin                000000018024af00 f   c18_DynJointVerify.obj
 0001:0024d830       c18_d_sf_marshall          000000018024e830 f   c18_DynJointVerify.obj
 0001:0024d8e0       c18_e_sf_marshall          000000018024e8e0 f   c18_DynJointVerify.obj
 0001:0024db10       c18_f_sf_marshall          000000018024eb10 f   c18_DynJointVerify.obj
 0001:0024dc80       sf_opaque_get_sim_state_c18_DynJointVerify 000000018024ec80 f   c18_DynJointVerify.obj
 0001:0024dca0       sf_internal_get_sim_state_c18_DynJointVerify 000000018024eca0 f   c18_DynJointVerify.obj
 0001:0024dd90       get_sim_state_c18_DynJointVerify 000000018024ed90 f   c18_DynJointVerify.obj
 0001:0024dfa0       sf_opaque_set_sim_state_c18_DynJointVerify 000000018024efa0 f   c18_DynJointVerify.obj
 0001:0024dfd0       sf_internal_set_sim_state_c18_DynJointVerify 000000018024efd0 f   c18_DynJointVerify.obj
 0001:0024e0f0       set_sim_state_c18_DynJointVerify 000000018024f0f0 f   c18_DynJointVerify.obj
 0001:0024e200       c18_update_debugger_state_c18_DynJointVerify 000000018024f200 f   c18_DynJointVerify.obj
 0001:0024e210       c18_emlrt_marshallIn       000000018024f210 f   c18_DynJointVerify.obj
 0001:0024e2e0       c18_b_emlrt_marshallIn     000000018024f2e0 f   c18_DynJointVerify.obj
 0001:0024e370       sf_opaque_terminate_c18_DynJointVerify 000000018024f370 f   c18_DynJointVerify.obj
 0001:0024e3f0       finalize_c18_DynJointVerify 000000018024f3f0 f   c18_DynJointVerify.obj
 0001:0024e400       sf_opaque_init_subchart_simstructs 000000018024f400 f   c18_DynJointVerify.obj
 0001:0024e420       compInitSubchartSimstructsFcn_c18_DynJointVerify 000000018024f420 f   c18_DynJointVerify.obj
 0001:0024e430       mdlRTW_c18_DynJointVerify  000000018024f430 f   c18_DynJointVerify.obj
 0001:0024e870       c19_info_helper            000000018024f870 f   c19_DynJointVerify.obj
 0001:00250c50       mdlProcessParameters_c19_DynJointVerify 0000000180251c50 f   c19_DynJointVerify.obj
 0001:00250d10       initialize_params_c19_DynJointVerify 0000000180251d10 f   c19_DynJointVerify.obj
 0001:00250e00       mdlSetWorkWidths_c19_DynJointVerify 0000000180251e00 f   c19_DynJointVerify.obj
 0001:002512c0       mdlStart_c19_DynJointVerify 00000001802522c0 f   c19_DynJointVerify.obj
 0001:002514d0       init_dsm_address_info      00000001802524d0 f   c19_DynJointVerify.obj
 0001:002514e0       sf_get_sim_state_info_c19_DynJointVerify 00000001802524e0 f   c19_DynJointVerify.obj
 0001:002515a0       chart_debug_initialization 00000001802525a0 f   c19_DynJointVerify.obj
 0001:00252020       init_script_number_translation 0000000180253020 f   c19_DynJointVerify.obj
 0001:00252080       c19_sf_marshall            0000000180253080 f   c19_DynJointVerify.obj
 0001:002521a0       c19_b_sf_marshall          00000001802531a0 f   c19_DynJointVerify.obj
 0001:00252310       c19_c_sf_marshall          0000000180253310 f   c19_DynJointVerify.obj
 0001:00252460       sf_opaque_initialize_c19_DynJointVerify 0000000180253460 f   c19_DynJointVerify.obj
 0001:002524a0       initialize_c19_DynJointVerify 00000001802534a0 f   c19_DynJointVerify.obj
 0001:002524e0       sf_opaque_enable_c19_DynJointVerify 00000001802534e0 f   c19_DynJointVerify.obj
 0001:00252500       enable_c19_DynJointVerify  0000000180253500 f   c19_DynJointVerify.obj
 0001:00252530       sf_opaque_disable_c19_DynJointVerify 0000000180253530 f   c19_DynJointVerify.obj
 0001:00252550       disable_c19_DynJointVerify 0000000180253550 f   c19_DynJointVerify.obj
 0001:00252580       sf_opaque_gateway_c19_DynJointVerify 0000000180253580 f   c19_DynJointVerify.obj
 0001:002525a0       sf_c19_DynJointVerify      00000001802535a0 f   c19_DynJointVerify.obj
 0001:00252880       c19_c19_DynJointVerify     0000000180253880 f   c19_DynJointVerify.obj
 0001:00253790       c19_spat_Jacobian          0000000180254790 f   c19_DynJointVerify.obj
 0001:00256660       c19_eml_scalar_eg          0000000180257660 f   c19_DynJointVerify.obj
 0001:00256670       c19_b_eml_scalar_eg        0000000180257670 f   c19_DynJointVerify.obj
 0001:00256680       c19_fwd_kin                0000000180257680 f   c19_DynJointVerify.obj
 0001:0025a160       c19_d_sf_marshall          000000018025b160 f   c19_DynJointVerify.obj
 0001:0025a210       c19_e_sf_marshall          000000018025b210 f   c19_DynJointVerify.obj
 0001:0025a440       c19_f_sf_marshall          000000018025b440 f   c19_DynJointVerify.obj
 0001:0025a670       c19_g_sf_marshall          000000018025b670 f   c19_DynJointVerify.obj
 0001:0025a7e0       sf_opaque_get_sim_state_c19_DynJointVerify 000000018025b7e0 f   c19_DynJointVerify.obj
 0001:0025a800       sf_internal_get_sim_state_c19_DynJointVerify 000000018025b800 f   c19_DynJointVerify.obj
 0001:0025a8f0       get_sim_state_c19_DynJointVerify 000000018025b8f0 f   c19_DynJointVerify.obj
 0001:0025ab00       sf_opaque_set_sim_state_c19_DynJointVerify 000000018025bb00 f   c19_DynJointVerify.obj
 0001:0025ab30       sf_internal_set_sim_state_c19_DynJointVerify 000000018025bb30 f   c19_DynJointVerify.obj
 0001:0025ac50       set_sim_state_c19_DynJointVerify 000000018025bc50 f   c19_DynJointVerify.obj
 0001:0025ad60       c19_update_debugger_state_c19_DynJointVerify 000000018025bd60 f   c19_DynJointVerify.obj
 0001:0025ad70       c19_emlrt_marshallIn       000000018025bd70 f   c19_DynJointVerify.obj
 0001:0025ae40       c19_b_emlrt_marshallIn     000000018025be40 f   c19_DynJointVerify.obj
 0001:0025aed0       sf_opaque_terminate_c19_DynJointVerify 000000018025bed0 f   c19_DynJointVerify.obj
 0001:0025af50       finalize_c19_DynJointVerify 000000018025bf50 f   c19_DynJointVerify.obj
 0001:0025af60       sf_opaque_init_subchart_simstructs 000000018025bf60 f   c19_DynJointVerify.obj
 0001:0025af80       compInitSubchartSimstructsFcn_c19_DynJointVerify 000000018025bf80 f   c19_DynJointVerify.obj
 0001:0025af90       mdlRTW_c19_DynJointVerify  000000018025bf90 f   c19_DynJointVerify.obj
 0001:0025b390       c20_info_helper            000000018025c390 f   c20_DynJointVerify.obj
 0001:0025ccd0       mdlProcessParameters_c20_DynJointVerify 000000018025dcd0 f   c20_DynJointVerify.obj
 0001:0025cd90       initialize_params_c20_DynJointVerify 000000018025dd90 f   c20_DynJointVerify.obj
 0001:0025d0b0       mdlSetWorkWidths_c20_DynJointVerify 000000018025e0b0 f   c20_DynJointVerify.obj
 0001:0025d730       mdlStart_c20_DynJointVerify 000000018025e730 f   c20_DynJointVerify.obj
 0001:0025d950       init_dsm_address_info      000000018025e950 f   c20_DynJointVerify.obj
 0001:0025d960       sf_get_sim_state_info_c20_DynJointVerify 000000018025e960 f   c20_DynJointVerify.obj
 0001:0025da20       chart_debug_initialization 000000018025ea20 f   c20_DynJointVerify.obj
 0001:0025e6c0       init_script_number_translation 000000018025f6c0 f   c20_DynJointVerify.obj
 0001:0025e700       c20_sf_marshall            000000018025f700 f   c20_DynJointVerify.obj
 0001:0025e830       c20_b_sf_marshall          000000018025f830 f   c20_DynJointVerify.obj
 0001:0025e8e0       c20_c_sf_marshall          000000018025f8e0 f   c20_DynJointVerify.obj
 0001:0025ea50       c20_d_sf_marshall          000000018025fa50 f   c20_DynJointVerify.obj
 0001:0025ebc0       c20_e_sf_marshall          000000018025fbc0 f   c20_DynJointVerify.obj
 0001:0025ed30       sf_opaque_initialize_c20_DynJointVerify 000000018025fd30 f   c20_DynJointVerify.obj
 0001:0025ed70       initialize_c20_DynJointVerify 000000018025fd70 f   c20_DynJointVerify.obj
 0001:0025edb0       sf_opaque_enable_c20_DynJointVerify 000000018025fdb0 f   c20_DynJointVerify.obj
 0001:0025edd0       enable_c20_DynJointVerify  000000018025fdd0 f   c20_DynJointVerify.obj
 0001:0025ee00       sf_opaque_disable_c20_DynJointVerify 000000018025fe00 f   c20_DynJointVerify.obj
 0001:0025ee20       disable_c20_DynJointVerify 000000018025fe20 f   c20_DynJointVerify.obj
 0001:0025ee50       sf_opaque_gateway_c20_DynJointVerify 000000018025fe50 f   c20_DynJointVerify.obj
 0001:0025ee70       sf_c20_DynJointVerify      000000018025fe70 f   c20_DynJointVerify.obj
 0001:0025fa20       c20_EulerNd                0000000180260a20 f   c20_DynJointVerify.obj
 0001:00265160       c20_power                  0000000180266160 f   c20_DynJointVerify.obj
 0001:00265200       c20_eml_error              0000000180266200 f   c20_DynJointVerify.obj
 0001:002653e0       sf_opaque_get_sim_state_c20_DynJointVerify 00000001802663e0 f   c20_DynJointVerify.obj
 0001:00265400       sf_internal_get_sim_state_c20_DynJointVerify 0000000180266400 f   c20_DynJointVerify.obj
 0001:002654f0       get_sim_state_c20_DynJointVerify 00000001802664f0 f   c20_DynJointVerify.obj
 0001:00265730       sf_opaque_set_sim_state_c20_DynJointVerify 0000000180266730 f   c20_DynJointVerify.obj
 0001:00265760       sf_internal_set_sim_state_c20_DynJointVerify 0000000180266760 f   c20_DynJointVerify.obj
 0001:00265880       set_sim_state_c20_DynJointVerify 0000000180266880 f   c20_DynJointVerify.obj
 0001:002659b0       c20_update_debugger_state_c20_DynJointVerify 00000001802669b0 f   c20_DynJointVerify.obj
 0001:002659c0       c20_emlrt_marshallIn       00000001802669c0 f   c20_DynJointVerify.obj
 0001:00265a90       c20_b_emlrt_marshallIn     0000000180266a90 f   c20_DynJointVerify.obj
 0001:00265b20       sf_opaque_terminate_c20_DynJointVerify 0000000180266b20 f   c20_DynJointVerify.obj
 0001:00265ba0       finalize_c20_DynJointVerify 0000000180266ba0 f   c20_DynJointVerify.obj
 0001:00265bb0       sf_opaque_init_subchart_simstructs 0000000180266bb0 f   c20_DynJointVerify.obj
 0001:00265bd0       compInitSubchartSimstructsFcn_c20_DynJointVerify 0000000180266bd0 f   c20_DynJointVerify.obj
 0001:00265be0       mdlRTW_c20_DynJointVerify  0000000180266be0 f   c20_DynJointVerify.obj
 0001:002661a0       c21_info_helper            00000001802671a0 f   c21_DynJointVerify.obj
 0001:00268920       mdlProcessParameters_c21_DynJointVerify 0000000180269920 f   c21_DynJointVerify.obj
 0001:002689e0       initialize_params_c21_DynJointVerify 00000001802699e0 f   c21_DynJointVerify.obj
 0001:00268b90       mdlSetWorkWidths_c21_DynJointVerify 0000000180269b90 f   c21_DynJointVerify.obj
 0001:002690f0       mdlStart_c21_DynJointVerify 000000018026a0f0 f   c21_DynJointVerify.obj
 0001:00269310       init_dsm_address_info      000000018026a310 f   c21_DynJointVerify.obj
 0001:00269320       sf_get_sim_state_info_c21_DynJointVerify 000000018026a320 f   c21_DynJointVerify.obj
 0001:002693e0       chart_debug_initialization 000000018026a3e0 f   c21_DynJointVerify.obj
 0001:0026a350       init_script_number_translation 000000018026b350 f   c21_DynJointVerify.obj
 0001:0026a440       c21_sf_marshall            000000018026b440 f   c21_DynJointVerify.obj
 0001:0026a570       c21_b_sf_marshall          000000018026b570 f   c21_DynJointVerify.obj
 0001:0026a6c0       c21_c_sf_marshall          000000018026b6c0 f   c21_DynJointVerify.obj
 0001:0026a7f0       c21_e_sf_marshall          000000018026b7f0 f   c21_DynJointVerify.obj
 0001:0026a940       sf_opaque_initialize_c21_DynJointVerify 000000018026b940 f   c21_DynJointVerify.obj
 0001:0026a980       initialize_c21_DynJointVerify 000000018026b980 f   c21_DynJointVerify.obj
 0001:0026a9c0       sf_opaque_enable_c21_DynJointVerify 000000018026b9c0 f   c21_DynJointVerify.obj
 0001:0026a9e0       enable_c21_DynJointVerify  000000018026b9e0 f   c21_DynJointVerify.obj
 0001:0026aa10       sf_opaque_disable_c21_DynJointVerify 000000018026ba10 f   c21_DynJointVerify.obj
 0001:0026aa30       disable_c21_DynJointVerify 000000018026ba30 f   c21_DynJointVerify.obj
 0001:0026aa60       sf_opaque_gateway_c21_DynJointVerify 000000018026ba60 f   c21_DynJointVerify.obj
 0001:0026aa80       sf_c21_DynJointVerify      000000018026ba80 f   c21_DynJointVerify.obj
 0001:0026ae10       c21_c21_DynJointVerify     000000018026be10 f   c21_DynJointVerify.obj
 0001:0026d0d0       c21_body_Jacobian_d1       000000018026e0d0 f   c21_DynJointVerify.obj
 0001:0026d6f0       c21_eml_scalar_eg          000000018026e6f0 f   c21_DynJointVerify.obj
 0001:0026d700       c21_body_Jacobian_d2       000000018026e700 f   c21_DynJointVerify.obj
 0001:0026e560       c21_body_Jacobian_d3       000000018026f560 f   c21_DynJointVerify.obj
 0001:00270420       c21_body_Jacobian_d4       0000000180271420 f   c21_DynJointVerify.obj
 0001:00273370       c21_power                  0000000180274370 f   c21_DynJointVerify.obj
 0001:00273420       c21_b_eml_scalar_eg        0000000180274420 f   c21_DynJointVerify.obj
 0001:00273430       c21_eml_error              0000000180274430 f   c21_DynJointVerify.obj
 0001:00273600       c21_body_Jacobian_d5       0000000180274600 f   c21_DynJointVerify.obj
 0001:002784b0       c21_body_Jacobian_d6       00000001802794b0 f   c21_DynJointVerify.obj
 0001:0027f540       c21_d_sf_marshall          0000000180280540 f   c21_DynJointVerify.obj
 0001:0027f5f0       c21_f_sf_marshall          00000001802805f0 f   c21_DynJointVerify.obj
 0001:0027f7d0       c21_g_sf_marshall          00000001802807d0 f   c21_DynJointVerify.obj
 0001:0027f920       sf_opaque_get_sim_state_c21_DynJointVerify 0000000180280920 f   c21_DynJointVerify.obj
 0001:0027f940       sf_internal_get_sim_state_c21_DynJointVerify 0000000180280940 f   c21_DynJointVerify.obj
 0001:0027fa30       get_sim_state_c21_DynJointVerify 0000000180280a30 f   c21_DynJointVerify.obj
 0001:0027fc70       sf_opaque_set_sim_state_c21_DynJointVerify 0000000180280c70 f   c21_DynJointVerify.obj
 0001:0027fca0       sf_internal_set_sim_state_c21_DynJointVerify 0000000180280ca0 f   c21_DynJointVerify.obj
 0001:0027fdc0       set_sim_state_c21_DynJointVerify 0000000180280dc0 f   c21_DynJointVerify.obj
 0001:0027ff00       c21_update_debugger_state_c21_DynJointVerify 0000000180280f00 f   c21_DynJointVerify.obj
 0001:0027ff10       c21_emlrt_marshallIn       0000000180280f10 f   c21_DynJointVerify.obj
 0001:0027ffe0       c21_b_emlrt_marshallIn     0000000180280fe0 f   c21_DynJointVerify.obj
 0001:00280070       sf_opaque_terminate_c21_DynJointVerify 0000000180281070 f   c21_DynJointVerify.obj
 0001:002800f0       finalize_c21_DynJointVerify 00000001802810f0 f   c21_DynJointVerify.obj
 0001:00280100       sf_opaque_init_subchart_simstructs 0000000180281100 f   c21_DynJointVerify.obj
 0001:00280120       compInitSubchartSimstructsFcn_c21_DynJointVerify 0000000180281120 f   c21_DynJointVerify.obj
 0001:00280130       mdlRTW_c21_DynJointVerify  0000000180281130 f   c21_DynJointVerify.obj
 0001:002819a0       _ssFatalError              00000001802829a0 f   DynJointVerify_sfun_registry.obj
 0001:00284a20       ProcessMexSfunctionCmdLineCall 0000000180285a20 f   DynJointVerify_sfun_registry.obj
 0001:00284b10       mdlGetTimeOfNextVarHit     0000000180285b10 f   DynJointVerify_sfun_registry.obj
 0001:00284b70       _ProcessMexSfunctionCmdLineCall 0000000180285b70 f   DynJointVerify_sfun_registry.obj
 0001:00285240       _CreateSimStruct           0000000180286240 f   DynJointVerify_sfun_registry.obj
 0001:002853d0       _RegNumInputPortsCB        00000001802863d0 f   DynJointVerify_sfun_registry.obj
 0001:00285450       _RegNumOutputPortsCB       0000000180286450 f   DynJointVerify_sfun_registry.obj
 0001:00285530       sf_machine_load_sfunction_ptrs 0000000180286530 f   DynJointVerify_sfun_registry.obj
 0001:00286900       SNPRINTF_WRAPPER           0000000180287900 f   sfc_mex:sfc_mex.obj
 0001:00286920       convert_dims_to_string     0000000180287920 f   sfc_mex:sfc_mex.obj
 0001:00286b40       is_real_T_equal_to_double  0000000180287b40 f   sfc_mex:sfc_mex.obj
 0001:00286b60       is_real32_T_equal_to_double 0000000180287b60 f   sfc_mex:sfc_mex.obj
 0001:00286b70       is_mxLogical_equal_to_double 0000000180287b70 f   sfc_mex:sfc_mex.obj
 0001:00286b90       is_int8_T_equal_to_double  0000000180287b90 f   sfc_mex:sfc_mex.obj
 0001:00286bb0       is_uint8_T_equal_to_double 0000000180287bb0 f   sfc_mex:sfc_mex.obj
 0001:00286bd0       is_int16_T_equal_to_double 0000000180287bd0 f   sfc_mex:sfc_mex.obj
 0001:00286bf0       is_uint16_T_equal_to_double 0000000180287bf0 f   sfc_mex:sfc_mex.obj
 0001:00286c10       is_int32_T_equal_to_double 0000000180287c10 f   sfc_mex:sfc_mex.obj
 0001:00286c30       is_uint32_T_equal_to_double 0000000180287c30 f   sfc_mex:sfc_mex.obj
 0001:00286c50       is_char_T_equal_to_double  0000000180287c50 f   sfc_mex:sfc_mex.obj
 0001:00286c70       sf_zero_numeric_value      0000000180287c70 f   sfc_mex:sfc_mex.obj
 0001:00286ca0       sf_error_append_debugger_context_if_available 0000000180287ca0 f   sfc_mex:sfc_mex.obj
 0001:00286d50       sf_mex_get_error_message_for_write 0000000180287d50 f   sfc_mex:sfc_mex.obj
 0001:00286d80       replace_single_quotes_by_doubled_quotes 0000000180287d80 f   sfc_mex:sfc_mex.obj
 0001:00286fd0       sf_mex_get_formatted_error_string 0000000180287fd0 f   sfc_mex:sfc_mex.obj
 0001:002873d0       sf_mex_destroy_array       00000001802883d0 f   sfc_mex:sfc_mex.obj
 0001:00287770       sfrtAddSize                0000000180288770 f   sfc_mex:sfc_mex.obj
 0001:00287830       sfrtGenSizeString          0000000180288830 f   sfc_mex:sfc_mex.obj
 0001:00287910       sfIsProperVector           0000000180288910 f   sfc_mex:sfc_mex.obj
 0001:00287940       sfIsRowVector              0000000180288940 f   sfc_mex:sfc_mex.obj
 0001:00287ce0       sf_mex_err                 0000000180288ce0 f   sfc_mex:sfc_mex.obj
 0001:00287d00       sf_error_dimension_out_of_bound 0000000180288d00 f   sfc_mex:sfc_mex.obj
 0001:00287d30       sf_mex_check_and_set_actual_dimensions 0000000180288d30 f   sfc_mex:sfc_mex.obj
 0001:00288f20       size_mismatch_error        0000000180289f20 f   sfc_mex:sfc_mex.obj
 0001:00289a60       check_array_dimensions     000000018028aa60 f   sfc_mex:sfc_mex.obj
 0001:00289ad0       check_input_mxarray        000000018028aad0 f   sfc_mex:sfc_mex.obj
 0001:0028a270       sf_numeric_value_to_double 000000018028b270 f   sfc_mex:sfc_mex.obj
 0001:0028a2c0       ml_generic_out_of_bounds_check 000000018028b2c0 f   sfc_mex:sfc_mex.obj
 0001:0028a410       ml_get_element_value_from_array 000000018028b410 f   sfc_mex:sfc_mex.obj
 0001:0028a710       _ml_generic_castability_check 000000018028b710 f   sfc_mex:sfc_mex.obj
 0001:0028b2e0       ml_generic_castability_check 000000018028c2e0 f   sfc_mex:sfc_mex.obj
 0001:0028b380       ml_check_mx_array_for_single_castability 000000018028c380 f   sfc_mex:sfc_mex.obj
 0001:0028b420       ml_check_mx_array_for_logical_castability 000000018028c420 f   sfc_mex:sfc_mex.obj
 0001:0028b4c0       ml_check_mx_array_for_int8_castability 000000018028c4c0 f   sfc_mex:sfc_mex.obj
 0001:0028b570       ml_check_mx_array_for_uint8_castability 000000018028c570 f   sfc_mex:sfc_mex.obj
 0001:0028b610       ml_check_mx_array_for_int16_castability 000000018028c610 f   sfc_mex:sfc_mex.obj
 0001:0028b6b0       ml_check_mx_array_for_uint16_castability 000000018028c6b0 f   sfc_mex:sfc_mex.obj
 0001:0028b750       ml_check_mx_array_for_int32_castability 000000018028c750 f   sfc_mex:sfc_mex.obj
 0001:0028b7f0       ml_check_mx_array_for_uint32_castability 000000018028c7f0 f   sfc_mex:sfc_mex.obj
 0001:0028b890       ml_check_mx_array_for_castability 000000018028c890 f   sfc_mex:sfc_mex.obj
 0001:0028c060       set_data_value             000000018028d060 f   sfc_mex:sfc_mex.obj
 0001:0028c3b0       get_data_value             000000018028d3b0 f   sfc_mex:sfc_mex.obj
 0001:0028c4a0       get_next_element_address   000000018028d4a0 f   sfc_mex:sfc_mex.obj
 0001:0028c570       sf_normalize_index         000000018028d570 f   sfc_mex:sfc_mex.obj
 0001:0028c900       ml_array_index_bound_check 000000018028d900 f   sfc_mex:sfc_mex.obj
 0001:0028d510       mx_value                   000000018028e510 f   sfc_mex:sfc_mex.obj
 0001:0028d560       sf_create_numeric_array    000000018028e560 f   sfc_mex:sfc_mex.obj
 0001:0028d600       sf_mex_assign_to_mx_array  000000018028e600 f   sfc_mex:sfc_mex.obj
 0001:0028df70       assign_from_mx_array       000000018028ef70 f   sfc_mex:sfc_mex.obj
 0001:0028f1f0       get_machine_and_chart_file_number 00000001802901f0 f   sfc_mex:sfc_sf.obj
 0001:0028f2e0       get_sfun_block_specialization 00000001802902e0 f   sfc_mex:sfc_sf.obj
 0001:0028f360       call_sf_machine_global_method_dispatcher 0000000180290360 f   sfc_mex:sfc_sf.obj
 0001:0028f5d0       mdl_zeroCrossings_processing 00000001802905d0 f   sfc_mex:sfc_sf.obj
 0001:0028f6a0       mdl_derivatives_processing 00000001802906a0 f   sfc_mex:sfc_sf.obj
 0001:0028f960       mdl_outputs_continuous_legacy 0000000180290960 f   sfc_mex:sfc_sf.obj
 0001:0028f9e0       mdl_outputs_processing     00000001802909e0 f   sfc_mex:sfc_sf.obj
 0001:0028fce0       mdl_enable_processing      0000000180290ce0 f   sfc_mex:sfc_sf.obj
 0001:0028fdb0       mdl_disable_processing     0000000180290db0 f   sfc_mex:sfc_sf.obj
 0001:002908a0       write_symbol_mapping       00000001802918a0 f   sfc_mex:sfc_sf.obj
 0001:00291020       sf_call_output_fcn_enable_disable 0000000180292020 f   sfc_mex:sfc_sf.obj
 0001:002912a0       set_dwork_information_from_mx_array 00000001802922a0 f   sfc_mex:sfc_sf.obj
 0001:00291a20       get_dwork_info_from_mat_file 0000000180292a20 f   sfc_mex:sfc_sf.obj
 0001:00291bd0       ptr2mxStruct               0000000180292bd0 f   sfc_mex:sfc_sf.obj
 0001:00291fe0       SNPRINTF_WRAPPER           0000000180292fe0 f   sfc_debug:sfcdebug.obj
 0001:00292000       sf_debug_chart_instance_initialized_quick 0000000180293000 f   sfc_debug:sfcdebug.obj
 0001:00292010       sf_debug_chart_instance_initialized 0000000180293010 f   sfc_debug:sfcdebug.obj
 0001:002921b0       sfrtAddSize                00000001802931b0 f   sfc_debug:sfcdebug.obj
 0001:00292270       sfrtGenSizeString          0000000180293270 f   sfc_debug:sfcdebug.obj
 0001:002929f0       sf_debug_sim_status_listener 00000001802939f0 f   sfc_debug:sfcdebug.obj
 0001:00292f60       sf_debug_form_mask_bits    0000000180293f60 f   sfc_debug:sfcdebug.obj
 0001:00292fa0       sf_debug_form_sf_data_type_offsets 0000000180293fa0 f   sfc_debug:sfcdebug.obj
 0001:00293060       sf_debug_free_all          0000000180294060 f   sfc_debug:sfcdebug.obj
 0001:002931f0       sf_debug_append_debugger_context 00000001802941f0 f   sfc_debug:sfcdebug.obj
 0001:002934b0       local_strdup               00000001802944b0 f   sfc_debug:sfcdebug.obj
 0001:00294390       sf_debug_em_terminate      0000000180295390 f   sfc_debug:sfcdebug.obj
 0001:002943d0       sf_debug_push_eml_function 00000001802953d0 f   sfc_debug:sfcdebug.obj
 0001:00294470       sf_debug_pop_eml_function  0000000180295470 f   sfc_debug:sfcdebug.obj
 0001:00295130       sf_debug_get_machine_number_from_id_or_name 0000000180296130 f   sfc_debug:sfcdebug.obj
 0001:00295280       sf_debug_get_chart_number_from_id 0000000180296280 f   sfc_debug:sfcdebug.obj
 0001:00295f30       sf_debug_transfer_control_to_debugger_GUI 0000000180296f30 f   sfc_debug:sfcdebug.obj
 0001:00296f10       sf_debug_scripts_rehash    0000000180297f10 f   sfc_debug:sfcdebug.obj
 0001:00297160       sf_debug_get_script_line_count 0000000180298160 f   sfc_debug:sfcdebug.obj
 0001:002978b0       cv_eml_state_cvId          00000001802988b0 f   sfc_debug:sfcdebug.obj
 0001:00298dd0       sf_debug_data_array_bounds_error 0000000180299dd0 f   sfc_debug:sfcdebug.obj
 0001:002991d0       eml_debug_runtime_error_doclink 000000018029a1d0 f   sfc_debug:sfcdebug.obj
 0001:00299340       sf_debug_runtime_error     000000018029a340 f   sfc_debug:sfcdebug.obj
 0001:002993b0       sf_debug_matlab_error      000000018029a3b0 f   sfc_debug:sfcdebug.obj
 0001:00299bf0       sf_debug_data_value_error  000000018029abf0 f   sfc_debug:sfcdebug.obj
 0001:0029a4b0       sf_debug_data_loss_error   000000018029b4b0 f   sfc_debug:sfcdebug.obj
 0001:0029b0c0       call_cv_range_check        000000018029c0c0 f   sfc_debug:sfcdebug.obj
 0001:0029b9b0       sf_debug_invoke_cycle_detection_code 000000018029c9b0 f   sfc_debug:sfcdebug.obj
 0001:0029c810       sf_reset_debug_info_struct 000000018029d810 f   sfc_debug:sfcdebug.obj
 0001:0029d2d0       cv_script_cvId             000000018029e2d0 f   sfc_debug:sfcdebug.obj
 0001:0029e750       sfc_api_chart_visible      000000018029f750 f   sfc_debug:sfc_api.obj
 0001:0029e7d0       sfc_api_active_instance    000000018029f7d0 f   sfc_debug:sfc_api.obj
 0001:0029e850       sfc_api_machine_load       000000018029f850 f   sfc_debug:sfc_api.obj
 0001:0029e920       sfc_api_debugger_alive     000000018029f920 f   sfc_debug:sfc_api.obj
 0001:0029e930       sfc_api_go                 000000018029f930 f   sfc_debug:sfc_api.obj
 0001:0029e940       sfc_api_step_over          000000018029f940 f   sfc_debug:sfc_api.obj
 0001:0029e950       sfc_api_step_out           000000018029f950 f   sfc_debug:sfc_api.obj
 0001:0029e960       sfc_api_resume             000000018029f960 f   sfc_debug:sfc_api.obj
 0001:0029e970       sfc_api_break              000000018029f970 f   sfc_debug:sfc_api.obj
 0001:0029e980       sfc_api_stop_debugging     000000018029f980 f   sfc_debug:sfc_api.obj
 0001:0029e9d0       sfc_api_is_cycle_detected  000000018029f9d0 f   sfc_debug:sfc_api.obj
 0001:0029ea20       sfc_api_is_array_bounds_detected 000000018029fa20 f   sfc_debug:sfc_api.obj
 0001:0029ea70       sfc_api_set_disable_all_breakpoints 000000018029fa70 f   sfc_debug:sfc_api.obj
 0001:0029eae0       sfc_api_disable_all_breakpoints_and_go 000000018029fae0 f   sfc_debug:sfc_api.obj
 0001:0029eaf0       sfc_api_close              000000018029faf0 f   sfc_debug:sfc_api.obj
 0001:0029eb00       sfc_api_browse_data        000000018029fb00 f   sfc_debug:sfc_api.obj
 0001:0029eb70       sfc_api_watch_data         000000018029fb70 f   sfc_debug:sfc_api.obj
 0001:0029ec10       sfc_api_whos               000000018029fc10 f   sfc_debug:sfc_api.obj
 0001:0029eca0       sfc_api_get_consistency_info 000000018029fca0 f   sfc_debug:sfc_api.obj
 0001:0029ecb0       sfc_api_browse_trace       000000018029fcb0 f   sfc_debug:sfc_api.obj
 0001:0029ecc0       sfc_api_break_on_chart_entry 000000018029fcc0 f   sfc_debug:sfc_api.obj
 0001:0029ece0       sfc_api_break_on_event_broadcast 000000018029fce0 f   sfc_debug:sfc_api.obj
 0001:0029ed00       sfc_api_break_on_state_entry 000000018029fd00 f   sfc_debug:sfc_api.obj
 0001:0029ed20       sfc_api_set_watch          000000018029fd20 f   sfc_debug:sfc_api.obj
 0001:0029edc0       sfc_api_set_breakpoints    000000018029fdc0 f   sfc_debug:sfc_api.obj
 0001:0029ee60       sfc_api_set_eml_breakpoints 000000018029fe60 f   sfc_debug:sfc_api.obj
 0001:0029eee0       sfc_api_set_script_breakpoints 000000018029fee0 f   sfc_debug:sfc_api.obj
 0001:0029ef30       sfc_api_add_script_breakpoints 000000018029ff30 f   sfc_debug:sfc_api.obj
 0001:0029ef80       sfc_api_clear_script_breakpoints 000000018029ff80 f   sfc_debug:sfc_api.obj
 0001:0029efd0       sfc_api_query_script_breakpoints 000000018029ffd0 f   sfc_debug:sfc_api.obj
 0001:0029f030       sfc_api_get_script_id      00000001802a0030 f   sfc_debug:sfc_api.obj
 0001:0029f0f0       sfc_api_get_active_states  00000001802a00f0 f   sfc_debug:sfc_api.obj
 0001:0029f170       sfc_api_break_between_times 00000001802a0170 f   sfc_debug:sfc_api.obj
 0001:0029f1d0       sfc_api_get_instance_handle 00000001802a01d0 f   sfc_debug:sfc_api.obj
 0001:0029f280       sfc_api_get_coverage       00000001802a0280 f   sfc_debug:sfc_api.obj
 0001:0029f300       sfc_api_set_animation      00000001802a0300 f   sfc_debug:sfc_api.obj
 0001:0029f350       sfc_api_select_chart       00000001802a0350 f   sfc_debug:sfc_api.obj
 0001:0029f3b0       sfc_api_select_charts      00000001802a03b0 f   sfc_debug:sfc_api.obj
 0001:0029f3e0       sfc_api_cycle_detection_check 00000001802a03e0 f   sfc_debug:sfc_api.obj
 0001:0029f430       sfc_api_data_range_check   00000001802a0430 f   sfc_debug:sfc_api.obj
 0001:0029f480       sfc_api_transition_conflict_check 00000001802a0480 f   sfc_debug:sfc_api.obj
 0001:0029f4d0       sfc_api_state_consistency_check 00000001802a04d0 f   sfc_debug:sfc_api.obj
 0001:0029f520       sfc_api_set_instance_cv_ids 00000001802a0520 f   sfc_debug:sfc_api.obj
 0001:0029f630       sfc_api_set_script_cv_ids  00000001802a0630 f   sfc_debug:sfc_api.obj
 0001:0029f6d0       sfc_api_get_current_machine_id 00000001802a06d0 f   sfc_debug:sfc_api.obj
 0001:0029f700       sfc_api_get_current_machine_number 00000001802a0700 f   sfc_debug:sfc_api.obj
 0001:0029f730       sfc_api_get_current_chart_number 00000001802a0730 f   sfc_debug:sfc_api.obj
 0001:0029f760       sfc_api_get_current_instance_number 00000001802a0760 f   sfc_debug:sfc_api.obj
 0001:0029f790       sfc_api_get_current_instance_handle 00000001802a0790 f   sfc_debug:sfc_api.obj
 0001:0029f7b0       sfc_api_get_current_is_minor_time_step 00000001802a07b0 f   sfc_debug:sfc_api.obj
 0001:0029f7e0       sfc_api_get_current_machine_name 00000001802a07e0 f   sfc_debug:sfc_api.obj
 0001:0029f800       sfc_api_get_current_chart_id 00000001802a0800 f   sfc_debug:sfc_api.obj
 0001:0029f830       sfc_api_get_current_object_type 00000001802a0830 f   sfc_debug:sfc_api.obj
 0001:0029f860       sfc_api_get_current_event_type 00000001802a0860 f   sfc_debug:sfc_api.obj
 0001:0029f890       sfc_api_get_current_object_id 00000001802a0890 f   sfc_debug:sfc_api.obj
 0001:0029f8c0       sfc_get_current_active_event_type 00000001802a08c0 f   sfc_debug:sfc_api.obj
 0001:0029f8f0       sfc_api_get_current_active_event_id 00000001802a08f0 f   sfc_debug:sfc_api.obj
 0001:0029f920       sfc_api_get_current_simulation_time 00000001802a0920 f   sfc_debug:sfc_api.obj
 0001:0029f940       sfc_get_current_tag_type   00000001802a0940 f   sfc_debug:sfc_api.obj
 0001:0029f970       sfc_get_current_coverage_percentage 00000001802a0970 f   sfc_debug:sfc_api.obj
 0001:0029f990       sfc_get_current_statement_context 00000001802a0990 f   sfc_debug:sfc_api.obj
 0001:0029f9b0       sfc_get_current_optional_integer 00000001802a09b0 f   sfc_debug:sfc_api.obj
 0001:0029f9d0       sfc_get_current_statement_info 00000001802a09d0 f   sfc_debug:sfc_api.obj
 0001:0029fa70       sfc_api_get                00000001802a0a70 f   sfc_debug:sfc_api.obj
 0001:0029fbd0       sf_debug_sm_is_using_unified_editors 00000001802a0bd0 f   sfc_debug:sfdb_animation.obj
 0001:0029fc70       sf_debug_sm_is_chart_visible_in_unified_editors 00000001802a0c70 f   sfc_debug:sfdb_animation.obj
 0001:0029fd30       sf_debug_sm_check_if_chart_is_visible 00000001802a0d30 f   sfc_debug:sfdb_animation.obj
 0001:002a0940       sf_debug_sm_fill_state_activity_data 00000001802a1940 f   sfc_debug:sfdb_animation.obj
 0001:002a2f50       sf_debug_hm_get_simulink_handle 00000001802a3f50 f   sfc_debug:sfdb_handle_management.obj
 0001:002a3b40       sf_debug_hm_initialize_globals 00000001802a4b40 f   sfc_debug:sfdb_handle_management.obj
 0001:002a3c40       sf_debug_hm_get_machine_debug_flag 00000001802a4c40 f   sfc_debug:sfdb_handle_management.obj
 0001:002a3db0       sf_debug_hm_get_machine_id 00000001802a4db0 f   sfc_debug:sfdb_handle_management.obj
 0001:002a3ed0       sf_debug_hm_get_chart_id   00000001802a4ed0 f   sfc_debug:sfdb_handle_management.obj
 0001:002a4070       sf_debug_hm_register_executing_SFunction 00000001802a5070 f   sfc_debug:sfdb_handle_management.obj
 0001:002a4200       sf_debug_hm_get_chart_active_instance 00000001802a5200 f   sfc_debug:sfdb_handle_management.obj
 0001:002a4370       sf_debug_hm_get_chart_visibility 00000001802a5370 f   sfc_debug:sfdb_handle_management.obj
 0001:002a44c0       sf_debug_hm_form_object_boolean_properties 00000001802a54c0 f   sfc_debug:sfdb_handle_management.obj
 0001:002a4790       sf_debug_hm_form_object_properties 00000001802a5790 f   sfc_debug:sfdb_handle_management.obj
 0001:002a49d0       sf_debug_hm_terminate_charts 00000001802a59d0 f   sfc_debug:sfdb_handle_management.obj
 0001:002a5110       sf_debug_hm_terminate_machines 00000001802a6110 f   sfc_debug:sfdb_handle_management.obj
 0001:002a6c10       void_ptr_stack_vector_free_total 00000001802a7c10 f   sfc_debug:sfdb_data_browse.obj
 0001:002a6ca0       sf_debug_st_terminate_machine 00000001802a7ca0 f   sfc_debug:sfdb_data_browse.obj
 0001:002a6dd0       sf_debug_st_terminate_instance 00000001802a7dd0 f   sfc_debug:sfdb_data_browse.obj
 0001:002a7280       push_on_to_void_ptr_stack  00000001802a8280 f   sfc_debug:sfdb_data_browse.obj
 0001:002a7410       pop_from_void_ptr_stack    00000001802a8410 f   sfc_debug:sfdb_data_browse.obj
 0001:002a7540       sf_debug_st_get_data_value 00000001802a8540 f   sfc_debug:sfdb_data_browse.obj
 0001:002a7a70       mx_value                   00000001802a8a70 f   sfc_debug:sfdb_data_browse.obj
 0001:002a7ab0       sf_debug_st_fill_data_struct 00000001802a8ab0 f   sfc_debug:sfdb_data_browse.obj
 0001:002a7df0       data_type_format_strings   00000001802a8df0 f   sfc_debug:sfdb_data_browse.obj
 0001:002a7ea0       sf_debug_st_fill_data      00000001802a8ea0 f   sfc_debug:sfdb_data_browse.obj
 0001:002a9130       sf_debug_ss_copy_dimension 00000001802aa130 f   sfc_debug:sfdb_symbol_scope.obj
 0001:002a91f0       sf_debug_ss_get_number_elements 00000001802aa1f0 f   sfc_debug:sfdb_symbol_scope.obj
 0001:002a9210       sf_debug_ss_fill_data_struct 00000001802aa210 f   sfc_debug:sfdb_symbol_scope.obj
 0001:002a9560       sf_debug_ss_reset_data_info 00000001802aa560 f   sfc_debug:sfdb_symbol_scope.obj
 0001:002a95c0       sf_debug_fill_data_info_by_symbol_scope_entry 00000001802aa5c0 f   sfc_debug:sfdb_symbol_scope.obj
 0001:002a9670       sf_debug_fill_data_info_by_data_vector 00000001802aa670 f   sfc_debug:sfdb_symbol_scope.obj
 0001:002a98b0       sf_debug_ss_get_data_info  00000001802aa8b0 f   sfc_debug:sfdb_symbol_scope.obj
 0001:002a9ce0       sf_debug_ss_get_data_value 00000001802aace0 f   sfc_debug:sfdb_symbol_scope.obj
 0001:002aa170       sf_debug_ss_data_bytes_string 00000001802ab170 f   sfc_debug:sfdb_symbol_scope.obj
 0001:002aa220       sf_debug_ss_data_class_string 00000001802ab220 f   sfc_debug:sfdb_symbol_scope.obj
 0001:002aa5b0       sf_debug_ss_data_size_string 00000001802ab5b0 f   sfc_debug:sfdb_symbol_scope.obj
 0001:002aa690       sf_debug_ss_data_create_data_info_struct 00000001802ab690 f   sfc_debug:sfdb_symbol_scope.obj
 0001:002aa8f0       sf_debug_ss_data_create_name_value_pair 00000001802ab8f0 f   sfc_debug:sfdb_symbol_scope.obj
 0001:002aa990       sf_debug_ss_data_get_whos_info 00000001802ab990 f   sfc_debug:sfdb_symbol_scope.obj
 0001:002aaa50       same_named_data_in_data_array 00000001802aba50 f   sfc_debug:sfdb_symbol_scope.obj
 0001:002ac450       sf_debug_cc_terminate_chart 00000001802ad450 f   sfc_debug:sfdb_coverage.obj
 0001:002ac7f0       sf_debug_cc_terminate_instance 00000001802ad7f0 f   sfc_debug:sfdb_coverage.obj
 0001:002ad3f0       sf_debug_cc_mark_object_if_needed 00000001802ae3f0 f   sfc_debug:sfdb_coverage.obj
 0001:002adb50       sf_debug_cc_fill_transition_coverage_data 00000001802aeb50 f   sfc_debug:sfdb_coverage.obj
 0001:002adce0       sf_debug_cc_fill_transition_coverage_map 00000001802aece0 f   sfc_debug:sfdb_coverage.obj
 0001:002adf90       sf_debug_cc_fill_state_coverage_map 00000001802aef90 f   sfc_debug:sfdb_coverage.obj
 0001:002ae1e0       sf_debug_cc_fill_state_coverage_data 00000001802af1e0 f   sfc_debug:sfdb_coverage.obj
 0001:002aee10       sf_debug_bm_initialize_eml 00000001802afe10 f   sfc_debug:sfdb_breakpoints.obj
 0001:002aff60       sf_debug_bm_map_debug_tag_to_breakpoint_tag 00000001802b0f60 f   sfc_debug:sfdb_breakpoints.obj
 0001:002b0040       sf_debug_bm_is_a_eml_breakpoint_impl 00000001802b1040 f   sfc_debug:sfdb_breakpoints.obj
 0001:002b1ca0       sf_debug_sc_push_on_error_stack 00000001802b2ca0 f   sfc_debug:sfdb_state_consistency.obj
 0001:002b1dd0       sf_debug_sc_reset_error_stack 00000001802b2dd0 f   sfc_debug:sfdb_state_consistency.obj
 0001:002b1f60       sf_debug_sc_is_state_inconsistent 00000001802b2f60 f   sfc_debug:sfdb_state_consistency.obj
 0001:002b2260       sf_debug_sc_fill_consistency_info 00000001802b3260 f   sfc_debug:sfdb_state_consistency.obj
 0001:002b2810       void_assertion_fcn         00000001802b3810 f   sfc_debug:sfdb_call_stack.obj
 0001:002b2da0       sf_debug_tm_fill_local_trace 00000001802b3da0 f   sfc_debug:sfdb_call_stack.obj
 0001:002b3340       sf_debug_cd_terminate_instance 00000001802b4340 f   sfc_debug:sfdb_cycle_detection.obj
 0001:002b33a0       sf_debug_cd_free_checksum_stack 00000001802b43a0 f   sfc_debug:sfdb_cycle_detection.obj
 0001:002b33f0       sf_debug_cd_reset_pack_strings 00000001802b43f0 f   sfc_debug:sfdb_cycle_detection.obj
 0001:002b3ab0       md5file_clear              00000001802b4ab0 f   sfc_debug:ckmd5.obj
 0001:002b3ae0       Encode                     00000001802b4ae0 f   sfc_debug:ckmd5.obj
 0001:002b3b30       Decode                     00000001802b4b30 f   sfc_debug:ckmd5.obj
 0001:002b3bd0       MD5Transform               00000001802b4bd0 f   sfc_debug:ckmd5.obj
 0001:002b4420       md5file_addn               00000001802b5420 f   sfc_debug:ckmd5.obj
 0001:002b44f0       md5file_hash               00000001802b54f0 f   sfc_debug:ckmd5.obj
 0001:002b4cac       pre_c_init                 00000001802b5cac f   MSVCRT:crtdll.obj
 0001:002b4f68       __DllMainCRTStartup        00000001802b5f68 f   MSVCRT:crtdll.obj
 0001:002b5650       __DllMainCRTStartup$filt$0 00000001802b6650 f   MSVCRT:crtdll.obj
 0001:002b5680       __DllMainCRTStartup$fin$1  00000001802b6680 f   MSVCRT:crtdll.obj
 0001:002b5699       _onexit$fin$0              00000001802b6699 f   MSVCRT:atonexit.obj
 0001:002b56c0       _IsNonwritableInCurrentImage$filt$0 00000001802b66c0 f   MSVCRT:pesect.obj
